ARM GAS  C:\Users\embedded\AppData\Local\Temp\ccmKFuWN.s 			page 1


   1              		.cpu arm7tdmi
   2              		.eabi_attribute 20, 1
   3              		.eabi_attribute 21, 1
   4              		.eabi_attribute 23, 3
   5              		.eabi_attribute 24, 1
   6              		.eabi_attribute 25, 1
   7              		.eabi_attribute 26, 1
   8              		.eabi_attribute 30, 6
   9              		.eabi_attribute 34, 0
  10              		.eabi_attribute 18, 4
  11              		.file	"additional.c"
  12              		.text
  13              	.Ltext0:
  14              		.cfi_sections	.debug_frame
  15              		.align	1
  16              		.global	udelay
  17              		.syntax unified
  18              		.code	16
  19              		.thumb_func
  20              		.fpu softvfp
  21              		.type	udelay, %function
  22              	udelay:
  23              	.LFB0:
  24              		.file 1 "additional.c"
   1:additional.c  **** /*
   2:additional.c  ****     Plik, zawierający kod źródłowy funkcji
   3:additional.c  ****     pomocniczych.
   4:additional.c  **** */
   5:additional.c  **** 
   6:additional.c  **** #include "additional.h"
   7:additional.c  **** 
   8:additional.c  **** 
   9:additional.c  **** void udelay(tU32 delayInUs ) //bigdemo
  10:additional.c  **** {
  25              		.loc 1 10 0
  26              		.cfi_startproc
  27              		@ Function supports interworking.
  28              		@ args = 0, pretend = 0, frame = 8
  29              		@ frame_needed = 1, uses_anonymous_args = 0
  30 0000 80B5     		push	{r7, lr}
  31              	.LCFI0:
  32              		.cfi_def_cfa_offset 8
  33              		.cfi_offset 7, -8
  34              		.cfi_offset 14, -4
  35 0002 82B0     		sub	sp, sp, #8
  36              	.LCFI1:
  37              		.cfi_def_cfa_offset 16
  38 0004 00AF     		add	r7, sp, #0
  39              	.LCFI2:
  40              		.cfi_def_cfa_register 7
  41 0006 7860     		str	r0, [r7, #4]
  11:additional.c  ****   /*
  12:additional.c  ****    * setup timer #1 for delay
  13:additional.c  ****    */
  14:additional.c  ****   T1TCR = 0x02;          //stop and reset timer
  42              		.loc 1 14 0
  43 0008 0E4B     		ldr	r3, .L3
ARM GAS  C:\Users\embedded\AppData\Local\Temp\ccmKFuWN.s 			page 2


  44 000a 0222     		movs	r2, #2
  45 000c 1A60     		str	r2, [r3]
  15:additional.c  ****   T1PR  = (CORE_FREQ / PBSD / 1000000) -1;          //set prescaler to zero
  46              		.loc 1 15 0
  47 000e 0E4B     		ldr	r3, .L3+4
  48 0010 3922     		movs	r2, #57
  49 0012 1A60     		str	r2, [r3]
  16:additional.c  ****   T1MR0 = delayInUs;
  50              		.loc 1 16 0
  51 0014 0D4B     		ldr	r3, .L3+8
  52 0016 7A68     		ldr	r2, [r7, #4]
  53 0018 1A60     		str	r2, [r3]
  17:additional.c  ****   T1IR  = 0xff;          //reset all interrrupt flags
  54              		.loc 1 17 0
  55 001a 0D4B     		ldr	r3, .L3+12
  56 001c FF22     		movs	r2, #255
  57 001e 1A60     		str	r2, [r3]
  18:additional.c  ****   T1MCR = 0x04;          //stop timer on match
  58              		.loc 1 18 0
  59 0020 0C4B     		ldr	r3, .L3+16
  60 0022 0422     		movs	r2, #4
  61 0024 1A60     		str	r2, [r3]
  19:additional.c  ****   T1TCR = 0x01;          //start timer
  62              		.loc 1 19 0
  63 0026 074B     		ldr	r3, .L3
  64 0028 0122     		movs	r2, #1
  65 002a 1A60     		str	r2, [r3]
  20:additional.c  ****   
  21:additional.c  ****   //wait until delay time has elapsed
  22:additional.c  ****   while (T1TCR & 0x01)
  66              		.loc 1 22 0
  67 002c C046     		nop
  68              	.L2:
  69              		.loc 1 22 0 is_stmt 0 discriminator 1
  70 002e 054B     		ldr	r3, .L3
  71 0030 1B68     		ldr	r3, [r3]
  72 0032 0122     		movs	r2, #1
  73 0034 1340     		ands	r3, r2
  74 0036 FAD1     		bne	.L2
  23:additional.c  ****     ;
  24:additional.c  **** }
  75              		.loc 1 24 0 is_stmt 1
  76 0038 C046     		nop
  77 003a BD46     		mov	sp, r7
  78 003c 02B0     		add	sp, sp, #8
  79              		@ sp needed
  80 003e 80BC     		pop	{r7}
  81 0040 01BC     		pop	{r0}
  82 0042 0047     		bx	r0
  83              	.L4:
  84              		.align	2
  85              	.L3:
  86 0044 048000E0 		.word	-536838140
  87 0048 0C8000E0 		.word	-536838132
  88 004c 188000E0 		.word	-536838120
  89 0050 008000E0 		.word	-536838144
  90 0054 148000E0 		.word	-536838124
ARM GAS  C:\Users\embedded\AppData\Local\Temp\ccmKFuWN.s 			page 3


  91              		.cfi_endproc
  92              	.LFE0:
  93              		.size	udelay, .-udelay
  94              		.align	1
  95              		.global	mdelay
  96              		.syntax unified
  97              		.code	16
  98              		.thumb_func
  99              		.fpu softvfp
 100              		.type	mdelay, %function
 101              	mdelay:
 102              	.LFB1:
  25:additional.c  **** /******************************************************************************
  26:additional.c  **** ** Function name:		mdelay
  27:additional.c  **** **
  28:additional.c  **** ** Descriptions:
  29:additional.c  **** **
  30:additional.c  **** ** parameters:			delay length
  31:additional.c  **** ** Returned value:		None
  32:additional.c  **** **
  33:additional.c  **** ******************************************************************************/
  34:additional.c  **** 
  35:additional.c  **** void mdelay(tU32 delayInMs)
  36:additional.c  **** {
 103              		.loc 1 36 0
 104              		.cfi_startproc
 105              		@ Function supports interworking.
 106              		@ args = 0, pretend = 0, frame = 8
 107              		@ frame_needed = 1, uses_anonymous_args = 0
 108 0058 80B5     		push	{r7, lr}
 109              	.LCFI3:
 110              		.cfi_def_cfa_offset 8
 111              		.cfi_offset 7, -8
 112              		.cfi_offset 14, -4
 113 005a 82B0     		sub	sp, sp, #8
 114              	.LCFI4:
 115              		.cfi_def_cfa_offset 16
 116 005c 00AF     		add	r7, sp, #0
 117              	.LCFI5:
 118              		.cfi_def_cfa_register 7
 119 005e 7860     		str	r0, [r7, #4]
  37:additional.c  **** 
  38:additional.c  ****   T1TCR = 0x02;                            
 120              		.loc 1 38 0
 121 0060 104B     		ldr	r3, .L7
 122 0062 0222     		movs	r2, #2
 123 0064 1A60     		str	r2, [r3]
  39:additional.c  ****   T1PR  = (PERIPHERAL_CLOCK / 1000) - 1;   
 124              		.loc 1 39 0
 125 0066 104B     		ldr	r3, .L7+4
 126 0068 104A     		ldr	r2, .L7+8
 127 006a 1A60     		str	r2, [r3]
  40:additional.c  ****   T1MR0 = delayInMs;
 128              		.loc 1 40 0
 129 006c 104B     		ldr	r3, .L7+12
 130 006e 7A68     		ldr	r2, [r7, #4]
 131 0070 1A60     		str	r2, [r3]
ARM GAS  C:\Users\embedded\AppData\Local\Temp\ccmKFuWN.s 			page 4


  41:additional.c  ****   T1IR  = 0xFF;          
 132              		.loc 1 41 0
 133 0072 104B     		ldr	r3, .L7+16
 134 0074 FF22     		movs	r2, #255
 135 0076 1A60     		str	r2, [r3]
  42:additional.c  ****   T1MCR = 0x04;          
 136              		.loc 1 42 0
 137 0078 0F4B     		ldr	r3, .L7+20
 138 007a 0422     		movs	r2, #4
 139 007c 1A60     		str	r2, [r3]
  43:additional.c  ****   T1TCR = 0x01;          
 140              		.loc 1 43 0
 141 007e 094B     		ldr	r3, .L7
 142 0080 0122     		movs	r2, #1
 143 0082 1A60     		str	r2, [r3]
  44:additional.c  ****   while ((T1TCR & 0x01) == 1)
 144              		.loc 1 44 0
 145 0084 C046     		nop
 146              	.L6:
 147              		.loc 1 44 0 is_stmt 0 discriminator 1
 148 0086 074B     		ldr	r3, .L7
 149 0088 1B68     		ldr	r3, [r3]
 150 008a 0122     		movs	r2, #1
 151 008c 1340     		ands	r3, r2
 152 008e 012B     		cmp	r3, #1
 153 0090 F9D0     		beq	.L6
  45:additional.c  ****   {
  46:additional.c  ****     ;
  47:additional.c  ****   }
  48:additional.c  ****   T1TCR = 0x00;         
 154              		.loc 1 48 0 is_stmt 1
 155 0092 044B     		ldr	r3, .L7
 156 0094 0022     		movs	r2, #0
 157 0096 1A60     		str	r2, [r3]
  49:additional.c  **** }
 158              		.loc 1 49 0
 159 0098 C046     		nop
 160 009a BD46     		mov	sp, r7
 161 009c 02B0     		add	sp, sp, #8
 162              		@ sp needed
 163 009e 80BC     		pop	{r7}
 164 00a0 01BC     		pop	{r0}
 165 00a2 0047     		bx	r0
 166              	.L8:
 167              		.align	2
 168              	.L7:
 169 00a4 048000E0 		.word	-536838140
 170 00a8 0C8000E0 		.word	-536838132
 171 00ac 65E60000 		.word	58981
 172 00b0 188000E0 		.word	-536838120
 173 00b4 008000E0 		.word	-536838144
 174 00b8 148000E0 		.word	-536838124
 175              		.cfi_endproc
 176              	.LFE1:
 177              		.size	mdelay, .-mdelay
 178              		.align	1
 179              		.global	sdelay
ARM GAS  C:\Users\embedded\AppData\Local\Temp\ccmKFuWN.s 			page 5


 180              		.syntax unified
 181              		.code	16
 182              		.thumb_func
 183              		.fpu softvfp
 184              		.type	sdelay, %function
 185              	sdelay:
 186              	.LFB2:
  50:additional.c  **** 
  51:additional.c  **** void sdelay(unsigned int delayInS)
  52:additional.c  **** {
 187              		.loc 1 52 0
 188              		.cfi_startproc
 189              		@ Function supports interworking.
 190              		@ args = 0, pretend = 0, frame = 8
 191              		@ frame_needed = 1, uses_anonymous_args = 0
 192 00bc 80B5     		push	{r7, lr}
 193              	.LCFI6:
 194              		.cfi_def_cfa_offset 8
 195              		.cfi_offset 7, -8
 196              		.cfi_offset 14, -4
 197 00be 82B0     		sub	sp, sp, #8
 198              	.LCFI7:
 199              		.cfi_def_cfa_offset 16
 200 00c0 00AF     		add	r7, sp, #0
 201              	.LCFI8:
 202              		.cfi_def_cfa_register 7
 203 00c2 7860     		str	r0, [r7, #4]
  53:additional.c  ****   /*
  54:additional.c  ****    * setup timer #1 for delay
  55:additional.c  ****    */
  56:additional.c  ****   T1TCR = 0x02; // stop and reset timer
 204              		.loc 1 56 0
 205 00c4 124B     		ldr	r3, .L11
 206 00c6 0222     		movs	r2, #2
 207 00c8 1A60     		str	r2, [r3]
  57:additional.c  ****   T1PR = 0x00;  // set prescaler to zero
 208              		.loc 1 57 0
 209 00ca 124B     		ldr	r3, .L11+4
 210 00cc 0022     		movs	r2, #0
 211 00ce 1A60     		str	r2, [r3]
  58:additional.c  ****   T1MR0 = (((long)delayInS) * (long)CORE_FREQ);
 212              		.loc 1 58 0
 213 00d0 7A68     		ldr	r2, [r7, #4]
 214 00d2 1300     		movs	r3, r2
 215 00d4 1B01     		lsls	r3, r3, #4
 216 00d6 9B1A     		subs	r3, r3, r2
 217 00d8 1A01     		lsls	r2, r3, #4
 218 00da D21A     		subs	r2, r2, r3
 219 00dc 9304     		lsls	r3, r2, #18
 220 00de 1A00     		movs	r2, r3
 221 00e0 0D4B     		ldr	r3, .L11+8
 222 00e2 1A60     		str	r2, [r3]
  59:additional.c  ****   T1IR = 0xff;  // reset all interrrupt flags
 223              		.loc 1 59 0
 224 00e4 0D4B     		ldr	r3, .L11+12
 225 00e6 FF22     		movs	r2, #255
 226 00e8 1A60     		str	r2, [r3]
ARM GAS  C:\Users\embedded\AppData\Local\Temp\ccmKFuWN.s 			page 6


  60:additional.c  ****   T1MCR = 0x04; // stop timer on match
 227              		.loc 1 60 0
 228 00ea 0D4B     		ldr	r3, .L11+16
 229 00ec 0422     		movs	r2, #4
 230 00ee 1A60     		str	r2, [r3]
  61:additional.c  ****   T1TCR = 0x01; // start timer
 231              		.loc 1 61 0
 232 00f0 074B     		ldr	r3, .L11
 233 00f2 0122     		movs	r2, #1
 234 00f4 1A60     		str	r2, [r3]
  62:additional.c  **** 
  63:additional.c  ****   // wait until delay time has elapsed
  64:additional.c  ****   while ((T1TCR & 0x01) != 0)
 235              		.loc 1 64 0
 236 00f6 C046     		nop
 237              	.L10:
 238              		.loc 1 64 0 is_stmt 0 discriminator 1
 239 00f8 054B     		ldr	r3, .L11
 240 00fa 1B68     		ldr	r3, [r3]
 241 00fc 0122     		movs	r2, #1
 242 00fe 1340     		ands	r3, r2
 243 0100 FAD1     		bne	.L10
  65:additional.c  ****   {
  66:additional.c  ****     ;
  67:additional.c  ****   }
  68:additional.c  **** }
 244              		.loc 1 68 0 is_stmt 1
 245 0102 C046     		nop
 246 0104 BD46     		mov	sp, r7
 247 0106 02B0     		add	sp, sp, #8
 248              		@ sp needed
 249 0108 80BC     		pop	{r7}
 250 010a 01BC     		pop	{r0}
 251 010c 0047     		bx	r0
 252              	.L12:
 253 010e C046     		.align	2
 254              	.L11:
 255 0110 048000E0 		.word	-536838140
 256 0114 0C8000E0 		.word	-536838132
 257 0118 188000E0 		.word	-536838120
 258 011c 008000E0 		.word	-536838144
 259 0120 148000E0 		.word	-536838124
 260              		.cfi_endproc
 261              	.LFE2:
 262              		.size	sdelay, .-sdelay
 263              	.Letext0:
 264              		.file 2 "general.h"