ARM GAS  C:\Users\embedded\AppData\Local\Temp\cci1TaXj.s 			page 1


   1              		.cpu arm7tdmi
   2              		.eabi_attribute 20, 1
   3              		.eabi_attribute 21, 1
   4              		.eabi_attribute 23, 3
   5              		.eabi_attribute 24, 1
   6              		.eabi_attribute 25, 1
   7              		.eabi_attribute 26, 1
   8              		.eabi_attribute 30, 6
   9              		.eabi_attribute 34, 0
  10              		.eabi_attribute 18, 4
  11              		.file	"htu21df.c"
  12              		.text
  13              	.Ltext0:
  14              		.cfi_sections	.debug_frame
  15              		.align	1
  16              		.global	calculateHumidity
  17              		.syntax unified
  18              		.code	16
  19              		.thumb_func
  20              		.fpu softvfp
  21              		.type	calculateHumidity, %function
  22              	calculateHumidity:
  23              	.LFB0:
  24              		.file 1 "htu21df.c"
   1:htu21df.c     **** /*
   2:htu21df.c     ****     Plik z kodem źródłowym funkcji do obsługi
   3:htu21df.c     ****     czujnika wilgotności HTU21D(F)
   4:htu21df.c     **** */
   5:htu21df.c     **** 
   6:htu21df.c     **** #include "htu21df.h"
   7:htu21df.c     **** 
   8:htu21df.c     **** tS8 calculateHumidity(tU8 *byteArray)
   9:htu21df.c     **** {
  25              		.loc 1 9 0
  26              		.cfi_startproc
  27              		@ Function supports interworking.
  28              		@ args = 0, pretend = 0, frame = 16
  29              		@ frame_needed = 1, uses_anonymous_args = 0
  30 0000 80B5     		push	{r7, lr}
  31              	.LCFI0:
  32              		.cfi_def_cfa_offset 8
  33              		.cfi_offset 7, -8
  34              		.cfi_offset 14, -4
  35 0002 84B0     		sub	sp, sp, #16
  36              	.LCFI1:
  37              		.cfi_def_cfa_offset 24
  38 0004 00AF     		add	r7, sp, #0
  39              	.LCFI2:
  40              		.cfi_def_cfa_register 7
  41 0006 7860     		str	r0, [r7, #4]
  10:htu21df.c     ****     /*
  11:htu21df.c     ****         Konwersja tablicy 2 bajtów na jedną zmienną 16 bitową.
  12:htu21df.c     ****         Wyłączenie bitów stanu - dla wilgotności są to ostatnie 4 bity.
  13:htu21df.c     ****     */
  14:htu21df.c     **** 
  15:htu21df.c     **** 	tU8 mask = ~(0x0F);
  42              		.loc 1 15 0
ARM GAS  C:\Users\embedded\AppData\Local\Temp\cci1TaXj.s 			page 2


  43 0008 0F21     		movs	r1, #15
  44 000a 7B18     		adds	r3, r7, r1
  45 000c F022     		movs	r2, #240
  46 000e 1A70     		strb	r2, [r3]
  16:htu21df.c     **** 	byteArray[1] = (byteArray[1] & mask);
  47              		.loc 1 16 0
  48 0010 7B68     		ldr	r3, [r7, #4]
  49 0012 0133     		adds	r3, r3, #1
  50 0014 1A78     		ldrb	r2, [r3]
  51 0016 7B68     		ldr	r3, [r7, #4]
  52 0018 0133     		adds	r3, r3, #1
  53 001a 7918     		adds	r1, r7, r1
  54 001c 0978     		ldrb	r1, [r1]
  55 001e 0A40     		ands	r2, r1
  56 0020 1206     		lsls	r2, r2, #24
  57 0022 120E     		lsrs	r2, r2, #24
  58 0024 1A70     		strb	r2, [r3]
  17:htu21df.c     ****     tU16 readData = ((byteArray[0] << 8) | byteArray[1]);
  59              		.loc 1 17 0
  60 0026 7B68     		ldr	r3, [r7, #4]
  61 0028 1B78     		ldrb	r3, [r3]
  62 002a 1B02     		lsls	r3, r3, #8
  63 002c 1A04     		lsls	r2, r3, #16
  64 002e 1214     		asrs	r2, r2, #16
  65 0030 7B68     		ldr	r3, [r7, #4]
  66 0032 0133     		adds	r3, r3, #1
  67 0034 1B78     		ldrb	r3, [r3]
  68 0036 1B04     		lsls	r3, r3, #16
  69 0038 1B14     		asrs	r3, r3, #16
  70 003a 1343     		orrs	r3, r2
  71 003c 1B04     		lsls	r3, r3, #16
  72 003e 1B14     		asrs	r3, r3, #16
  73 0040 0C21     		movs	r1, #12
  74 0042 7A18     		adds	r2, r7, r1
  75 0044 1380     		strh	r3, [r2]
  18:htu21df.c     **** 
  19:htu21df.c     ****     return ((((tU32)125 * (tU32)readData) / ((tU32)1 << 16)) - (tU32)6);
  76              		.loc 1 19 0
  77 0046 7B18     		adds	r3, r7, r1
  78 0048 1A88     		ldrh	r2, [r3]
  79 004a 1300     		movs	r3, r2
  80 004c 5B01     		lsls	r3, r3, #5
  81 004e 9B1A     		subs	r3, r3, r2
  82 0050 9B00     		lsls	r3, r3, #2
  83 0052 9B18     		adds	r3, r3, r2
  84 0054 1B0C     		lsrs	r3, r3, #16
  85 0056 1B06     		lsls	r3, r3, #24
  86 0058 1B0E     		lsrs	r3, r3, #24
  87 005a 063B     		subs	r3, r3, #6
  88 005c 1B06     		lsls	r3, r3, #24
  89 005e 1B0E     		lsrs	r3, r3, #24
  90 0060 1B06     		lsls	r3, r3, #24
  91 0062 1B16     		asrs	r3, r3, #24
  20:htu21df.c     **** }
  92              		.loc 1 20 0
  93 0064 1800     		movs	r0, r3
  94 0066 BD46     		mov	sp, r7
ARM GAS  C:\Users\embedded\AppData\Local\Temp\cci1TaXj.s 			page 3


  95 0068 04B0     		add	sp, sp, #16
  96              		@ sp needed
  97 006a 80BC     		pop	{r7}
  98 006c 02BC     		pop	{r1}
  99 006e 0847     		bx	r1
 100              		.cfi_endproc
 101              	.LFE0:
 102              		.size	calculateHumidity, .-calculateHumidity
 103              		.align	1
 104              		.global	measureHumidity
 105              		.syntax unified
 106              		.code	16
 107              		.thumb_func
 108              		.fpu softvfp
 109              		.type	measureHumidity, %function
 110              	measureHumidity:
 111              	.LFB1:
  21:htu21df.c     **** 
  22:htu21df.c     **** tS8 measureHumidity(void)
  23:htu21df.c     **** {
 112              		.loc 1 23 0
 113              		.cfi_startproc
 114              		@ Function supports interworking.
 115              		@ args = 0, pretend = 0, frame = 16
 116              		@ frame_needed = 1, uses_anonymous_args = 0
 117 0070 F0B5     		push	{r4, r5, r6, r7, lr}
 118              	.LCFI3:
 119              		.cfi_def_cfa_offset 20
 120              		.cfi_offset 4, -20
 121              		.cfi_offset 5, -16
 122              		.cfi_offset 6, -12
 123              		.cfi_offset 7, -8
 124              		.cfi_offset 14, -4
 125 0072 85B0     		sub	sp, sp, #20
 126              	.LCFI4:
 127              		.cfi_def_cfa_offset 40
 128 0074 00AF     		add	r7, sp, #0
 129              	.LCFI5:
 130              		.cfi_def_cfa_register 7
  24:htu21df.c     ****     // Adres czujnika wilgotności HTU21DF
  25:htu21df.c     ****     tU8 htu21Address = 0x40;    // 0x40 = 0b100000
 131              		.loc 1 25 0
 132 0076 0E20     		movs	r0, #14
 133 0078 3B18     		adds	r3, r7, r0
 134 007a 4022     		movs	r2, #64
 135 007c 1A70     		strb	r2, [r3]
  26:htu21df.c     ****     // Adres wykorzystywany do zapisu do czujnika wilgotności HTU21DF
  27:htu21df.c     ****     tU8 htu21ReadAddress = ((tU8)(htu21Address << 1) | (tU8)1);
 136              		.loc 1 27 0
 137 007e 3B18     		adds	r3, r7, r0
 138 0080 1B78     		ldrb	r3, [r3]
 139 0082 DB18     		adds	r3, r3, r3
 140 0084 1B06     		lsls	r3, r3, #24
 141 0086 1A0E     		lsrs	r2, r3, #24
 142 0088 0D23     		movs	r3, #13
 143 008a FB18     		adds	r3, r7, r3
 144 008c 0121     		movs	r1, #1
ARM GAS  C:\Users\embedded\AppData\Local\Temp\cci1TaXj.s 			page 4


 145 008e 0A43     		orrs	r2, r1
 146 0090 1A70     		strb	r2, [r3]
  28:htu21df.c     ****     // Adres wykorzystywany do odczytu z czujnika wilgotności HTU21DF
  29:htu21df.c     ****     tU8 htu21WriteAddress = ((tU8)(htu21Address << 1));
 147              		.loc 1 29 0
 148 0092 0C25     		movs	r5, #12
 149 0094 7A19     		adds	r2, r7, r5
 150 0096 3B18     		adds	r3, r7, r0
 151 0098 1B78     		ldrb	r3, [r3]
 152 009a DB18     		adds	r3, r3, r3
 153 009c 1370     		strb	r3, [r2]
  30:htu21df.c     ****     // Tablica tU8 wykorzystywana do przechowania wartości wilgotności sczytanej z czujnika
  31:htu21df.c     ****     tU8 readHumidity[2] = {0};
 154              		.loc 1 31 0
 155 009e 0823     		movs	r3, #8
 156 00a0 FB18     		adds	r3, r7, r3
 157 00a2 0022     		movs	r2, #0
 158 00a4 1A80     		strh	r2, [r3]
  32:htu21df.c     ****     tS8 retCode;
  33:htu21df.c     ****     /*
  34:htu21df.c     ****         Komenda odczytu wilgotności w trybie "No Hold Master".
  35:htu21df.c     ****     */
  36:htu21df.c     ****     tU8 commandNoHoldMaster[1] = {0};
 159              		.loc 1 36 0
 160 00a6 3B1D     		adds	r3, r7, #4
 161 00a8 0022     		movs	r2, #0
 162 00aa 1A70     		strb	r2, [r3]
  37:htu21df.c     ****     commandNoHoldMaster[0] = 0xF5;
 163              		.loc 1 37 0
 164 00ac 3B1D     		adds	r3, r7, #4
 165 00ae F522     		movs	r2, #245
 166 00b0 1A70     		strb	r2, [r3]
  38:htu21df.c     ****     
  39:htu21df.c     ****     retCode = i2cWrite(htu21WriteAddress, commandNoHoldMaster, 1);
 167              		.loc 1 39 0
 168 00b2 0B26     		movs	r6, #11
 169 00b4 BC19     		adds	r4, r7, r6
 170 00b6 391D     		adds	r1, r7, #4
 171 00b8 7B19     		adds	r3, r7, r5
 172 00ba 1B78     		ldrb	r3, [r3]
 173 00bc 0122     		movs	r2, #1
 174 00be 1800     		movs	r0, r3
 175 00c0 FFF7FEFF 		bl	i2cWrite
 176 00c4 0300     		movs	r3, r0
 177 00c6 2370     		strb	r3, [r4]
  40:htu21df.c     ****     mdelay(16);
 178              		.loc 1 40 0
 179 00c8 1020     		movs	r0, #16
 180 00ca FFF7FEFF 		bl	mdelay
  41:htu21df.c     ****     tS8 actualHumidity = 0;
 181              		.loc 1 41 0
 182 00ce 0F23     		movs	r3, #15
 183 00d0 FB18     		adds	r3, r7, r3
 184 00d2 0022     		movs	r2, #0
 185 00d4 1A70     		strb	r2, [r3]
  42:htu21df.c     ****     if (retCode != I2C_CODE_ERROR) {
 186              		.loc 1 42 0
ARM GAS  C:\Users\embedded\AppData\Local\Temp\cci1TaXj.s 			page 5


 187 00d6 BB19     		adds	r3, r7, r6
 188 00d8 1B78     		ldrb	r3, [r3]
 189 00da 1B06     		lsls	r3, r3, #24
 190 00dc 1B16     		asrs	r3, r3, #24
 191 00de 0133     		adds	r3, r3, #1
 192 00e0 1BD0     		beq	.L4
  43:htu21df.c     ****         retCode = i2cRead(htu21ReadAddress, readHumidity, 2);
 193              		.loc 1 43 0
 194 00e2 0B25     		movs	r5, #11
 195 00e4 7C19     		adds	r4, r7, r5
 196 00e6 0823     		movs	r3, #8
 197 00e8 F918     		adds	r1, r7, r3
 198 00ea 0D23     		movs	r3, #13
 199 00ec FB18     		adds	r3, r7, r3
 200 00ee 1B78     		ldrb	r3, [r3]
 201 00f0 0222     		movs	r2, #2
 202 00f2 1800     		movs	r0, r3
 203 00f4 FFF7FEFF 		bl	i2cRead
 204 00f8 0300     		movs	r3, r0
 205 00fa 2370     		strb	r3, [r4]
  44:htu21df.c     ****         if (retCode != I2C_CODE_ERROR) {
 206              		.loc 1 44 0
 207 00fc 7B19     		adds	r3, r7, r5
 208 00fe 1B78     		ldrb	r3, [r3]
 209 0100 1B06     		lsls	r3, r3, #24
 210 0102 1B16     		asrs	r3, r3, #24
 211 0104 0133     		adds	r3, r3, #1
 212 0106 08D0     		beq	.L4
  45:htu21df.c     ****             actualHumidity = calculateHumidity(readHumidity);
 213              		.loc 1 45 0
 214 0108 0F23     		movs	r3, #15
 215 010a FC18     		adds	r4, r7, r3
 216 010c 0823     		movs	r3, #8
 217 010e FB18     		adds	r3, r7, r3
 218 0110 1800     		movs	r0, r3
 219 0112 FFF7FEFF 		bl	calculateHumidity
 220 0116 0300     		movs	r3, r0
 221 0118 2370     		strb	r3, [r4]
 222              	.L4:
  46:htu21df.c     ****         }
  47:htu21df.c     ****     }
  48:htu21df.c     ****     return actualHumidity;
 223              		.loc 1 48 0
 224 011a 0F23     		movs	r3, #15
 225 011c FB18     		adds	r3, r7, r3
 226 011e 1B78     		ldrb	r3, [r3]
 227 0120 1B06     		lsls	r3, r3, #24
 228 0122 1B16     		asrs	r3, r3, #24
  49:htu21df.c     **** }
 229              		.loc 1 49 0
 230 0124 1800     		movs	r0, r3
 231 0126 BD46     		mov	sp, r7
 232 0128 05B0     		add	sp, sp, #20
 233              		@ sp needed
 234 012a F0BC     		pop	{r4, r5, r6, r7}
 235 012c 02BC     		pop	{r1}
 236 012e 0847     		bx	r1
ARM GAS  C:\Users\embedded\AppData\Local\Temp\cci1TaXj.s 			page 6


 237              		.cfi_endproc
 238              	.LFE1:
 239              		.size	measureHumidity, .-measureHumidity
 240              	.Letext0:
 241              		.file 2 "general.h"