ARM GAS  /cygdrive/c/Users/Anders/AppData/Local/Temp/ccAE1FMP.s 			page 1


   1              		.code	16
   2              		.file	"i2c.c"
   3              		.section	.debug_abbrev,"",%progbits
   4              	.Ldebug_abbrev0:
   5              		.section	.debug_info,"",%progbits
   6              	.Ldebug_info0:
   7              		.section	.debug_line,"",%progbits
   8              	.Ldebug_line0:
   9 0000 09010000 		.text
   9      02003300 
   9      00000201 
   9      FB0E0D00 
   9      01010101 
  10              	.Ltext0:
  11              		.align	2
  12              		.global	i2cCheckStatus
  13              		.code 16
  14              		.thumb_func
  15              		.type	i2cCheckStatus, %function
  16              	i2cCheckStatus:
  17              	.LFB2:
  18              		.file 1 "i2c.c"
   1:i2c.c         **** 
   2:i2c.c         **** 
   3:i2c.c         **** 
   4:i2c.c         **** 
   5:i2c.c         **** /******************************************************************************
   6:i2c.c         ****  * Includes
   7:i2c.c         ****  *****************************************************************************/
   8:i2c.c         **** 
   9:i2c.c         **** #include <general.h>
  10:i2c.c         **** #include "i2c.h"
  11:i2c.c         **** #include <lpc2xxx.h>
  12:i2c.c         **** 
  13:i2c.c         **** /******************************************************************************
  14:i2c.c         ****  * Defines and typedefs
  15:i2c.c         ****  *****************************************************************************/
  16:i2c.c         **** 
  17:i2c.c         **** #define I2C_CONSET (*((volatile unsigned char *) 0xE001C000))
  18:i2c.c         **** #define I2C_STAT   (*((volatile unsigned char *) 0xE001C004))
  19:i2c.c         **** #define I2C_DATA   (*((volatile unsigned char *) 0xE001C008))
  20:i2c.c         **** #define I2C_ADDR   (*((volatile unsigned char *) 0xE001C00C))
  21:i2c.c         **** #define I2C_SCLH   (*((volatile unsigned short*) 0xE001C010))
  22:i2c.c         **** #define I2C_SCLL   (*((volatile unsigned short*) 0xE001C014))
  23:i2c.c         **** #define I2C_CONCLR (*((volatile unsigned char *) 0xE001C018))
  24:i2c.c         **** 
  25:i2c.c         **** 
  26:i2c.c         **** #define I2C_REG_CONSET      0x00000040 /* Control Set Register         */
  27:i2c.c         **** #define I2C_REG_CONSET_MASK 0x0000007C /* Used bits                    */
  28:i2c.c         **** #define I2C_REG_DATA        0x00000000 /* Data register                */
  29:i2c.c         **** #define I2C_REG_DATA_MASK   0x000000FF /* Used bits                    */
  30:i2c.c         **** #define I2C_REG_ADDR        0x00000000 /* Slave address register       */
  31:i2c.c         **** #define I2C_REG_ADDR_MASK   0x000000FF /* Used bits                    */
  32:i2c.c         **** #define I2C_REG_SCLH        0x00000100 /* SCL Duty Cycle high register */
  33:i2c.c         **** #define I2C_REG_SCLH_MASK   0x0000FFFF /* Used bits                    */
  34:i2c.c         **** #define I2C_REG_SCLL        0x00000100 /* SCL Duty Cycle low register  */
  35:i2c.c         **** #define I2C_REG_SCLL_MASK   0x0000FFFF /* Used bits                    */
ARM GAS  /cygdrive/c/Users/Anders/AppData/Local/Temp/ccAE1FMP.s 			page 2


  36:i2c.c         **** 
  37:i2c.c         **** /******************************************************************************
  38:i2c.c         ****  *
  39:i2c.c         ****  * Description:
  40:i2c.c         ****  *    Checks the I2C status.
  41:i2c.c         ****  *
  42:i2c.c         ****  *
  43:i2c.c         ****  *  Returns:
  44:i2c.c         ****  *      00h Bus error
  45:i2c.c         ****  *      08h START condition transmitted
  46:i2c.c         ****  *      10h Repeated START condition transmitted
  47:i2c.c         ****  *      18h SLA + W transmitted, ACK received
  48:i2c.c         ****  *      20h SLA + W transmitted, ACK not received
  49:i2c.c         ****  *      28h Data byte transmitted, ACK received
  50:i2c.c         ****  *      30h Data byte transmitted, ACK not received
  51:i2c.c         ****  *      38h Arbitration lost
  52:i2c.c         ****  *      40h SLA + R transmitted, ACK received
  53:i2c.c         ****  *      48h SLA + R transmitted, ACK not received
  54:i2c.c         ****  *      50h Data byte received in master mode, ACK transmitted
  55:i2c.c         ****  *      58h Data byte received in master mode, ACK not transmitted
  56:i2c.c         ****  *      60h SLA + W received, ACK transmitted
  57:i2c.c         ****  *      68h Arbitration lost, SLA + W received, ACK transmitted
  58:i2c.c         ****  *      70h General call address received, ACK transmitted
  59:i2c.c         ****  *      78h Arbitration lost, general call addr received, ACK transmitted
  60:i2c.c         ****  *      80h Data byte received with own SLA, ACK transmitted
  61:i2c.c         ****  *      88h Data byte received with own SLA, ACK not transmitted
  62:i2c.c         ****  *      90h Data byte received after general call, ACK transmitted
  63:i2c.c         ****  *      98h Data byte received after general call, ACK not transmitted
  64:i2c.c         ****  *      A0h STOP or repeated START condition received in slave mode
  65:i2c.c         ****  *      A8h SLA + R received, ACK transmitted
  66:i2c.c         ****  *      B0h Arbitration lost, SLA + R received, ACK transmitted
  67:i2c.c         ****  *      B8h Data byte transmitted in slave mode, ACK received
  68:i2c.c         ****  *      C0h Data byte transmitted in slave mode, ACK not received
  69:i2c.c         ****  *      C8h Last byte transmitted in slave mode, ACK received
  70:i2c.c         ****  *      F8h No relevant status information, SI=0
  71:i2c.c         ****  *      FFh Channel error
  72:i2c.c         ****  *
  73:i2c.c         ****  *****************************************************************************/
  74:i2c.c         **** tU8
  75:i2c.c         **** i2cCheckStatus(void)
  76:i2c.c         **** {
  19              		.loc 1 76 0
  20              		@ lr needed for prologue
  21              	.L2:
  77:i2c.c         ****   tU8 status = 0;
  78:i2c.c         **** 
  79:i2c.c         ****   /* wait for I2C Status changed */
  80:i2c.c         ****   while( (I2C_CONSET & 0x08)  == 0)   /* while SI == 0 */
  22              		.loc 1 80 0
  23 0000 034B     		ldr	r3, .L7
  24 0002 1B78     		ldrb	r3, [r3]
  25 0004 1A07     		lsl	r2, r3, #28
  26 0006 FBD5     		bpl	.L2
  81:i2c.c         ****   {
  82:i2c.c         ****     ;
  83:i2c.c         ****   }
  84:i2c.c         **** 
ARM GAS  /cygdrive/c/Users/Anders/AppData/Local/Temp/ccAE1FMP.s 			page 3


  85:i2c.c         ****   /* Read I2C State */
  86:i2c.c         ****   status = I2C_STAT;
  27              		.loc 1 86 0
  28 0008 024B     		ldr	r3, .L7+4
  29 000a 1878     		ldrb	r0, [r3]
  87:i2c.c         **** 
  88:i2c.c         ****   /* NOTE! SI flag is not cleared here */
  89:i2c.c         **** 
  90:i2c.c         ****   return status;
  91:i2c.c         **** }
  30              		.loc 1 91 0
  31              		@ sp needed for prologue
  32 000c 7047     		bx	lr
  33              	.L8:
  34 000e C046     		.align	2
  35              	.L7:
  36 0010 00C001E0 		.word	-536756224
  37 0014 04C001E0 		.word	-536756220
  38              	.LFE2:
  39              		.size	i2cCheckStatus, .-i2cCheckStatus
  40              		.align	2
  41              		.global	i2cInit
  42              		.code 16
  43              		.thumb_func
  44              		.type	i2cInit, %function
  45              	i2cInit:
  46              	.LFB3:
  92:i2c.c         **** 
  93:i2c.c         **** /******************************************************************************
  94:i2c.c         ****  *
  95:i2c.c         ****  * Description:
  96:i2c.c         ****  *    Reset the I2C module.
  97:i2c.c         ****  *
  98:i2c.c         ****  *****************************************************************************/
  99:i2c.c         **** void
 100:i2c.c         **** i2cInit(void)
 101:i2c.c         **** {
  47              		.loc 1 101 0
 102:i2c.c         ****   PINSEL0  |= 0x50;
  48              		.loc 1 102 0
  49 0018 0E49     		ldr	r1, .L11
  50 001a 0B68     		ldr	r3, [r1]
  51 001c 5022     		mov	r2, #80
  52 001e 1343     		orr	r3, r3, r2
  53 0020 0B60     		str	r3, [r1]
 103:i2c.c         **** 
 104:i2c.c         ****   /* clear flags */
 105:i2c.c         ****   I2C_CONCLR = 0x6c;    
  54              		.loc 1 105 0
  55 0022 0D4B     		ldr	r3, .L11+4
  56 0024 6C22     		mov	r2, #108
  57 0026 1A70     		strb	r2, [r3]
 106:i2c.c         **** 
 107:i2c.c         ****   /* reset registers */
 108:i2c.c         ****   I2C_SCLL   = ( I2C_SCLL   & ~I2C_REG_SCLL_MASK )   | I2C_REG_SCLL;
  58              		.loc 1 108 0
  59 0028 0C4A     		ldr	r2, .L11+8
ARM GAS  /cygdrive/c/Users/Anders/AppData/Local/Temp/ccAE1FMP.s 			page 4


  60 002a 1388     		ldrh	r3, [r2]
  61 002c 8023     		mov	r3, #128
  62 002e 5B00     		lsl	r3, r3, #1
  63 0030 1380     		strh	r3, [r2]
 109:i2c.c         ****   I2C_SCLH   = ( I2C_SCLH   & ~I2C_REG_SCLH_MASK )   | I2C_REG_SCLH;
  64              		.loc 1 109 0
  65 0032 043A     		sub	r2, r2, #4
  66 0034 1188     		ldrh	r1, [r2]
  67 0036 1380     		strh	r3, [r2]
 110:i2c.c         ****   I2C_ADDR   = ( I2C_ADDR   & ~I2C_REG_ADDR_MASK )   | I2C_REG_ADDR;
  68              		.loc 1 110 0
  69 0038 043A     		sub	r2, r2, #4
  70 003a 1378     		ldrb	r3, [r2]
  71 003c 0023     		mov	r3, #0
  72 003e 1370     		strb	r3, [r2]
 111:i2c.c         ****   I2C_CONSET = ( I2C_CONSET & ~I2C_REG_CONSET_MASK ) | I2C_REG_CONSET;
  73              		.loc 1 111 0
  74 0040 0749     		ldr	r1, .L11+12
  75 0042 0B78     		ldrb	r3, [r1]
  76 0044 7C22     		mov	r2, #124
  77 0046 9343     		bic	r3, r3, r2
  78 0048 4022     		mov	r2, #64
  79 004a 1343     		orr	r3, r3, r2
  80 004c 1B06     		lsl	r3, r3, #24
  81 004e 1B0E     		lsr	r3, r3, #24
  82              		.loc 1 101 0
  83              		@ lr needed for prologue
  84              		.loc 1 111 0
  85 0050 0B70     		strb	r3, [r1]
 112:i2c.c         **** }
  86              		.loc 1 112 0
  87              		@ sp needed for prologue
  88 0052 7047     		bx	lr
  89              	.L12:
  90              		.align	2
  91              	.L11:
  92 0054 00C002E0 		.word	-536690688
  93 0058 18C001E0 		.word	-536756200
  94 005c 14C001E0 		.word	-536756204
  95 0060 00C001E0 		.word	-536756224
  96              	.LFE3:
  97              		.size	i2cInit, .-i2cInit
  98              		.align	2
  99              		.global	i2cStart
 100              		.code 16
 101              		.thumb_func
 102              		.type	i2cStart, %function
 103              	i2cStart:
 104              	.LFB4:
 113:i2c.c         **** 
 114:i2c.c         **** /******************************************************************************
 115:i2c.c         ****  *
 116:i2c.c         ****  * Description:
 117:i2c.c         ****  *    Generates a start condition on I2C when bus is free.
 118:i2c.c         ****  *    Master mode will also automatically be entered.
 119:i2c.c         ****  *
 120:i2c.c         ****  *    Note: After a stop condition, you may need a bus free time before you 
ARM GAS  /cygdrive/c/Users/Anders/AppData/Local/Temp/ccAE1FMP.s 			page 5


 121:i2c.c         ****  *          can generate a new start condition.
 122:i2c.c         ****  *
 123:i2c.c         ****  * Returns:
 124:i2c.c         ****  *    I2C_CODE_OK or I2C status code
 125:i2c.c         ****  *
 126:i2c.c         ****  *****************************************************************************/
 127:i2c.c         **** tS8
 128:i2c.c         **** i2cStart(void)
 129:i2c.c         **** {
 105              		.loc 1 129 0
 130:i2c.c         ****   tU8   status  = 0;
 131:i2c.c         ****   tS8   retCode = 0;
 132:i2c.c         **** 
 133:i2c.c         ****   /* issue a start condition */
 134:i2c.c         ****   I2C_CONSET |= 0x20; /* STA = 1, set start flag */
 106              		.loc 1 134 0
 107 0064 0F4B     		ldr	r3, .L27
 108 0066 1A78     		ldrb	r2, [r3]
 109 0068 2021     		mov	r1, #32
 110 006a 0A43     		orr	r2, r2, r1
 111 006c 1206     		lsl	r2, r2, #24
 112              		.loc 1 129 0
 113              		@ lr needed for prologue
 114              		.loc 1 134 0
 115 006e 120E     		lsr	r2, r2, #24
 116              	.L26:
 117 0070 1A70     		strb	r2, [r3]
 118              	.L25:
 119              	.LBB6:
 120              	.LBB7:
 121              		.loc 1 80 0
 122 0072 0C4B     		ldr	r3, .L27
 123 0074 1B78     		ldrb	r3, [r3]
 124 0076 0822     		mov	r2, #8
 125 0078 1342     		tst	r3, r2
 126 007a FAD0     		beq	.L25
 127              		.loc 1 86 0
 128 007c 0A4B     		ldr	r3, .L27+4
 129 007e 1B78     		ldrb	r3, [r3]
 130              	.LBE7:
 131              	.LBE6:
 135:i2c.c         **** 
 136:i2c.c         ****   /* wait until START transmitted */
 137:i2c.c         ****   while(1)
 138:i2c.c         ****   {
 139:i2c.c         ****     status = i2cCheckStatus();
 140:i2c.c         **** 
 141:i2c.c         ****     /* start transmitted */
 142:i2c.c         ****     if((status == 0x08) || (status == 0x10))
 132              		.loc 1 142 0
 133 0080 082B     		cmp	r3, #8
 134 0082 07D0     		beq	.L16
 135              	.LVL0:
 136 0084 102B     		cmp	r3, #16
 137 0086 05D0     		beq	.L16
 143:i2c.c         ****     {
 144:i2c.c         ****       retCode = I2C_CODE_OK;
ARM GAS  /cygdrive/c/Users/Anders/AppData/Local/Temp/ccAE1FMP.s 			page 6


 145:i2c.c         ****       break;
 146:i2c.c         ****     }
 147:i2c.c         **** 
 148:i2c.c         ****     /* error */
 149:i2c.c         ****     else if(status != 0xf8)
 138              		.loc 1 149 0
 139 0088 F82B     		cmp	r3, #248
 140 008a 01D0     		beq	.L19
 150:i2c.c         ****     {
 151:i2c.c         ****       retCode = (tS8) status;
 141              		.loc 1 151 0
 142 008c 181C     		mov	r0, r3
 143              	.LVL1:
 144 008e 02E0     		b	.L21
 145              	.LVL2:
 146              	.L19:
 152:i2c.c         ****       break;
 153:i2c.c         ****     }
 154:i2c.c         **** 
 155:i2c.c         ****     else
 156:i2c.c         ****     {
 157:i2c.c         ****       /* clear SI flag */
 158:i2c.c         ****       I2C_CONCLR = 0x08;
 147              		.loc 1 158 0
 148 0090 064B     		ldr	r3, .L27+8
 149              	.LVL3:
 150 0092 EDE7     		b	.L26
 151              	.LVL4:
 152              	.L16:
 159:i2c.c         ****     }    
 160:i2c.c         ****   }
 153              		.loc 1 160 0
 154 0094 0120     		mov	r0, #1
 155              	.LVL5:
 156              	.L21:
 161:i2c.c         **** 
 162:i2c.c         ****   /* clear start flag */
 163:i2c.c         ****   I2C_CONCLR = 0x20;
 157              		.loc 1 163 0
 158 0096 054B     		ldr	r3, .L27+8
 159              	.LVL6:
 160 0098 0006     		lsl	r0, r0, #24
 161              	.LVL7:
 162 009a 2022     		mov	r2, #32
 163 009c 0016     		asr	r0, r0, #24
 164 009e 1A70     		strb	r2, [r3]
 164:i2c.c         **** 
 165:i2c.c         ****   return retCode;
 166:i2c.c         **** }
 165              		.loc 1 166 0
 166              		@ sp needed for prologue
 167 00a0 7047     		bx	lr
 168              	.L28:
 169 00a2 C046     		.align	2
 170              	.L27:
 171 00a4 00C001E0 		.word	-536756224
 172 00a8 04C001E0 		.word	-536756220
ARM GAS  /cygdrive/c/Users/Anders/AppData/Local/Temp/ccAE1FMP.s 			page 7


 173 00ac 18C001E0 		.word	-536756200
 174              	.LFE4:
 175              		.size	i2cStart, .-i2cStart
 176              		.align	2
 177              		.global	i2cStop
 178              		.code 16
 179              		.thumb_func
 180              		.type	i2cStop, %function
 181              	i2cStop:
 182              	.LFB6:
 167:i2c.c         **** 
 168:i2c.c         **** /******************************************************************************
 169:i2c.c         ****  *
 170:i2c.c         ****  * Description:
 171:i2c.c         ****  *    Generates a start condition on I2C when bus is free.
 172:i2c.c         ****  *    Master mode will also automatically be entered.
 173:i2c.c         ****  *
 174:i2c.c         ****  *    Note: After a stop condition, you may need a bus free time before you 
 175:i2c.c         ****  *          can generate a new start condition.
 176:i2c.c         ****  *
 177:i2c.c         ****  * Returns:
 178:i2c.c         ****  *    I2C_CODE_OK or I2C status code
 179:i2c.c         ****  *
 180:i2c.c         ****  *****************************************************************************/
 181:i2c.c         **** tS8
 182:i2c.c         **** i2cRepeatStart(void)
 183:i2c.c         **** {
 184:i2c.c         ****   tU8   status  = 0;
 185:i2c.c         ****   tS8   retCode = 0;
 186:i2c.c         **** 
 187:i2c.c         ****   /* issue a start condition */
 188:i2c.c         ****   I2C_CONSET |= 0x20; /* STA = 1, set start flag */
 189:i2c.c         ****   I2C_CONCLR = 0x08;  /* clear SI flag           */
 190:i2c.c         **** 
 191:i2c.c         ****   /* wait until START transmitted */
 192:i2c.c         ****   while(1)
 193:i2c.c         ****   {
 194:i2c.c         ****     status = i2cCheckStatus();
 195:i2c.c         **** 
 196:i2c.c         ****     /* start transmitted */
 197:i2c.c         ****     if((status == 0x08) || (status == 0x10))
 198:i2c.c         ****     {
 199:i2c.c         ****       retCode = I2C_CODE_OK;
 200:i2c.c         ****       break;
 201:i2c.c         ****     }
 202:i2c.c         **** 
 203:i2c.c         ****     /* error */
 204:i2c.c         ****     else if(status != 0xf8)
 205:i2c.c         ****     {
 206:i2c.c         ****       retCode = (tS8) status;
 207:i2c.c         ****       break;
 208:i2c.c         ****     }
 209:i2c.c         **** 
 210:i2c.c         ****     else
 211:i2c.c         ****     {
 212:i2c.c         ****       /* clear SI flag */
 213:i2c.c         ****       I2C_CONCLR = 0x08;
ARM GAS  /cygdrive/c/Users/Anders/AppData/Local/Temp/ccAE1FMP.s 			page 8


 214:i2c.c         ****     }    
 215:i2c.c         ****   }
 216:i2c.c         **** 
 217:i2c.c         ****   /* clear start flag */
 218:i2c.c         ****   I2C_CONCLR = 0x20;
 219:i2c.c         **** 
 220:i2c.c         ****   return retCode;
 221:i2c.c         **** }
 222:i2c.c         **** 
 223:i2c.c         **** /******************************************************************************
 224:i2c.c         ****  *
 225:i2c.c         ****  * Description:
 226:i2c.c         ****  *    Generates a stop condition in master mode or recovers from an error
 227:i2c.c         ****  *    condition in slave mode.
 228:i2c.c         ****  *
 229:i2c.c         ****  *    Note: After this function is run, you may need a bus free time before
 230:i2c.c         ****  *          you can generate a new start condition.
 231:i2c.c         ****  *
 232:i2c.c         ****  * Returns:
 233:i2c.c         ****  *    I2C_CODE_OK
 234:i2c.c         ****  *
 235:i2c.c         ****  *****************************************************************************/
 236:i2c.c         **** tS8
 237:i2c.c         **** i2cStop(void)
 238:i2c.c         **** {
 183              		.loc 1 238 0
 239:i2c.c         ****   I2C_CONSET |= 0x10; /* STO = 1, set stop flag */ 
 184              		.loc 1 239 0
 185 00b0 0749     		ldr	r1, .L35
 186 00b2 0B78     		ldrb	r3, [r1]
 187 00b4 1022     		mov	r2, #16
 188 00b6 1343     		orr	r3, r3, r2
 189 00b8 1B06     		lsl	r3, r3, #24
 190 00ba 1B0E     		lsr	r3, r3, #24
 191 00bc 0B70     		strb	r3, [r1]
 240:i2c.c         ****   I2C_CONCLR = 0x08;  /* clear SI flag          */ 
 192              		.loc 1 240 0
 193 00be 054B     		ldr	r3, .L35+4
 194 00c0 0822     		mov	r2, #8
 195 00c2 1A70     		strb	r2, [r3]
 196              		.loc 1 238 0
 197              		@ lr needed for prologue
 198              	.L30:
 241:i2c.c         **** 
 242:i2c.c         ****   /* wait for STOP detected (while STO = 1) */
 243:i2c.c         ****   while((I2C_CONSET & 0x10) == 0x10 )
 199              		.loc 1 243 0
 200 00c4 024B     		ldr	r3, .L35
 201 00c6 1B78     		ldrb	r3, [r3]
 202 00c8 DA06     		lsl	r2, r3, #27
 203 00ca FBD4     		bmi	.L30
 244:i2c.c         ****   {
 245:i2c.c         ****     /* do nothing */
 246:i2c.c         ****     ;
 247:i2c.c         ****   }
 248:i2c.c         **** 
 249:i2c.c         ****   return I2C_CODE_OK;
ARM GAS  /cygdrive/c/Users/Anders/AppData/Local/Temp/ccAE1FMP.s 			page 9


 250:i2c.c         **** }
 204              		.loc 1 250 0
 205 00cc 0120     		mov	r0, #1
 206              		@ sp needed for prologue
 207 00ce 7047     		bx	lr
 208              	.L36:
 209              		.align	2
 210              	.L35:
 211 00d0 00C001E0 		.word	-536756224
 212 00d4 18C001E0 		.word	-536756200
 213              	.LFE6:
 214              		.size	i2cStop, .-i2cStop
 215              		.align	2
 216              		.global	i2cPutChar
 217              		.code 16
 218              		.thumb_func
 219              		.type	i2cPutChar, %function
 220              	i2cPutChar:
 221              	.LFB7:
 251:i2c.c         **** 
 252:i2c.c         **** /******************************************************************************
 253:i2c.c         ****  *
 254:i2c.c         ****  * Description:
 255:i2c.c         ****  *    Sends a character on the I2C network
 256:i2c.c         ****  *
 257:i2c.c         ****  * Params:
 258:i2c.c         ****  *    [in] data - the character to send
 259:i2c.c         ****  *
 260:i2c.c         ****  * Returns:
 261:i2c.c         ****  *    I2C_CODE_OK   - successful
 262:i2c.c         ****  *    I2C_CODE_BUSY - data register is not ready -> byte was not sent
 263:i2c.c         ****  *
 264:i2c.c         ****  *****************************************************************************/
 265:i2c.c         **** tS8
 266:i2c.c         **** i2cPutChar(tU8 data)
 267:i2c.c         **** {
 222              		.loc 1 267 0
 223              	.LVL8:
 268:i2c.c         ****   tS8 retCode = 0;
 269:i2c.c         **** 
 270:i2c.c         ****   /* check if I2C Data register can be accessed */
 271:i2c.c         ****   if((I2C_CONSET & 0x08) != 0)  /* if SI = 1 */
 224              		.loc 1 271 0
 225 00d8 084B     		ldr	r3, .L42
 226 00da 1B78     		ldrb	r3, [r3]
 227              		.loc 1 267 0
 228 00dc 0006     		lsl	r0, r0, #24
 229              	.LVL9:
 230              		.loc 1 271 0
 231 00de 0822     		mov	r2, #8
 232              		.loc 1 267 0
 233              		@ lr needed for prologue
 234              		.loc 1 267 0
 235 00e0 000E     		lsr	r0, r0, #24
 236              	.LVL10:
 237              		.loc 1 271 0
 238 00e2 1342     		tst	r3, r2
ARM GAS  /cygdrive/c/Users/Anders/AppData/Local/Temp/ccAE1FMP.s 			page 10


 239 00e4 01D1     		bne	.L38
 240 00e6 FC20     		mov	r0, #252
 241              	.LVL11:
 242 00e8 04E0     		b	.L40
 243              	.LVL12:
 244              	.L38:
 272:i2c.c         ****   {
 273:i2c.c         ****     /* send data */
 274:i2c.c         ****     I2C_DATA   = data;
 245              		.loc 1 274 0
 246 00ea 054B     		ldr	r3, .L42+4
 247 00ec 1870     		strb	r0, [r3]
 275:i2c.c         ****     I2C_CONCLR = 0x08; /* clear SI flag */ 
 248              		.loc 1 275 0
 249 00ee 1033     		add	r3, r3, #16
 250 00f0 1A70     		strb	r2, [r3]
 251 00f2 0120     		mov	r0, #1
 252              	.LVL13:
 253              	.L40:
 254 00f4 0006     		lsl	r0, r0, #24
 255              	.LVL14:
 256 00f6 0016     		asr	r0, r0, #24
 276:i2c.c         ****     retCode    = I2C_CODE_OK;
 277:i2c.c         ****   }
 278:i2c.c         ****   else
 279:i2c.c         ****   {
 280:i2c.c         ****     /* data register not ready */
 281:i2c.c         ****     retCode = I2C_CODE_BUSY;
 282:i2c.c         ****   }
 283:i2c.c         **** 
 284:i2c.c         ****   return retCode;
 285:i2c.c         **** }
 257              		.loc 1 285 0
 258              		@ sp needed for prologue
 259 00f8 7047     		bx	lr
 260              	.L43:
 261 00fa C046     		.align	2
 262              	.L42:
 263 00fc 00C001E0 		.word	-536756224
 264 0100 08C001E0 		.word	-536756216
 265              	.LFE7:
 266              		.size	i2cPutChar, .-i2cPutChar
 267              		.align	2
 268              		.global	i2cGetChar
 269              		.code 16
 270              		.thumb_func
 271              		.type	i2cGetChar, %function
 272              	i2cGetChar:
 273              	.LFB8:
 286:i2c.c         **** 
 287:i2c.c         **** /******************************************************************************
 288:i2c.c         ****  *
 289:i2c.c         ****  * Description:
 290:i2c.c         ****  *    Read a character. I2C master mode is used.
 291:i2c.c         ****  *    This function is also used to prepare if the master shall generate
 292:i2c.c         ****  *    acknowledge or not acknowledge.
 293:i2c.c         ****  *
ARM GAS  /cygdrive/c/Users/Anders/AppData/Local/Temp/ccAE1FMP.s 			page 11


 294:i2c.c         ****  * Params:
 295:i2c.c         ****  *    [in]  mode  - I2C_MODE_ACK0 Set ACK=0. Slave sends next byte
 296:i2c.c         ****  *                  I2C_MODE_ACK1 Set ACK=1. Slave sends last byte
 297:i2c.c         ****  *                  I2C_MODE_READ Read data from data register
 298:i2c.c         ****  *    [out] pData - a pointer to where the data shall be saved.
 299:i2c.c         ****  *
 300:i2c.c         ****  * Returns:
 301:i2c.c         ****  *    I2C_CODE_OK    - successful
 302:i2c.c         ****  *    I2C_CODE_EMPTY - no data is available
 303:i2c.c         ****  *
 304:i2c.c         ****  *****************************************************************************/
 305:i2c.c         **** tS8
 306:i2c.c         **** i2cGetChar(tU8  mode,
 307:i2c.c         ****            tU8* pData)
 308:i2c.c         **** {
 274              		.loc 1 308 0
 275              	.LVL15:
 276 0104 0006     		lsl	r0, r0, #24
 277              	.LVL16:
 278 0106 000E     		lsr	r0, r0, #24
 279              	.LVL17:
 280              		@ lr needed for prologue
 309:i2c.c         ****   tS8 retCode = I2C_CODE_OK;
 310:i2c.c         **** 
 311:i2c.c         ****   if(mode == I2C_MODE_ACK0)
 281              		.loc 1 311 0
 282 0108 0028     		cmp	r0, #0
 283 010a 0AD1     		bne	.L45
 312:i2c.c         ****   {
 313:i2c.c         ****     /* the operation mode is changed from master transmit to master receive */
 314:i2c.c         **** 
 315:i2c.c         ****     /* set ACK=0 (informs slave to send next byte) */
 316:i2c.c         **** 
 317:i2c.c         ****     I2C_CONSET |= 0x04; /* AA=1          */
 284              		.loc 1 317 0
 285 010c 1049     		ldr	r1, .L56
 286              	.LVL18:
 287 010e 0B78     		ldrb	r3, [r1]
 288 0110 0422     		mov	r2, #4
 289 0112 1343     		orr	r3, r3, r2
 290 0114 1B06     		lsl	r3, r3, #24
 291 0116 1B0E     		lsr	r3, r3, #24
 292 0118 0B70     		strb	r3, [r1]
 318:i2c.c         ****     I2C_CONCLR = 0x08;  /* clear SI flag */   
 293              		.loc 1 318 0
 294 011a 0E4B     		ldr	r3, .L56+4
 295 011c 0822     		mov	r2, #8
 296 011e 1A70     		strb	r2, [r3]
 297 0120 12E0     		b	.L55
 298              	.LVL19:
 299              	.L45:
 319:i2c.c         ****   }
 320:i2c.c         ****   else if(mode == I2C_MODE_ACK1)
 300              		.loc 1 320 0
 301 0122 0128     		cmp	r0, #1
 302 0124 05D1     		bne	.L48
 321:i2c.c         ****   {
ARM GAS  /cygdrive/c/Users/Anders/AppData/Local/Temp/ccAE1FMP.s 			page 12


 322:i2c.c         ****     /* set ACK=1 (informs slave to send last byte) */
 323:i2c.c         ****     I2C_CONCLR = 0x04;     
 303              		.loc 1 323 0
 304 0126 0B4B     		ldr	r3, .L56+4
 305 0128 0422     		mov	r2, #4
 306 012a 1A70     		strb	r2, [r3]
 324:i2c.c         ****     I2C_CONCLR = 0x08; /* clear SI flag */ 
 307              		.loc 1 324 0
 308 012c 0822     		mov	r2, #8
 309 012e 1A70     		strb	r2, [r3]
 310 0130 0BE0     		b	.L47
 311              	.L48:
 325:i2c.c         ****   }
 326:i2c.c         ****   else if(mode == I2C_MODE_READ)
 312              		.loc 1 326 0
 313 0132 0228     		cmp	r0, #2
 314 0134 08D1     		bne	.L55
 327:i2c.c         ****   {
 328:i2c.c         ****     /* check if I2C Data register can be accessed */
 329:i2c.c         ****     if((I2C_CONSET & 0x08) != 0)  /* SI = 1 */
 315              		.loc 1 329 0
 316 0136 064B     		ldr	r3, .L56
 317 0138 1B78     		ldrb	r3, [r3]
 318 013a 1A07     		lsl	r2, r3, #28
 319 013c 01D4     		bmi	.L52
 320 013e FD20     		mov	r0, #253
 321              	.LVL20:
 322 0140 03E0     		b	.L47
 323              	.LVL21:
 324              	.L52:
 330:i2c.c         ****     {
 331:i2c.c         ****       /* read data  */
 332:i2c.c         ****       *pData = (tU8) I2C_DATA;
 325              		.loc 1 332 0
 326 0142 054B     		ldr	r3, .L56+8
 327 0144 1B78     		ldrb	r3, [r3]
 328 0146 0B70     		strb	r3, [r1]
 329              	.L55:
 330 0148 0120     		mov	r0, #1
 331              	.LVL22:
 332              	.L47:
 333 014a 0006     		lsl	r0, r0, #24
 334              	.LVL23:
 335 014c 0016     		asr	r0, r0, #24
 333:i2c.c         ****     }
 334:i2c.c         ****     else
 335:i2c.c         ****     {
 336:i2c.c         ****       /* No data available */
 337:i2c.c         ****       retCode = I2C_CODE_EMPTY;
 338:i2c.c         ****     }
 339:i2c.c         ****   }
 340:i2c.c         **** 
 341:i2c.c         ****   return retCode;
 342:i2c.c         **** }
 336              		.loc 1 342 0
 337              		@ sp needed for prologue
 338 014e 7047     		bx	lr
ARM GAS  /cygdrive/c/Users/Anders/AppData/Local/Temp/ccAE1FMP.s 			page 13


 339              	.L57:
 340              		.align	2
 341              	.L56:
 342 0150 00C001E0 		.word	-536756224
 343 0154 18C001E0 		.word	-536756200
 344 0158 08C001E0 		.word	-536756216
 345              	.LFE8:
 346              		.size	i2cGetChar, .-i2cGetChar
 347              		.align	2
 348              		.global	i2cWaitTransmit
 349              		.code 16
 350              		.thumb_func
 351              		.type	i2cWaitTransmit, %function
 352              	i2cWaitTransmit:
 353              	.LFB10:
 343:i2c.c         **** 
 344:i2c.c         **** /******************************************************************************
 345:i2c.c         ****  *
 346:i2c.c         ****  * Description:
 347:i2c.c         ****  *    Sends data on the I2C network
 348:i2c.c         ****  *
 349:i2c.c         ****  *    Note: After this function is run, you may need a bus free time before a 
 350:i2c.c         ****  *          new data transfer can be initiated.
 351:i2c.c         ****  *
 352:i2c.c         ****  * Params:
 353:i2c.c         ****  *    [in] addr  - address
 354:i2c.c         ****  *    [in] pData - data to transmit
 355:i2c.c         ****  *    [in] len   - number of bytes to transmit
 356:i2c.c         ****  *
 357:i2c.c         ****  * Returns:
 358:i2c.c         ****  *    I2C_CODE_OK    - successful
 359:i2c.c         ****  *    I2C_CODE_ERROR - an error occured
 360:i2c.c         ****  *
 361:i2c.c         ****  *****************************************************************************/
 362:i2c.c         **** tS8
 363:i2c.c         **** i2cWrite(tU8  addr,
 364:i2c.c         ****          tU8* pData,
 365:i2c.c         ****          tU16 len)
 366:i2c.c         **** {
 367:i2c.c         ****   tS8 retCode = 0;
 368:i2c.c         ****   tU8 status  = 0;
 369:i2c.c         ****   tU8 i       = 0;
 370:i2c.c         **** 
 371:i2c.c         ****   /* generate Start condition */
 372:i2c.c         ****   retCode = i2cStart();
 373:i2c.c         **** 
 374:i2c.c         ****   /* Transmit address */
 375:i2c.c         ****   if(retCode == I2C_CODE_OK)
 376:i2c.c         ****   {
 377:i2c.c         ****     /* write SLA+W */
 378:i2c.c         ****     retCode = i2cPutChar(addr);
 379:i2c.c         ****     while(retCode == I2C_CODE_BUSY)
 380:i2c.c         ****     {
 381:i2c.c         ****       retCode = i2cPutChar(addr);
 382:i2c.c         ****     }
 383:i2c.c         ****   }
 384:i2c.c         **** 
ARM GAS  /cygdrive/c/Users/Anders/AppData/Local/Temp/ccAE1FMP.s 			page 14


 385:i2c.c         ****   if(retCode == I2C_CODE_OK)
 386:i2c.c         ****   {
 387:i2c.c         ****     /* wait until address transmitted and transmit data */
 388:i2c.c         ****     for(i = 0; i < len; i++)
 389:i2c.c         ****     {
 390:i2c.c         ****       /* wait until data transmitted */
 391:i2c.c         **** 
 392:i2c.c         ****       while(1)
 393:i2c.c         ****       {
 394:i2c.c         ****         /* get new status */
 395:i2c.c         ****         status = i2cCheckStatus();
 396:i2c.c         **** 
 397:i2c.c         ****         /* 
 398:i2c.c         ****          * SLA+W transmitted, ACK received or
 399:i2c.c         ****          * data byte transmitted, ACK received
 400:i2c.c         ****          */
 401:i2c.c         ****         if( (status == 0x18) || (status == 0x28) )
 402:i2c.c         ****         {
 403:i2c.c         ****           /* Data transmitted and ACK received */
 404:i2c.c         **** 
 405:i2c.c         ****           /* write data */
 406:i2c.c         ****           retCode = i2cPutChar(*pData);
 407:i2c.c         ****           while(retCode == I2C_CODE_BUSY)
 408:i2c.c         ****           {
 409:i2c.c         ****             retCode = i2cPutChar(*pData);
 410:i2c.c         ****           }
 411:i2c.c         ****           pData++;
 412:i2c.c         **** 
 413:i2c.c         ****           break;
 414:i2c.c         ****         }
 415:i2c.c         **** 
 416:i2c.c         ****         /* no relevant status information */
 417:i2c.c         ****         else if( status != 0xf8 )
 418:i2c.c         ****         {
 419:i2c.c         ****           /* error */
 420:i2c.c         ****           i = len;
 421:i2c.c         ****           retCode = I2C_CODE_ERROR;
 422:i2c.c         ****           break;
 423:i2c.c         ****         }
 424:i2c.c         ****       }
 425:i2c.c         ****     }
 426:i2c.c         ****   }
 427:i2c.c         **** 
 428:i2c.c         ****   /* wait until data transmitted */
 429:i2c.c         ****   while(1)
 430:i2c.c         ****   {
 431:i2c.c         ****     /* get new status */
 432:i2c.c         ****     status = i2cCheckStatus();
 433:i2c.c         **** 
 434:i2c.c         ****     /* 
 435:i2c.c         ****      * SLA+W transmitted, ACK received or
 436:i2c.c         ****      * data byte transmitted, ACK received
 437:i2c.c         ****      */
 438:i2c.c         ****     if( (status == 0x18) || (status == 0x28) )
 439:i2c.c         ****     {
 440:i2c.c         ****       /* data transmitted and ACK received */
 441:i2c.c         ****       break;
ARM GAS  /cygdrive/c/Users/Anders/AppData/Local/Temp/ccAE1FMP.s 			page 15


 442:i2c.c         ****     }
 443:i2c.c         **** 
 444:i2c.c         ****     /* no relevant status information */
 445:i2c.c         ****     else if(status != 0xf8 )
 446:i2c.c         ****     {
 447:i2c.c         ****       /* error */
 448:i2c.c         ****       i = len;
 449:i2c.c         ****       retCode = I2C_CODE_ERROR;
 450:i2c.c         ****       break;
 451:i2c.c         ****     }
 452:i2c.c         ****   }
 453:i2c.c         **** 
 454:i2c.c         ****   /* generate Stop condition */
 455:i2c.c         ****   i2cStop();
 456:i2c.c         **** 
 457:i2c.c         ****   return retCode;
 458:i2c.c         **** }
 459:i2c.c         **** 
 460:i2c.c         **** tS8
 461:i2c.c         **** i2cWaitTransmit(void)
 462:i2c.c         **** {
 354              		.loc 1 462 0
 355              		@ lr needed for prologue
 356              	.LVL24:
 357              	.L70:
 358              	.LBB8:
 359              	.LBB9:
 360              		.loc 1 80 0
 361 015c 084B     		ldr	r3, .L71
 362              	.LVL25:
 363 015e 1B78     		ldrb	r3, [r3]
 364 0160 1A07     		lsl	r2, r3, #28
 365 0162 FBD5     		bpl	.L70
 366              		.loc 1 86 0
 367 0164 074B     		ldr	r3, .L71+4
 368 0166 1B78     		ldrb	r3, [r3]
 369              	.LBE9:
 370              	.LBE8:
 463:i2c.c         ****   tU8 status = 0;
 464:i2c.c         **** 
 465:i2c.c         ****   /* wait until data transmitted */
 466:i2c.c         ****   while(1)
 467:i2c.c         ****   {
 468:i2c.c         ****     /* get new status */
 469:i2c.c         ****     status = i2cCheckStatus();
 470:i2c.c         **** 
 471:i2c.c         ****     /* 
 472:i2c.c         ****      * SLA+W transmitted, ACK received or
 473:i2c.c         ****      * data byte transmitted, ACK received
 474:i2c.c         ****      */
 475:i2c.c         ****     if( (status == 0x18) || (status == 0x28) )
 371              		.loc 1 475 0
 372 0168 182B     		cmp	r3, #24
 373 016a 06D0     		beq	.L61
 374              	.LVL26:
 375 016c 282B     		cmp	r3, #40
 376 016e 04D0     		beq	.L61
ARM GAS  /cygdrive/c/Users/Anders/AppData/Local/Temp/ccAE1FMP.s 			page 16


 476:i2c.c         ****     {
 477:i2c.c         ****       /* data transmitted and ACK received */
 478:i2c.c         ****       return I2C_CODE_OK;
 479:i2c.c         ****     }
 480:i2c.c         **** 
 481:i2c.c         ****     /* no relevant status information */
 482:i2c.c         ****     else if(status != 0xf8 )
 377              		.loc 1 482 0
 378 0170 F82B     		cmp	r3, #248
 379 0172 F3D0     		beq	.L70
 380 0174 0120     		mov	r0, #1
 381 0176 4042     		neg	r0, r0
 382 0178 00E0     		b	.L65
 383              	.L61:
 384 017a 0120     		mov	r0, #1
 385              	.L65:
 483:i2c.c         ****     {
 484:i2c.c         ****       /* error */
 485:i2c.c         **** 
 486:i2c.c         ****       return I2C_CODE_ERROR;
 487:i2c.c         ****     }
 488:i2c.c         ****   }
 489:i2c.c         **** }
 386              		.loc 1 489 0
 387              		@ sp needed for prologue
 388 017c 7047     		bx	lr
 389              	.L72:
 390 017e C046     		.align	2
 391              	.L71:
 392 0180 00C001E0 		.word	-536756224
 393 0184 04C001E0 		.word	-536756220
 394              	.LFE10:
 395              		.size	i2cWaitTransmit, .-i2cWaitTransmit
 396              		.align	2
 397              		.global	i2cWriteWithWait
 398              		.code 16
 399              		.thumb_func
 400              		.type	i2cWriteWithWait, %function
 401              	i2cWriteWithWait:
 402              	.LFB11:
 490:i2c.c         **** 
 491:i2c.c         **** tS8
 492:i2c.c         **** i2cWriteWithWait(tU8 data)
 493:i2c.c         **** {
 403              		.loc 1 493 0
 404 0188 10B5     		push	{r4, lr}
 405              	.LCFI0:
 406              	.LVL27:
 407 018a 0006     		lsl	r0, r0, #24
 408              	.LVL28:
 409 018c 040E     		lsr	r4, r0, #24
 410              	.L75:
 494:i2c.c         ****   tS8 retCode = 0;
 495:i2c.c         ****   
 496:i2c.c         ****   retCode = i2cPutChar(data);
 497:i2c.c         ****   while(retCode == I2C_CODE_BUSY)
 498:i2c.c         ****   {
ARM GAS  /cygdrive/c/Users/Anders/AppData/Local/Temp/ccAE1FMP.s 			page 17


 499:i2c.c         ****     retCode = i2cPutChar(data);
 411              		.loc 1 499 0
 412 018e 201C     		mov	r0, r4
 413 0190 FFF7FEFF 		bl	i2cPutChar
 414 0194 0006     		lsl	r0, r0, #24
 415 0196 000E     		lsr	r0, r0, #24
 416              	.LVL29:
 417              		.loc 1 497 0
 418 0198 0306     		lsl	r3, r0, #24
 419 019a FC28     		cmp	r0, #252
 420 019c F7D0     		beq	.L75
 500:i2c.c         ****   }
 501:i2c.c         **** 
 502:i2c.c         ****   if(retCode == I2C_CODE_OK)
 421              		.loc 1 502 0
 422 019e 1B16     		asr	r3, r3, #24
 423 01a0 012B     		cmp	r3, #1
 424 01a2 03D1     		bne	.L77
 503:i2c.c         ****     retCode = i2cWaitTransmit();
 425              		.loc 1 503 0
 426 01a4 FFF7FEFF 		bl	i2cWaitTransmit
 427              	.LVL30:
 428 01a8 0006     		lsl	r0, r0, #24
 429 01aa 000E     		lsr	r0, r0, #24
 430              	.LVL31:
 431              	.L77:
 432 01ac 0006     		lsl	r0, r0, #24
 433              	.LVL32:
 434 01ae 0016     		asr	r0, r0, #24
 504:i2c.c         **** 
 505:i2c.c         ****   return retCode;
 506:i2c.c         **** }
 435              		.loc 1 506 0
 436              		@ sp needed for prologue
 437 01b0 10BC     		pop	{r4}
 438 01b2 02BC     		pop	{r1}
 439 01b4 0847     		bx	r1
 440              	.LFE11:
 441              		.size	i2cWriteWithWait, .-i2cWriteWithWait
 442 01b6 C046     		.align	2
 443              		.global	i2cMyWrite
 444              		.code 16
 445              		.thumb_func
 446              		.type	i2cMyWrite, %function
 447              	i2cMyWrite:
 448              	.LFB12:
 507:i2c.c         **** 
 508:i2c.c         **** tS8
 509:i2c.c         **** i2cMyWrite(tU8  addr,
 510:i2c.c         ****            tU8* pData,
 511:i2c.c         ****            tU16 len)
 512:i2c.c         **** {
 449              		.loc 1 512 0
 450 01b8 F0B5     		push	{r4, r5, r6, r7, lr}
 451              	.LCFI1:
 452              	.LVL33:
 453              		.loc 1 512 0
ARM GAS  /cygdrive/c/Users/Anders/AppData/Local/Temp/ccAE1FMP.s 			page 18


 454 01ba 0006     		lsl	r0, r0, #24
 455              	.LVL34:
 456 01bc 1204     		lsl	r2, r2, #16
 457              	.LVL35:
 458 01be 0F1C     		mov	r7, r1
 459 01c0 040E     		lsr	r4, r0, #24
 460              	.LVL36:
 461 01c2 160C     		lsr	r6, r2, #16
 462              	.LVL37:
 513:i2c.c         ****   tS8 retCode = 0;
 514:i2c.c         ****   tU8 i       = 0;
 515:i2c.c         **** 
 516:i2c.c         ****   do
 517:i2c.c         ****   {
 518:i2c.c         ****     /* generate Start condition */
 519:i2c.c         ****     retCode = i2cStart();
 463              		.loc 1 519 0
 464 01c4 FFF7FEFF 		bl	i2cStart
 465              	.LVL38:
 466 01c8 0006     		lsl	r0, r0, #24
 520:i2c.c         ****     if(retCode != I2C_CODE_OK)
 467              		.loc 1 520 0
 468 01ca 050E     		lsr	r5, r0, #24
 469              	.LVL39:
 470 01cc 0016     		asr	r0, r0, #24
 471 01ce 0128     		cmp	r0, #1
 472 01d0 17D1     		bne	.L81
 521:i2c.c         ****       break;
 522:i2c.c         **** 
 523:i2c.c         ****     /* write address */
 524:i2c.c         ****     retCode = i2cWriteWithWait(addr);
 473              		.loc 1 524 0
 474 01d2 201C     		mov	r0, r4
 475 01d4 FFF7FEFF 		bl	i2cWriteWithWait
 476 01d8 0006     		lsl	r0, r0, #24
 525:i2c.c         ****     if(retCode != I2C_CODE_OK)
 477              		.loc 1 525 0
 478 01da 050E     		lsr	r5, r0, #24
 479 01dc 0016     		asr	r0, r0, #24
 480 01de 0128     		cmp	r0, #1
 481 01e0 0FD1     		bne	.L81
 526:i2c.c         ****       break;
 482              		.loc 1 526 0
 483 01e2 0024     		mov	r4, #0
 484              	.LVL40:
 485 01e4 09E0     		b	.L84
 486              	.L85:
 527:i2c.c         **** 
 528:i2c.c         ****     for(i = 0; i <len; i++)
 529:i2c.c         ****     {
 530:i2c.c         ****       retCode = i2cWriteWithWait(*pData);
 487              		.loc 1 530 0
 488 01e6 E05D     		ldrb	r0, [r4, r7]
 489 01e8 FFF7FEFF 		bl	i2cWriteWithWait
 531:i2c.c         ****       if(retCode != I2C_CODE_OK)
 490              		.loc 1 531 0
 491 01ec 0006     		lsl	r0, r0, #24
ARM GAS  /cygdrive/c/Users/Anders/AppData/Local/Temp/ccAE1FMP.s 			page 19


 492 01ee 0316     		asr	r3, r0, #24
 493              		.loc 1 530 0
 494 01f0 0134     		add	r4, r4, #1
 495              		.loc 1 531 0
 496 01f2 012B     		cmp	r3, #1
 497 01f4 01D0     		beq	.L84
 498 01f6 050E     		lsr	r5, r0, #24
 499 01f8 03E0     		b	.L81
 500              	.L84:
 501              		.loc 1 528 0
 502 01fa 2306     		lsl	r3, r4, #24
 503 01fc 1B0E     		lsr	r3, r3, #24
 504 01fe B342     		cmp	r3, r6
 505 0200 F1D3     		bcc	.L85
 506              	.LVL41:
 507              	.L81:
 532:i2c.c         ****         break;
 533:i2c.c         **** 
 534:i2c.c         ****       pData++;
 535:i2c.c         ****     }
 536:i2c.c         **** 
 537:i2c.c         ****   } while(0);
 538:i2c.c         **** 
 539:i2c.c         ****   /* generate Stop condition */
 540:i2c.c         ****   i2cStop();
 508              		.loc 1 540 0
 509 0202 FFF7FEFF 		bl	i2cStop
 510 0206 2806     		lsl	r0, r5, #24
 511 0208 0016     		asr	r0, r0, #24
 541:i2c.c         **** 
 542:i2c.c         **** 
 543:i2c.c         ****   return retCode;
 544:i2c.c         **** }
 512              		.loc 1 544 0
 513              		@ sp needed for prologue
 514              	.LVL42:
 515              	.LVL43:
 516              	.LVL44:
 517              	.LVL45:
 518 020a F0BC     		pop	{r4, r5, r6, r7}
 519 020c 02BC     		pop	{r1}
 520 020e 0847     		bx	r1
 521              	.LFE12:
 522              		.size	i2cMyWrite, .-i2cMyWrite
 523              		.align	2
 524              		.global	i2cRepeatStart
 525              		.code 16
 526              		.thumb_func
 527              		.type	i2cRepeatStart, %function
 528              	i2cRepeatStart:
 529              	.LFB5:
 530              		.loc 1 183 0
 531              		.loc 1 188 0
 532 0210 0F49     		ldr	r1, .L104
 533 0212 0B78     		ldrb	r3, [r1]
 534 0214 2022     		mov	r2, #32
 535 0216 1343     		orr	r3, r3, r2
ARM GAS  /cygdrive/c/Users/Anders/AppData/Local/Temp/ccAE1FMP.s 			page 20


 536 0218 1B06     		lsl	r3, r3, #24
 537 021a 1B0E     		lsr	r3, r3, #24
 538 021c 0B70     		strb	r3, [r1]
 539              		.loc 1 183 0
 540              		@ lr needed for prologue
 541              		.loc 1 189 0
 542 021e 0822     		mov	r2, #8
 543              	.LVL46:
 544              	.L103:
 545 0220 0C4B     		ldr	r3, .L104+4
 546              	.LVL47:
 547 0222 1A70     		strb	r2, [r3]
 548              	.L102:
 549              	.LBB12:
 550              	.LBB13:
 551              		.loc 1 80 0
 552 0224 0A4B     		ldr	r3, .L104
 553 0226 1B78     		ldrb	r3, [r3]
 554 0228 0822     		mov	r2, #8
 555 022a 1342     		tst	r3, r2
 556 022c FAD0     		beq	.L102
 557              		.loc 1 86 0
 558 022e 0A4B     		ldr	r3, .L104+8
 559 0230 1B78     		ldrb	r3, [r3]
 560              	.LBE13:
 561              	.LBE12:
 562              		.loc 1 197 0
 563 0232 082B     		cmp	r3, #8
 564 0234 05D0     		beq	.L93
 565              	.LVL48:
 566 0236 102B     		cmp	r3, #16
 567 0238 03D0     		beq	.L93
 568              		.loc 1 204 0
 569 023a F82B     		cmp	r3, #248
 570 023c F0D0     		beq	.L103
 571              		.loc 1 206 0
 572 023e 181C     		mov	r0, r3
 573              	.LVL49:
 574 0240 00E0     		b	.L98
 575              	.LVL50:
 576              	.L93:
 577              		.loc 1 215 0
 578 0242 0120     		mov	r0, #1
 579              	.LVL51:
 580              	.L98:
 581              		.loc 1 218 0
 582 0244 034B     		ldr	r3, .L104+4
 583              	.LVL52:
 584 0246 0006     		lsl	r0, r0, #24
 585              	.LVL53:
 586 0248 2022     		mov	r2, #32
 587 024a 0016     		asr	r0, r0, #24
 588 024c 1A70     		strb	r2, [r3]
 589              		.loc 1 221 0
 590              		@ sp needed for prologue
 591 024e 7047     		bx	lr
 592              	.L105:
ARM GAS  /cygdrive/c/Users/Anders/AppData/Local/Temp/ccAE1FMP.s 			page 21


 593              		.align	2
 594              	.L104:
 595 0250 00C001E0 		.word	-536756224
 596 0254 18C001E0 		.word	-536756200
 597 0258 04C001E0 		.word	-536756220
 598              	.LFE5:
 599              		.size	i2cRepeatStart, .-i2cRepeatStart
 600              		.align	2
 601              		.global	i2cRead
 602              		.code 16
 603              		.thumb_func
 604              		.type	i2cRead, %function
 605              	i2cRead:
 606              	.LFB13:
 545:i2c.c         **** 
 546:i2c.c         **** 
 547:i2c.c         **** /******************************************************************************
 548:i2c.c         ****  *
 549:i2c.c         ****  * Description:
 550:i2c.c         ****  *    Read a specified number of bytes from the I2C network.
 551:i2c.c         ****  *
 552:i2c.c         ****  *    Note: After this function is run, you may need a bus free time before a 
 553:i2c.c         ****  *          new data transfer can be initiated.
 554:i2c.c         ****  *
 555:i2c.c         ****  * Params:
 556:i2c.c         ****  *    [in] addr - address
 557:i2c.c         ****  *    [in] pBuf - receive buffer
 558:i2c.c         ****  *    [in] len  - number of bytes to receive
 559:i2c.c         ****  *
 560:i2c.c         ****  * Returns:
 561:i2c.c         ****  *    I2C_CODE_OK or I2C status code
 562:i2c.c         ****  *
 563:i2c.c         ****  *****************************************************************************/
 564:i2c.c         **** tS8
 565:i2c.c         **** i2cRead(tU8  addr,
 566:i2c.c         ****         tU8* pBuf,
 567:i2c.c         ****         tU16 len)
 568:i2c.c         **** {
 607              		.loc 1 568 0
 608 025c F0B5     		push	{r4, r5, r6, r7, lr}
 609              	.LCFI2:
 610              	.LVL54:
 611              		.loc 1 568 0
 612 025e 0006     		lsl	r0, r0, #24
 613              	.LVL55:
 614 0260 1204     		lsl	r2, r2, #16
 615              	.LVL56:
 616 0262 0D1C     		mov	r5, r1
 617 0264 060E     		lsr	r6, r0, #24
 618              	.LVL57:
 619 0266 170C     		lsr	r7, r2, #16
 620              	.LVL58:
 569:i2c.c         ****   tS8 retCode = 0;
 570:i2c.c         ****   tU8 status  = 0;
 571:i2c.c         ****   tU8 i       = 0;
 572:i2c.c         **** 
 573:i2c.c         ****   /* Generate Start condition */
ARM GAS  /cygdrive/c/Users/Anders/AppData/Local/Temp/ccAE1FMP.s 			page 22


 574:i2c.c         ****   retCode = i2cStart();
 621              		.loc 1 574 0
 622 0268 FFF7FEFF 		bl	i2cStart
 623              	.LVL59:
 624 026c 0006     		lsl	r0, r0, #24
 575:i2c.c         **** 
 576:i2c.c         ****   /* Transmit address */
 577:i2c.c         ****   if(retCode == I2C_CODE_OK )
 625              		.loc 1 577 0
 626 026e 040E     		lsr	r4, r0, #24
 627              	.LVL60:
 628 0270 0016     		asr	r0, r0, #24
 629 0272 0128     		cmp	r0, #1
 630 0274 36D1     		bne	.L107
 631              	.L110:
 578:i2c.c         ****   {
 579:i2c.c         ****     /* write SLA+R */
 580:i2c.c         ****     retCode = i2cPutChar(addr);
 581:i2c.c         ****     while(retCode == I2C_CODE_BUSY)
 582:i2c.c         ****     {
 583:i2c.c         ****       retCode = i2cPutChar(addr);
 632              		.loc 1 583 0
 633 0276 301C     		mov	r0, r6
 634 0278 FFF7FEFF 		bl	i2cPutChar
 635 027c 0006     		lsl	r0, r0, #24
 636 027e 040E     		lsr	r4, r0, #24
 637              		.loc 1 581 0
 638 0280 2306     		lsl	r3, r4, #24
 639 0282 FC2C     		cmp	r4, #252
 640 0284 F7D0     		beq	.L110
 584:i2c.c         ****     }
 585:i2c.c         ****   }
 586:i2c.c         **** 
 587:i2c.c         ****   if(retCode == I2C_CODE_OK )
 641              		.loc 1 587 0
 642 0286 1A1C     		mov	r2, r3
 643 0288 1B16     		asr	r3, r3, #24
 644 028a 012B     		cmp	r3, #1
 645 028c 2AD1     		bne	.L107
 646 028e 140E     		lsr	r4, r2, #24
 647 0290 0126     		mov	r6, #1
 648              	.LVL61:
 649 0292 25E0     		b	.L113
 650              	.LVL62:
 651              	.L134:
 652              	.LBB16:
 653              	.LBB17:
 654              		.loc 1 80 0
 655 0294 174B     		ldr	r3, .L135
 656              	.LVL63:
 657 0296 1B78     		ldrb	r3, [r3]
 658 0298 1A07     		lsl	r2, r3, #28
 659 029a FBD5     		bpl	.L134
 660              		.loc 1 86 0
 661 029c 164B     		ldr	r3, .L135+4
 662 029e 1B78     		ldrb	r3, [r3]
 663              	.LBE17:
ARM GAS  /cygdrive/c/Users/Anders/AppData/Local/Temp/ccAE1FMP.s 			page 23


 664              	.LBE16:
 588:i2c.c         ****   {
 589:i2c.c         ****     /* wait until address transmitted and receive data */
 590:i2c.c         ****     for(i = 1; i <= len; i++ )
 591:i2c.c         ****     {
 592:i2c.c         ****       /* wait until data transmitted */
 593:i2c.c         ****       while(1)
 594:i2c.c         ****       {
 595:i2c.c         ****         /* get new status */
 596:i2c.c         ****         status = i2cCheckStatus();
 597:i2c.c         **** 
 598:i2c.c         ****         /*
 599:i2c.c         ****          * SLA+R transmitted, ACK received or
 600:i2c.c         ****          * SLA+R transmitted, ACK not received
 601:i2c.c         ****          * data byte received in master mode, ACK transmitted
 602:i2c.c         ****          */
 603:i2c.c         ****         if((status == 0x40 ) || (status == 0x48 ) || (status == 0x50 ))
 665              		.loc 1 603 0
 666 02a0 402B     		cmp	r3, #64
 667 02a2 03D0     		beq	.L116
 668              	.LVL64:
 669 02a4 482B     		cmp	r3, #72
 670 02a6 01D0     		beq	.L116
 671 02a8 502B     		cmp	r3, #80
 672 02aa 11D1     		bne	.L119
 673              	.L116:
 604:i2c.c         ****         {
 605:i2c.c         ****           /* data received */
 606:i2c.c         **** 
 607:i2c.c         ****           if(i == len)
 674              		.loc 1 607 0
 675 02ac BE42     		cmp	r6, r7
 676 02ae 01D1     		bne	.L120
 608:i2c.c         ****           {
 609:i2c.c         ****             /* Set generate NACK */
 610:i2c.c         ****             retCode = i2cGetChar(I2C_MODE_ACK1, pBuf);
 677              		.loc 1 610 0
 678 02b0 0120     		mov	r0, #1
 679 02b2 00E0     		b	.L133
 680              	.L120:
 611:i2c.c         ****           }
 612:i2c.c         ****           else
 613:i2c.c         ****           {
 614:i2c.c         ****             retCode = i2cGetChar(I2C_MODE_ACK0, pBuf);
 681              		.loc 1 614 0
 682 02b4 0020     		mov	r0, #0
 683              	.L133:
 684 02b6 291C     		mov	r1, r5
 685 02b8 FFF7FEFF 		bl	i2cGetChar
 686              	.LVL65:
 687              	.L124:
 615:i2c.c         ****           }
 616:i2c.c         **** 
 617:i2c.c         ****           /* Read data */
 618:i2c.c         ****           retCode = i2cGetChar(I2C_MODE_READ, pBuf);
 619:i2c.c         ****           while(retCode == I2C_CODE_EMPTY)
 620:i2c.c         ****           {
ARM GAS  /cygdrive/c/Users/Anders/AppData/Local/Temp/ccAE1FMP.s 			page 24


 621:i2c.c         ****             retCode = i2cGetChar(I2C_MODE_READ, pBuf);
 688              		.loc 1 621 0
 689 02bc 0220     		mov	r0, #2
 690 02be 291C     		mov	r1, r5
 691 02c0 FFF7FEFF 		bl	i2cGetChar
 692 02c4 0006     		lsl	r0, r0, #24
 693 02c6 040E     		lsr	r4, r0, #24
 694              		.loc 1 619 0
 695 02c8 FD2C     		cmp	r4, #253
 696 02ca F7D0     		beq	.L124
 622:i2c.c         ****           }
 623:i2c.c         ****           pBuf++;
 697              		.loc 1 623 0
 698 02cc 0135     		add	r5, r5, #1
 699 02ce 04E0     		b	.L126
 700              	.LVL66:
 701              	.L119:
 624:i2c.c         **** 
 625:i2c.c         ****           break;
 626:i2c.c         ****         }
 627:i2c.c         **** 
 628:i2c.c         ****         /* no relevant status information */
 629:i2c.c         ****         else if(status != 0xf8 )
 702              		.loc 1 629 0
 703 02d0 F82B     		cmp	r3, #248
 704 02d2 DFD0     		beq	.L134
 630:i2c.c         ****         {
 631:i2c.c         ****           /* error */
 632:i2c.c         ****           i = len;
 705              		.loc 1 632 0
 706 02d4 3B06     		lsl	r3, r7, #24
 707              	.LVL67:
 708 02d6 1E0E     		lsr	r6, r3, #24
 709 02d8 FF24     		mov	r4, #255
 710              	.L126:
 711              		.loc 1 590 0
 712 02da 731C     		add	r3, r6, #1
 713 02dc 1B06     		lsl	r3, r3, #24
 714 02de 1E0E     		lsr	r6, r3, #24
 715              	.L113:
 716 02e0 BE42     		cmp	r6, r7
 717 02e2 D7D9     		bls	.L134
 718              	.LVL68:
 719              	.L107:
 633:i2c.c         ****           retCode = I2C_CODE_ERROR;
 634:i2c.c         ****           break;
 635:i2c.c         ****         }
 636:i2c.c         ****       }
 637:i2c.c         ****     }
 638:i2c.c         ****   }
 639:i2c.c         **** 
 640:i2c.c         ****   /*--- Generate Stop condition ---*/
 641:i2c.c         ****   i2cStop();
 720              		.loc 1 641 0
 721 02e4 FFF7FEFF 		bl	i2cStop
 722 02e8 2006     		lsl	r0, r4, #24
 723 02ea 0016     		asr	r0, r0, #24
ARM GAS  /cygdrive/c/Users/Anders/AppData/Local/Temp/ccAE1FMP.s 			page 25


 642:i2c.c         **** 
 643:i2c.c         ****   return retCode;
 644:i2c.c         **** }
 724              		.loc 1 644 0
 725              		@ sp needed for prologue
 726              	.LVL69:
 727              	.LVL70:
 728              	.LVL71:
 729              	.LVL72:
 730 02ec F0BC     		pop	{r4, r5, r6, r7}
 731 02ee 02BC     		pop	{r1}
 732 02f0 0847     		bx	r1
 733              	.L136:
 734 02f2 C046     		.align	2
 735              	.L135:
 736 02f4 00C001E0 		.word	-536756224
 737 02f8 04C001E0 		.word	-536756220
 738              	.LFE13:
 739              		.size	i2cRead, .-i2cRead
 740              		.align	2
 741              		.global	i2cWrite
 742              		.code 16
 743              		.thumb_func
 744              		.type	i2cWrite, %function
 745              	i2cWrite:
 746              	.LFB9:
 747              		.loc 1 366 0
 748 02fc F0B5     		push	{r4, r5, r6, r7, lr}
 749              	.LCFI3:
 750              	.LVL73:
 751              		.loc 1 366 0
 752 02fe 0006     		lsl	r0, r0, #24
 753              	.LVL74:
 754 0300 1204     		lsl	r2, r2, #16
 755              	.LVL75:
 756 0302 0D1C     		mov	r5, r1
 757 0304 060E     		lsr	r6, r0, #24
 758              	.LVL76:
 759 0306 170C     		lsr	r7, r2, #16
 760              	.LVL77:
 761              		.loc 1 372 0
 762 0308 FFF7FEFF 		bl	i2cStart
 763              	.LVL78:
 764 030c 0006     		lsl	r0, r0, #24
 765              		.loc 1 375 0
 766 030e 040E     		lsr	r4, r0, #24
 767              	.LVL79:
 768 0310 0016     		asr	r0, r0, #24
 769 0312 0128     		cmp	r0, #1
 770 0314 2AD1     		bne	.L171
 771              	.L141:
 772              		.loc 1 381 0
 773 0316 301C     		mov	r0, r6
 774 0318 FFF7FEFF 		bl	i2cPutChar
 775 031c 0006     		lsl	r0, r0, #24
 776 031e 000E     		lsr	r0, r0, #24
 777              	.LVL80:
ARM GAS  /cygdrive/c/Users/Anders/AppData/Local/Temp/ccAE1FMP.s 			page 26


 778              		.loc 1 379 0
 779 0320 0306     		lsl	r3, r0, #24
 780 0322 FC28     		cmp	r0, #252
 781 0324 F7D0     		beq	.L141
 782              		.loc 1 385 0
 783 0326 1C0E     		lsr	r4, r3, #24
 784              	.LVL81:
 785 0328 1B16     		asr	r3, r3, #24
 786 032a 012B     		cmp	r3, #1
 787 032c 1ED1     		bne	.L171
 788 032e 0026     		mov	r6, #0
 789              	.LVL82:
 790 0330 1AE0     		b	.L145
 791              	.LVL83:
 792              	.L170:
 793              	.LBB22:
 794              	.LBB23:
 795              		.loc 1 80 0
 796 0332 184B     		ldr	r3, .L172
 797              	.LVL84:
 798 0334 1B78     		ldrb	r3, [r3]
 799 0336 1A07     		lsl	r2, r3, #28
 800 0338 FBD5     		bpl	.L170
 801              		.loc 1 86 0
 802 033a 174B     		ldr	r3, .L172+4
 803 033c 1B78     		ldrb	r3, [r3]
 804              	.LBE23:
 805              	.LBE22:
 806              		.loc 1 401 0
 807 033e 182B     		cmp	r3, #24
 808 0340 01D0     		beq	.L152
 809              	.LVL85:
 810 0342 282B     		cmp	r3, #40
 811 0344 08D1     		bne	.L150
 812              	.L152:
 813              		.loc 1 409 0
 814 0346 2878     		ldrb	r0, [r5]
 815 0348 FFF7FEFF 		bl	i2cPutChar
 816              	.LVL86:
 817 034c 0006     		lsl	r0, r0, #24
 818 034e 040E     		lsr	r4, r0, #24
 819              		.loc 1 407 0
 820 0350 FC2C     		cmp	r4, #252
 821 0352 F8D0     		beq	.L152
 822              		.loc 1 411 0
 823 0354 0135     		add	r5, r5, #1
 824 0356 04E0     		b	.L154
 825              	.LVL87:
 826              	.L150:
 827              		.loc 1 417 0
 828 0358 F82B     		cmp	r3, #248
 829 035a EAD0     		beq	.L170
 830              		.loc 1 420 0
 831 035c 3B06     		lsl	r3, r7, #24
 832              	.LVL88:
 833 035e 1E0E     		lsr	r6, r3, #24
 834 0360 FF24     		mov	r4, #255
ARM GAS  /cygdrive/c/Users/Anders/AppData/Local/Temp/ccAE1FMP.s 			page 27


 835              	.L154:
 836              		.loc 1 388 0
 837 0362 731C     		add	r3, r6, #1
 838 0364 1B06     		lsl	r3, r3, #24
 839 0366 1E0E     		lsr	r6, r3, #24
 840              	.L145:
 841 0368 BE42     		cmp	r6, r7
 842 036a E2D3     		bcc	.L170
 843              	.LVL89:
 844              	.L171:
 845              	.LBB24:
 846              	.LBB25:
 847              		.loc 1 80 0
 848 036c 094B     		ldr	r3, .L172
 849              	.LVL90:
 850 036e 1B78     		ldrb	r3, [r3]
 851 0370 1A07     		lsl	r2, r3, #28
 852 0372 FBD5     		bpl	.L171
 853              		.loc 1 86 0
 854 0374 084B     		ldr	r3, .L172+4
 855 0376 1B78     		ldrb	r3, [r3]
 856              	.LBE25:
 857              	.LBE24:
 858              		.loc 1 438 0
 859 0378 182B     		cmp	r3, #24
 860 037a 04D0     		beq	.L157
 861              	.LVL91:
 862 037c 282B     		cmp	r3, #40
 863 037e 02D0     		beq	.L157
 864              		.loc 1 445 0
 865 0380 F82B     		cmp	r3, #248
 866 0382 F3D0     		beq	.L171
 867 0384 FF24     		mov	r4, #255
 868              	.L157:
 869              		.loc 1 455 0
 870 0386 FFF7FEFF 		bl	i2cStop
 871              	.LVL92:
 872 038a 2006     		lsl	r0, r4, #24
 873 038c 0016     		asr	r0, r0, #24
 874              		.loc 1 458 0
 875              		@ sp needed for prologue
 876              	.LVL93:
 877              	.LVL94:
 878              	.LVL95:
 879              	.LVL96:
 880 038e F0BC     		pop	{r4, r5, r6, r7}
 881 0390 02BC     		pop	{r1}
 882 0392 0847     		bx	r1
 883              	.L173:
 884              		.align	2
 885              	.L172:
 886 0394 00C001E0 		.word	-536756224
 887 0398 04C001E0 		.word	-536756220
 888              	.LFE9:
 889              		.size	i2cWrite, .-i2cWrite
 890              		.section	.debug_frame,"",%progbits
 891              	.Lframe0:
ARM GAS  /cygdrive/c/Users/Anders/AppData/Local/Temp/ccAE1FMP.s 			page 28


 892 0000 0C000000 		.4byte	.LECIE0-.LSCIE0
 893              	.LSCIE0:
 894 0004 FFFFFFFF 		.4byte	0xffffffff
 895 0008 01       		.byte	0x1
 896 0009 00       		.ascii	"\000"
 897 000a 01       		.uleb128 0x1
 898 000b 7C       		.sleb128 -4
 899 000c 0E       		.byte	0xe
 900 000d 0C       		.byte	0xc
 901 000e 0D       		.uleb128 0xd
 902 000f 00       		.uleb128 0x0
 903              		.align	2
 904              	.LECIE0:
 905              	.LSFDE0:
 906 0010 0C000000 		.4byte	.LEFDE0-.LASFDE0
 907              	.LASFDE0:
 908 0014 00000000 		.4byte	.Lframe0
 909 0018 00000000 		.4byte	.LFB2
 910 001c 18000000 		.4byte	.LFE2-.LFB2
 911              		.align	2
 912              	.LEFDE0:
 913              	.LSFDE2:
 914 0020 0C000000 		.4byte	.LEFDE2-.LASFDE2
 915              	.LASFDE2:
 916 0024 00000000 		.4byte	.Lframe0
 917 0028 18000000 		.4byte	.LFB3
 918 002c 4C000000 		.4byte	.LFE3-.LFB3
 919              		.align	2
 920              	.LEFDE2:
 921              	.LSFDE4:
 922 0030 0C000000 		.4byte	.LEFDE4-.LASFDE4
 923              	.LASFDE4:
 924 0034 00000000 		.4byte	.Lframe0
 925 0038 64000000 		.4byte	.LFB4
 926 003c 4C000000 		.4byte	.LFE4-.LFB4
 927              		.align	2
 928              	.LEFDE4:
 929              	.LSFDE6:
 930 0040 0C000000 		.4byte	.LEFDE6-.LASFDE6
 931              	.LASFDE6:
 932 0044 00000000 		.4byte	.Lframe0
 933 0048 B0000000 		.4byte	.LFB6
 934 004c 28000000 		.4byte	.LFE6-.LFB6
 935              		.align	2
 936              	.LEFDE6:
 937              	.LSFDE8:
 938 0050 0C000000 		.4byte	.LEFDE8-.LASFDE8
 939              	.LASFDE8:
 940 0054 00000000 		.4byte	.Lframe0
 941 0058 D8000000 		.4byte	.LFB7
 942 005c 2C000000 		.4byte	.LFE7-.LFB7
 943              		.align	2
 944              	.LEFDE8:
 945              	.LSFDE10:
 946 0060 0C000000 		.4byte	.LEFDE10-.LASFDE10
 947              	.LASFDE10:
 948 0064 00000000 		.4byte	.Lframe0
ARM GAS  /cygdrive/c/Users/Anders/AppData/Local/Temp/ccAE1FMP.s 			page 29


 949 0068 04010000 		.4byte	.LFB8
 950 006c 58000000 		.4byte	.LFE8-.LFB8
 951              		.align	2
 952              	.LEFDE10:
 953              	.LSFDE12:
 954 0070 0C000000 		.4byte	.LEFDE12-.LASFDE12
 955              	.LASFDE12:
 956 0074 00000000 		.4byte	.Lframe0
 957 0078 5C010000 		.4byte	.LFB10
 958 007c 2C000000 		.4byte	.LFE10-.LFB10
 959              		.align	2
 960              	.LEFDE12:
 961              	.LSFDE14:
 962 0080 14000000 		.4byte	.LEFDE14-.LASFDE14
 963              	.LASFDE14:
 964 0084 00000000 		.4byte	.Lframe0
 965 0088 88010000 		.4byte	.LFB11
 966 008c 2E000000 		.4byte	.LFE11-.LFB11
 967 0090 42       		.byte	0x4
 968              		.4byte	.LCFI0-.LFB11
 969 0091 0E       		.byte	0xe
 970 0092 08       		.uleb128 0x8
 971 0093 84       		.byte	0x84
 972 0094 02       		.uleb128 0x2
 973 0095 8E       		.byte	0x8e
 974 0096 01       		.uleb128 0x1
 975 0097 00       		.align	2
 976              	.LEFDE14:
 977              	.LSFDE16:
 978 0098 1C000000 		.4byte	.LEFDE16-.LASFDE16
 979              	.LASFDE16:
 980 009c 00000000 		.4byte	.Lframe0
 981 00a0 B8010000 		.4byte	.LFB12
 982 00a4 58000000 		.4byte	.LFE12-.LFB12
 983 00a8 42       		.byte	0x4
 984              		.4byte	.LCFI1-.LFB12
 985 00a9 0E       		.byte	0xe
 986 00aa 14       		.uleb128 0x14
 987 00ab 84       		.byte	0x84
 988 00ac 05       		.uleb128 0x5
 989 00ad 85       		.byte	0x85
 990 00ae 04       		.uleb128 0x4
 991 00af 86       		.byte	0x86
 992 00b0 03       		.uleb128 0x3
 993 00b1 87       		.byte	0x87
 994 00b2 02       		.uleb128 0x2
 995 00b3 8E       		.byte	0x8e
 996 00b4 01       		.uleb128 0x1
 997 00b5 000000   		.align	2
 998              	.LEFDE16:
 999              	.LSFDE18:
 1000 00b8 0C000000 		.4byte	.LEFDE18-.LASFDE18
 1001              	.LASFDE18:
 1002 00bc 00000000 		.4byte	.Lframe0
 1003 00c0 10020000 		.4byte	.LFB5
 1004 00c4 4C000000 		.4byte	.LFE5-.LFB5
 1005              		.align	2
ARM GAS  /cygdrive/c/Users/Anders/AppData/Local/Temp/ccAE1FMP.s 			page 30


 1006              	.LEFDE18:
 1007              	.LSFDE20:
 1008 00c8 1C000000 		.4byte	.LEFDE20-.LASFDE20
 1009              	.LASFDE20:
 1010 00cc 00000000 		.4byte	.Lframe0
 1011 00d0 5C020000 		.4byte	.LFB13
 1012 00d4 A0000000 		.4byte	.LFE13-.LFB13
 1013 00d8 42       		.byte	0x4
 1014              		.4byte	.LCFI2-.LFB13
 1015 00d9 0E       		.byte	0xe
 1016 00da 14       		.uleb128 0x14
 1017 00db 84       		.byte	0x84
 1018 00dc 05       		.uleb128 0x5
 1019 00dd 85       		.byte	0x85
 1020 00de 04       		.uleb128 0x4
 1021 00df 86       		.byte	0x86
 1022 00e0 03       		.uleb128 0x3
 1023 00e1 87       		.byte	0x87
 1024 00e2 02       		.uleb128 0x2
 1025 00e3 8E       		.byte	0x8e
 1026 00e4 01       		.uleb128 0x1
 1027 00e5 000000   		.align	2
 1028              	.LEFDE20:
 1029              	.LSFDE22:
 1030 00e8 1C000000 		.4byte	.LEFDE22-.LASFDE22
 1031              	.LASFDE22:
 1032 00ec 00000000 		.4byte	.Lframe0
 1033 00f0 FC020000 		.4byte	.LFB9
 1034 00f4 A0000000 		.4byte	.LFE9-.LFB9
 1035 00f8 42       		.byte	0x4
 1036              		.4byte	.LCFI3-.LFB9
 1037 00f9 0E       		.byte	0xe
 1038 00fa 14       		.uleb128 0x14
 1039 00fb 84       		.byte	0x84
 1040 00fc 05       		.uleb128 0x5
 1041 00fd 85       		.byte	0x85
 1042 00fe 04       		.uleb128 0x4
 1043 00ff 86       		.byte	0x86
 1044 0100 03       		.uleb128 0x3
 1045 0101 87       		.byte	0x87
 1046 0102 02       		.uleb128 0x2
 1047 0103 8E       		.byte	0x8e
 1048 0104 01       		.uleb128 0x1
 1049 0105 000000   		.align	2
 1050              	.LEFDE22:
 1051              		.text
 1052              	.Letext0:
 1053              		.section	.debug_loc,"",%progbits
 1054              	.Ldebug_loc0:
 1055              	.LLST3:
 1056 0000 8E000000 		.4byte	.LVL1-.Ltext0
 1057 0004 90000000 		.4byte	.LVL2-.Ltext0
 1058 0008 0100     		.2byte	0x1
 1059 000a 50       		.byte	0x50
 1060 000b 96000000 		.4byte	.LVL5-.Ltext0
 1061 000f 9A000000 		.4byte	.LVL7-.Ltext0
 1062 0013 0100     		.2byte	0x1
ARM GAS  /cygdrive/c/Users/Anders/AppData/Local/Temp/ccAE1FMP.s 			page 31


 1063 0015 50       		.byte	0x50
 1064 0016 00000000 		.4byte	0x0
 1065 001a 00000000 		.4byte	0x0
 1066              	.LLST4:
 1067 001e 84000000 		.4byte	.LVL0-.Ltext0
 1068 0022 92000000 		.4byte	.LVL3-.Ltext0
 1069 0026 0100     		.2byte	0x1
 1070 0028 53       		.byte	0x53
 1071 0029 94000000 		.4byte	.LVL4-.Ltext0
 1072 002d 98000000 		.4byte	.LVL6-.Ltext0
 1073 0031 0100     		.2byte	0x1
 1074 0033 53       		.byte	0x53
 1075 0034 00000000 		.4byte	0x0
 1076 0038 00000000 		.4byte	0x0
 1077              	.LLST7:
 1078 003c D8000000 		.4byte	.LVL8-.Ltext0
 1079 0040 DE000000 		.4byte	.LVL9-.Ltext0
 1080 0044 0100     		.2byte	0x1
 1081 0046 50       		.byte	0x50
 1082 0047 E2000000 		.4byte	.LVL10-.Ltext0
 1083 004b E8000000 		.4byte	.LVL11-.Ltext0
 1084 004f 0100     		.2byte	0x1
 1085 0051 50       		.byte	0x50
 1086 0052 EA000000 		.4byte	.LVL12-.Ltext0
 1087 0056 F4000000 		.4byte	.LVL13-.Ltext0
 1088 005a 0100     		.2byte	0x1
 1089 005c 50       		.byte	0x50
 1090 005d 00000000 		.4byte	0x0
 1091 0061 00000000 		.4byte	0x0
 1092              	.LLST8:
 1093 0065 E8000000 		.4byte	.LVL11-.Ltext0
 1094 0069 EA000000 		.4byte	.LVL12-.Ltext0
 1095 006d 0100     		.2byte	0x1
 1096 006f 50       		.byte	0x50
 1097 0070 F4000000 		.4byte	.LVL13-.Ltext0
 1098 0074 F6000000 		.4byte	.LVL14-.Ltext0
 1099 0078 0100     		.2byte	0x1
 1100 007a 50       		.byte	0x50
 1101 007b 00000000 		.4byte	0x0
 1102 007f 00000000 		.4byte	0x0
 1103              	.LLST10:
 1104 0083 04010000 		.4byte	.LVL15-.Ltext0
 1105 0087 06010000 		.4byte	.LVL16-.Ltext0
 1106 008b 0100     		.2byte	0x1
 1107 008d 50       		.byte	0x50
 1108 008e 08010000 		.4byte	.LVL17-.Ltext0
 1109 0092 40010000 		.4byte	.LVL20-.Ltext0
 1110 0096 0100     		.2byte	0x1
 1111 0098 50       		.byte	0x50
 1112 0099 42010000 		.4byte	.LVL21-.Ltext0
 1113 009d 4A010000 		.4byte	.LVL22-.Ltext0
 1114 00a1 0100     		.2byte	0x1
 1115 00a3 50       		.byte	0x50
 1116 00a4 4A010000 		.4byte	.LVL22-.Ltext0
 1117 00a8 4C010000 		.4byte	.LVL23-.Ltext0
 1118 00ac 0100     		.2byte	0x1
 1119 00ae 50       		.byte	0x50
ARM GAS  /cygdrive/c/Users/Anders/AppData/Local/Temp/ccAE1FMP.s 			page 32


 1120 00af 00000000 		.4byte	0x0
 1121 00b3 00000000 		.4byte	0x0
 1122              	.LLST11:
 1123 00b7 04010000 		.4byte	.LVL15-.Ltext0
 1124 00bb 0E010000 		.4byte	.LVL18-.Ltext0
 1125 00bf 0100     		.2byte	0x1
 1126 00c1 51       		.byte	0x51
 1127 00c2 22010000 		.4byte	.LVL19-.Ltext0
 1128 00c6 5C010000 		.4byte	.LFE8-.Ltext0
 1129 00ca 0100     		.2byte	0x1
 1130 00cc 51       		.byte	0x51
 1131 00cd 00000000 		.4byte	0x0
 1132 00d1 00000000 		.4byte	0x0
 1133              	.LLST12:
 1134 00d5 40010000 		.4byte	.LVL20-.Ltext0
 1135 00d9 42010000 		.4byte	.LVL21-.Ltext0
 1136 00dd 0100     		.2byte	0x1
 1137 00df 50       		.byte	0x50
 1138 00e0 4A010000 		.4byte	.LVL22-.Ltext0
 1139 00e4 4C010000 		.4byte	.LVL23-.Ltext0
 1140 00e8 0100     		.2byte	0x1
 1141 00ea 50       		.byte	0x50
 1142 00eb 00000000 		.4byte	0x0
 1143 00ef 00000000 		.4byte	0x0
 1144              	.LLST14:
 1145 00f3 5C010000 		.4byte	.LVL24-.Ltext0
 1146 00f7 5E010000 		.4byte	.LVL25-.Ltext0
 1147 00fb 0100     		.2byte	0x1
 1148 00fd 53       		.byte	0x53
 1149 00fe 6C010000 		.4byte	.LVL26-.Ltext0
 1150 0102 88010000 		.4byte	.LFE10-.Ltext0
 1151 0106 0100     		.2byte	0x1
 1152 0108 53       		.byte	0x53
 1153 0109 00000000 		.4byte	0x0
 1154 010d 00000000 		.4byte	0x0
 1155              	.LLST15:
 1156 0111 88010000 		.4byte	.LFB11-.Ltext0
 1157 0115 8A010000 		.4byte	.LCFI0-.Ltext0
 1158 0119 0100     		.2byte	0x1
 1159 011b 5D       		.byte	0x5d
 1160 011c 8A010000 		.4byte	.LCFI0-.Ltext0
 1161 0120 B6010000 		.4byte	.LFE11-.Ltext0
 1162 0124 0200     		.2byte	0x2
 1163 0126 7D       		.byte	0x7d
 1164 0127 08       		.sleb128 8
 1165 0128 00000000 		.4byte	0x0
 1166 012c 00000000 		.4byte	0x0
 1167              	.LLST16:
 1168 0130 8A010000 		.4byte	.LVL27-.Ltext0
 1169 0134 8C010000 		.4byte	.LVL28-.Ltext0
 1170 0138 0100     		.2byte	0x1
 1171 013a 50       		.byte	0x50
 1172 013b 00000000 		.4byte	0x0
 1173 013f 00000000 		.4byte	0x0
 1174              	.LLST17:
 1175 0143 98010000 		.4byte	.LVL29-.Ltext0
 1176 0147 A8010000 		.4byte	.LVL30-.Ltext0
ARM GAS  /cygdrive/c/Users/Anders/AppData/Local/Temp/ccAE1FMP.s 			page 33


 1177 014b 0100     		.2byte	0x1
 1178 014d 50       		.byte	0x50
 1179 014e AC010000 		.4byte	.LVL31-.Ltext0
 1180 0152 AE010000 		.4byte	.LVL32-.Ltext0
 1181 0156 0100     		.2byte	0x1
 1182 0158 50       		.byte	0x50
 1183 0159 00000000 		.4byte	0x0
 1184 015d 00000000 		.4byte	0x0
 1185              	.LLST18:
 1186 0161 B8010000 		.4byte	.LFB12-.Ltext0
 1187 0165 BA010000 		.4byte	.LCFI1-.Ltext0
 1188 0169 0100     		.2byte	0x1
 1189 016b 5D       		.byte	0x5d
 1190 016c BA010000 		.4byte	.LCFI1-.Ltext0
 1191 0170 10020000 		.4byte	.LFE12-.Ltext0
 1192 0174 0200     		.2byte	0x2
 1193 0176 7D       		.byte	0x7d
 1194 0177 14       		.sleb128 20
 1195 0178 00000000 		.4byte	0x0
 1196 017c 00000000 		.4byte	0x0
 1197              	.LLST19:
 1198 0180 BA010000 		.4byte	.LVL33-.Ltext0
 1199 0184 BC010000 		.4byte	.LVL34-.Ltext0
 1200 0188 0100     		.2byte	0x1
 1201 018a 50       		.byte	0x50
 1202 018b C2010000 		.4byte	.LVL36-.Ltext0
 1203 018f E4010000 		.4byte	.LVL40-.Ltext0
 1204 0193 0100     		.2byte	0x1
 1205 0195 54       		.byte	0x54
 1206 0196 02020000 		.4byte	.LVL41-.Ltext0
 1207 019a 0A020000 		.4byte	.LVL42-.Ltext0
 1208 019e 0100     		.2byte	0x1
 1209 01a0 54       		.byte	0x54
 1210 01a1 00000000 		.4byte	0x0
 1211 01a5 00000000 		.4byte	0x0
 1212              	.LLST20:
 1213 01a9 BA010000 		.4byte	.LVL33-.Ltext0
 1214 01ad C8010000 		.4byte	.LVL38-.Ltext0
 1215 01b1 0100     		.2byte	0x1
 1216 01b3 51       		.byte	0x51
 1217 01b4 C8010000 		.4byte	.LVL38-.Ltext0
 1218 01b8 0A020000 		.4byte	.LVL45-.Ltext0
 1219 01bc 0100     		.2byte	0x1
 1220 01be 57       		.byte	0x57
 1221 01bf 00000000 		.4byte	0x0
 1222 01c3 00000000 		.4byte	0x0
 1223              	.LLST21:
 1224 01c7 BA010000 		.4byte	.LVL33-.Ltext0
 1225 01cb BE010000 		.4byte	.LVL35-.Ltext0
 1226 01cf 0100     		.2byte	0x1
 1227 01d1 52       		.byte	0x52
 1228 01d2 C4010000 		.4byte	.LVL37-.Ltext0
 1229 01d6 0A020000 		.4byte	.LVL44-.Ltext0
 1230 01da 0100     		.2byte	0x1
 1231 01dc 56       		.byte	0x56
 1232 01dd 00000000 		.4byte	0x0
 1233 01e1 00000000 		.4byte	0x0
ARM GAS  /cygdrive/c/Users/Anders/AppData/Local/Temp/ccAE1FMP.s 			page 34


 1234              	.LLST22:
 1235 01e5 CC010000 		.4byte	.LVL39-.Ltext0
 1236 01e9 0A020000 		.4byte	.LVL43-.Ltext0
 1237 01ed 0100     		.2byte	0x1
 1238 01ef 55       		.byte	0x55
 1239 01f0 00000000 		.4byte	0x0
 1240 01f4 00000000 		.4byte	0x0
 1241              	.LLST24:
 1242 01f8 40020000 		.4byte	.LVL49-.Ltext0
 1243 01fc 42020000 		.4byte	.LVL50-.Ltext0
 1244 0200 0100     		.2byte	0x1
 1245 0202 50       		.byte	0x50
 1246 0203 44020000 		.4byte	.LVL51-.Ltext0
 1247 0207 48020000 		.4byte	.LVL53-.Ltext0
 1248 020b 0100     		.2byte	0x1
 1249 020d 50       		.byte	0x50
 1250 020e 00000000 		.4byte	0x0
 1251 0212 00000000 		.4byte	0x0
 1252              	.LLST25:
 1253 0216 20020000 		.4byte	.LVL46-.Ltext0
 1254 021a 22020000 		.4byte	.LVL47-.Ltext0
 1255 021e 0100     		.2byte	0x1
 1256 0220 53       		.byte	0x53
 1257 0221 36020000 		.4byte	.LVL48-.Ltext0
 1258 0225 46020000 		.4byte	.LVL52-.Ltext0
 1259 0229 0100     		.2byte	0x1
 1260 022b 53       		.byte	0x53
 1261 022c 00000000 		.4byte	0x0
 1262 0230 00000000 		.4byte	0x0
 1263              	.LLST26:
 1264 0234 5C020000 		.4byte	.LFB13-.Ltext0
 1265 0238 5E020000 		.4byte	.LCFI2-.Ltext0
 1266 023c 0100     		.2byte	0x1
 1267 023e 5D       		.byte	0x5d
 1268 023f 5E020000 		.4byte	.LCFI2-.Ltext0
 1269 0243 FC020000 		.4byte	.LFE13-.Ltext0
 1270 0247 0200     		.2byte	0x2
 1271 0249 7D       		.byte	0x7d
 1272 024a 14       		.sleb128 20
 1273 024b 00000000 		.4byte	0x0
 1274 024f 00000000 		.4byte	0x0
 1275              	.LLST27:
 1276 0253 5E020000 		.4byte	.LVL54-.Ltext0
 1277 0257 60020000 		.4byte	.LVL55-.Ltext0
 1278 025b 0100     		.2byte	0x1
 1279 025d 50       		.byte	0x50
 1280 025e 66020000 		.4byte	.LVL57-.Ltext0
 1281 0262 92020000 		.4byte	.LVL61-.Ltext0
 1282 0266 0100     		.2byte	0x1
 1283 0268 56       		.byte	0x56
 1284 0269 E4020000 		.4byte	.LVL68-.Ltext0
 1285 026d EC020000 		.4byte	.LVL71-.Ltext0
 1286 0271 0100     		.2byte	0x1
 1287 0273 56       		.byte	0x56
 1288 0274 00000000 		.4byte	0x0
 1289 0278 00000000 		.4byte	0x0
 1290              	.LLST28:
ARM GAS  /cygdrive/c/Users/Anders/AppData/Local/Temp/ccAE1FMP.s 			page 35


 1291 027c 5E020000 		.4byte	.LVL54-.Ltext0
 1292 0280 6C020000 		.4byte	.LVL59-.Ltext0
 1293 0284 0100     		.2byte	0x1
 1294 0286 51       		.byte	0x51
 1295 0287 6C020000 		.4byte	.LVL59-.Ltext0
 1296 028b EC020000 		.4byte	.LVL70-.Ltext0
 1297 028f 0100     		.2byte	0x1
 1298 0291 55       		.byte	0x55
 1299 0292 00000000 		.4byte	0x0
 1300 0296 00000000 		.4byte	0x0
 1301              	.LLST29:
 1302 029a 5E020000 		.4byte	.LVL54-.Ltext0
 1303 029e 62020000 		.4byte	.LVL56-.Ltext0
 1304 02a2 0100     		.2byte	0x1
 1305 02a4 52       		.byte	0x52
 1306 02a5 68020000 		.4byte	.LVL58-.Ltext0
 1307 02a9 EC020000 		.4byte	.LVL72-.Ltext0
 1308 02ad 0100     		.2byte	0x1
 1309 02af 57       		.byte	0x57
 1310 02b0 00000000 		.4byte	0x0
 1311 02b4 00000000 		.4byte	0x0
 1312              	.LLST30:
 1313 02b8 70020000 		.4byte	.LVL60-.Ltext0
 1314 02bc EC020000 		.4byte	.LVL69-.Ltext0
 1315 02c0 0100     		.2byte	0x1
 1316 02c2 54       		.byte	0x54
 1317 02c3 00000000 		.4byte	0x0
 1318 02c7 00000000 		.4byte	0x0
 1319              	.LLST31:
 1320 02cb 92020000 		.4byte	.LVL61-.Ltext0
 1321 02cf EC020000 		.4byte	.LVL71-.Ltext0
 1322 02d3 0100     		.2byte	0x1
 1323 02d5 56       		.byte	0x56
 1324 02d6 00000000 		.4byte	0x0
 1325 02da 00000000 		.4byte	0x0
 1326              	.LLST32:
 1327 02de 94020000 		.4byte	.LVL62-.Ltext0
 1328 02e2 96020000 		.4byte	.LVL63-.Ltext0
 1329 02e6 0100     		.2byte	0x1
 1330 02e8 53       		.byte	0x53
 1331 02e9 A4020000 		.4byte	.LVL64-.Ltext0
 1332 02ed BC020000 		.4byte	.LVL65-.Ltext0
 1333 02f1 0100     		.2byte	0x1
 1334 02f3 53       		.byte	0x53
 1335 02f4 D0020000 		.4byte	.LVL66-.Ltext0
 1336 02f8 D6020000 		.4byte	.LVL67-.Ltext0
 1337 02fc 0100     		.2byte	0x1
 1338 02fe 53       		.byte	0x53
 1339 02ff 00000000 		.4byte	0x0
 1340 0303 00000000 		.4byte	0x0
 1341              	.LLST33:
 1342 0307 FC020000 		.4byte	.LFB9-.Ltext0
 1343 030b FE020000 		.4byte	.LCFI3-.Ltext0
 1344 030f 0100     		.2byte	0x1
 1345 0311 5D       		.byte	0x5d
 1346 0312 FE020000 		.4byte	.LCFI3-.Ltext0
 1347 0316 9C030000 		.4byte	.LFE9-.Ltext0
ARM GAS  /cygdrive/c/Users/Anders/AppData/Local/Temp/ccAE1FMP.s 			page 36


 1348 031a 0200     		.2byte	0x2
 1349 031c 7D       		.byte	0x7d
 1350 031d 14       		.sleb128 20
 1351 031e 00000000 		.4byte	0x0
 1352 0322 00000000 		.4byte	0x0
 1353              	.LLST34:
 1354 0326 FE020000 		.4byte	.LVL73-.Ltext0
 1355 032a 00030000 		.4byte	.LVL74-.Ltext0
 1356 032e 0100     		.2byte	0x1
 1357 0330 50       		.byte	0x50
 1358 0331 06030000 		.4byte	.LVL76-.Ltext0
 1359 0335 30030000 		.4byte	.LVL82-.Ltext0
 1360 0339 0100     		.2byte	0x1
 1361 033b 56       		.byte	0x56
 1362 033c 6C030000 		.4byte	.LVL89-.Ltext0
 1363 0340 8E030000 		.4byte	.LVL95-.Ltext0
 1364 0344 0100     		.2byte	0x1
 1365 0346 56       		.byte	0x56
 1366 0347 00000000 		.4byte	0x0
 1367 034b 00000000 		.4byte	0x0
 1368              	.LLST35:
 1369 034f FE020000 		.4byte	.LVL73-.Ltext0
 1370 0353 0C030000 		.4byte	.LVL78-.Ltext0
 1371 0357 0100     		.2byte	0x1
 1372 0359 51       		.byte	0x51
 1373 035a 0C030000 		.4byte	.LVL78-.Ltext0
 1374 035e 8E030000 		.4byte	.LVL94-.Ltext0
 1375 0362 0100     		.2byte	0x1
 1376 0364 55       		.byte	0x55
 1377 0365 00000000 		.4byte	0x0
 1378 0369 00000000 		.4byte	0x0
 1379              	.LLST36:
 1380 036d FE020000 		.4byte	.LVL73-.Ltext0
 1381 0371 02030000 		.4byte	.LVL75-.Ltext0
 1382 0375 0100     		.2byte	0x1
 1383 0377 52       		.byte	0x52
 1384 0378 08030000 		.4byte	.LVL77-.Ltext0
 1385 037c 8E030000 		.4byte	.LVL96-.Ltext0
 1386 0380 0100     		.2byte	0x1
 1387 0382 57       		.byte	0x57
 1388 0383 00000000 		.4byte	0x0
 1389 0387 00000000 		.4byte	0x0
 1390              	.LLST37:
 1391 038b 10030000 		.4byte	.LVL79-.Ltext0
 1392 038f 20030000 		.4byte	.LVL80-.Ltext0
 1393 0393 0100     		.2byte	0x1
 1394 0395 54       		.byte	0x54
 1395 0396 20030000 		.4byte	.LVL80-.Ltext0
 1396 039a 28030000 		.4byte	.LVL81-.Ltext0
 1397 039e 0100     		.2byte	0x1
 1398 03a0 50       		.byte	0x50
 1399 03a1 28030000 		.4byte	.LVL81-.Ltext0
 1400 03a5 8E030000 		.4byte	.LVL93-.Ltext0
 1401 03a9 0100     		.2byte	0x1
 1402 03ab 54       		.byte	0x54
 1403 03ac 00000000 		.4byte	0x0
 1404 03b0 00000000 		.4byte	0x0
ARM GAS  /cygdrive/c/Users/Anders/AppData/Local/Temp/ccAE1FMP.s 			page 37


 1405              	.LLST38:
 1406 03b4 30030000 		.4byte	.LVL82-.Ltext0
 1407 03b8 8E030000 		.4byte	.LVL95-.Ltext0
 1408 03bc 0100     		.2byte	0x1
 1409 03be 56       		.byte	0x56
 1410 03bf 00000000 		.4byte	0x0
 1411 03c3 00000000 		.4byte	0x0
 1412              	.LLST39:
 1413 03c7 32030000 		.4byte	.LVL83-.Ltext0
 1414 03cb 34030000 		.4byte	.LVL84-.Ltext0
 1415 03cf 0100     		.2byte	0x1
 1416 03d1 53       		.byte	0x53
 1417 03d2 42030000 		.4byte	.LVL85-.Ltext0
 1418 03d6 4C030000 		.4byte	.LVL86-.Ltext0
 1419 03da 0100     		.2byte	0x1
 1420 03dc 53       		.byte	0x53
 1421 03dd 58030000 		.4byte	.LVL87-.Ltext0
 1422 03e1 5E030000 		.4byte	.LVL88-.Ltext0
 1423 03e5 0100     		.2byte	0x1
 1424 03e7 53       		.byte	0x53
 1425 03e8 00000000 		.4byte	0x0
 1426 03ec 00000000 		.4byte	0x0
 1427              	.LLST40:
 1428 03f0 6C030000 		.4byte	.LVL89-.Ltext0
 1429 03f4 6E030000 		.4byte	.LVL90-.Ltext0
 1430 03f8 0100     		.2byte	0x1
 1431 03fa 53       		.byte	0x53
 1432 03fb 7C030000 		.4byte	.LVL91-.Ltext0
 1433 03ff 8A030000 		.4byte	.LVL92-.Ltext0
 1434 0403 0100     		.2byte	0x1
 1435 0405 53       		.byte	0x53
 1436 0406 00000000 		.4byte	0x0
 1437 040a 00000000 		.4byte	0x0
 1438              		.file 2 "./startup/general.h"
 1439              		.section	.debug_info
 1440 0000 65040000 		.4byte	0x465
 1441 0004 0200     		.2byte	0x2
 1442 0006 00000000 		.4byte	.Ldebug_abbrev0
 1443 000a 04       		.byte	0x4
 1444 000b 01       		.uleb128 0x1
 1445 000c 62000000 		.4byte	.LASF21
 1446 0010 01       		.byte	0x1
 1447 0011 7F010000 		.4byte	.LASF22
 1448 0015 F3000000 		.4byte	.LASF23
 1449 0019 00000000 		.4byte	.Ltext0
 1450 001d 9C030000 		.4byte	.Letext0
 1451 0021 00000000 		.4byte	.Ldebug_line0
 1452 0025 02       		.uleb128 0x2
 1453 0026 74553800 		.ascii	"tU8\000"
 1454 002a 02       		.byte	0x2
 1455 002b 47       		.byte	0x47
 1456 002c 30000000 		.4byte	0x30
 1457 0030 03       		.uleb128 0x3
 1458 0031 01       		.byte	0x1
 1459 0032 08       		.byte	0x8
 1460 0033 90000000 		.4byte	.LASF1
 1461 0037 04       		.uleb128 0x4
ARM GAS  /cygdrive/c/Users/Anders/AppData/Local/Temp/ccAE1FMP.s 			page 38


 1462 0038 85010000 		.4byte	.LASF0
 1463 003c 02       		.byte	0x2
 1464 003d 48       		.byte	0x48
 1465 003e 42000000 		.4byte	0x42
 1466 0042 03       		.uleb128 0x3
 1467 0043 02       		.byte	0x2
 1468 0044 07       		.byte	0x7
 1469 0045 CC000000 		.4byte	.LASF2
 1470 0049 03       		.uleb128 0x3
 1471 004a 04       		.byte	0x4
 1472 004b 07       		.byte	0x7
 1473 004c 1A000000 		.4byte	.LASF3
 1474 0050 02       		.uleb128 0x2
 1475 0051 74533800 		.ascii	"tS8\000"
 1476 0055 02       		.byte	0x2
 1477 0056 4A       		.byte	0x4a
 1478 0057 5B000000 		.4byte	0x5b
 1479 005b 03       		.uleb128 0x3
 1480 005c 01       		.byte	0x1
 1481 005d 06       		.byte	0x6
 1482 005e DF000000 		.4byte	.LASF4
 1483 0062 03       		.uleb128 0x3
 1484 0063 02       		.byte	0x2
 1485 0064 05       		.byte	0x5
 1486 0065 8A010000 		.4byte	.LASF5
 1487 0069 05       		.uleb128 0x5
 1488 006a 04       		.byte	0x4
 1489 006b 05       		.byte	0x5
 1490 006c 696E7400 		.ascii	"int\000"
 1491 0070 06       		.uleb128 0x6
 1492 0071 01       		.byte	0x1
 1493 0072 0B000000 		.4byte	.LASF24
 1494 0076 01       		.byte	0x1
 1495 0077 4C       		.byte	0x4c
 1496 0078 01       		.byte	0x1
 1497 0079 25000000 		.4byte	0x25
 1498 007d 01       		.byte	0x1
 1499 007e 8E000000 		.4byte	0x8e
 1500 0082 07       		.uleb128 0x7
 1501 0083 53000000 		.4byte	.LASF6
 1502 0087 01       		.byte	0x1
 1503 0088 4D       		.byte	0x4d
 1504 0089 25000000 		.4byte	0x25
 1505 008d 00       		.byte	0x0
 1506 008e 08       		.uleb128 0x8
 1507 008f 70000000 		.4byte	0x70
 1508 0093 00000000 		.4byte	.LFB2
 1509 0097 18000000 		.4byte	.LFE2
 1510 009b 01       		.byte	0x1
 1511 009c 5D       		.byte	0x5d
 1512 009d A9000000 		.4byte	0xa9
 1513 00a1 09       		.uleb128 0x9
 1514 00a2 82000000 		.4byte	0x82
 1515 00a6 01       		.byte	0x1
 1516 00a7 50       		.byte	0x50
 1517 00a8 00       		.byte	0x0
 1518 00a9 0A       		.uleb128 0xa
ARM GAS  /cygdrive/c/Users/Anders/AppData/Local/Temp/ccAE1FMP.s 			page 39


 1519 00aa 01       		.byte	0x1
 1520 00ab 5A000000 		.4byte	.LASF25
 1521 00af 01       		.byte	0x1
 1522 00b0 65       		.byte	0x65
 1523 00b1 01       		.byte	0x1
 1524 00b2 18000000 		.4byte	.LFB3
 1525 00b6 64000000 		.4byte	.LFE3
 1526 00ba 01       		.byte	0x1
 1527 00bb 5D       		.byte	0x5d
 1528 00bc 0B       		.uleb128 0xb
 1529 00bd 01       		.byte	0x1
 1530 00be 27000000 		.4byte	.LASF7
 1531 00c2 01       		.byte	0x1
 1532 00c3 81       		.byte	0x81
 1533 00c4 01       		.byte	0x1
 1534 00c5 50000000 		.4byte	0x50
 1535 00c9 64000000 		.4byte	.LFB4
 1536 00cd B0000000 		.4byte	.LFE4
 1537 00d1 01       		.byte	0x1
 1538 00d2 5D       		.byte	0x5d
 1539 00d3 15010000 		.4byte	0x115
 1540 00d7 07       		.uleb128 0x7
 1541 00d8 53000000 		.4byte	.LASF6
 1542 00dc 01       		.byte	0x1
 1543 00dd 82       		.byte	0x82
 1544 00de 25000000 		.4byte	0x25
 1545 00e2 0C       		.uleb128 0xc
 1546 00e3 40000000 		.4byte	.LASF9
 1547 00e7 01       		.byte	0x1
 1548 00e8 83       		.byte	0x83
 1549 00e9 50000000 		.4byte	0x50
 1550 00ed 00000000 		.4byte	.LLST3
 1551 00f1 0D       		.uleb128 0xd
 1552 00f2 70000000 		.4byte	0x70
 1553 00f6 72000000 		.4byte	.LBB6
 1554 00fa 80000000 		.4byte	.LBE6
 1555 00fe 01       		.byte	0x1
 1556 00ff 8B       		.byte	0x8b
 1557 0100 0E       		.uleb128 0xe
 1558 0101 72000000 		.4byte	.LBB7
 1559 0105 80000000 		.4byte	.LBE7
 1560 0109 0F       		.uleb128 0xf
 1561 010a 82000000 		.4byte	0x82
 1562 010e 1E000000 		.4byte	.LLST4
 1563 0112 00       		.byte	0x0
 1564 0113 00       		.byte	0x0
 1565 0114 00       		.byte	0x0
 1566 0115 10       		.uleb128 0x10
 1567 0116 01       		.byte	0x1
 1568 0117 6E000000 		.4byte	.LASF26
 1569 011b 01       		.byte	0x1
 1570 011c EE       		.byte	0xee
 1571 011d 01       		.byte	0x1
 1572 011e 50000000 		.4byte	0x50
 1573 0122 B0000000 		.4byte	.LFB6
 1574 0126 D8000000 		.4byte	.LFE6
 1575 012a 01       		.byte	0x1
ARM GAS  /cygdrive/c/Users/Anders/AppData/Local/Temp/ccAE1FMP.s 			page 40


 1576 012b 5D       		.byte	0x5d
 1577 012c 11       		.uleb128 0x11
 1578 012d 01       		.byte	0x1
 1579 012e 48000000 		.4byte	.LASF8
 1580 0132 01       		.byte	0x1
 1581 0133 0B01     		.2byte	0x10b
 1582 0135 01       		.byte	0x1
 1583 0136 50000000 		.4byte	0x50
 1584 013a D8000000 		.4byte	.LFB7
 1585 013e 04010000 		.4byte	.LFE7
 1586 0142 01       		.byte	0x1
 1587 0143 5D       		.byte	0x5d
 1588 0144 69010000 		.4byte	0x169
 1589 0148 12       		.uleb128 0x12
 1590 0149 AF000000 		.4byte	.LASF11
 1591 014d 01       		.byte	0x1
 1592 014e 0A01     		.2byte	0x10a
 1593 0150 25000000 		.4byte	0x25
 1594 0154 3C000000 		.4byte	.LLST7
 1595 0158 13       		.uleb128 0x13
 1596 0159 40000000 		.4byte	.LASF9
 1597 015d 01       		.byte	0x1
 1598 015e 0C01     		.2byte	0x10c
 1599 0160 50000000 		.4byte	0x50
 1600 0164 65000000 		.4byte	.LLST8
 1601 0168 00       		.byte	0x0
 1602 0169 11       		.uleb128 0x11
 1603 016a 01       		.byte	0x1
 1604 016b 35000000 		.4byte	.LASF10
 1605 016f 01       		.byte	0x1
 1606 0170 3401     		.2byte	0x134
 1607 0172 01       		.byte	0x1
 1608 0173 50000000 		.4byte	0x50
 1609 0177 04010000 		.4byte	.LFB8
 1610 017b 5C010000 		.4byte	.LFE8
 1611 017f 01       		.byte	0x1
 1612 0180 5D       		.byte	0x5d
 1613 0181 B6010000 		.4byte	0x1b6
 1614 0185 12       		.uleb128 0x12
 1615 0186 30000000 		.4byte	.LASF12
 1616 018a 01       		.byte	0x1
 1617 018b 3201     		.2byte	0x132
 1618 018d 25000000 		.4byte	0x25
 1619 0191 83000000 		.4byte	.LLST10
 1620 0195 12       		.uleb128 0x12
 1621 0196 94010000 		.4byte	.LASF13
 1622 019a 01       		.byte	0x1
 1623 019b 3301     		.2byte	0x133
 1624 019d B6010000 		.4byte	0x1b6
 1625 01a1 B7000000 		.4byte	.LLST11
 1626 01a5 13       		.uleb128 0x13
 1627 01a6 40000000 		.4byte	.LASF9
 1628 01aa 01       		.byte	0x1
 1629 01ab 3501     		.2byte	0x135
 1630 01ad 50000000 		.4byte	0x50
 1631 01b1 D5000000 		.4byte	.LLST12
 1632 01b5 00       		.byte	0x0
ARM GAS  /cygdrive/c/Users/Anders/AppData/Local/Temp/ccAE1FMP.s 			page 41


 1633 01b6 14       		.uleb128 0x14
 1634 01b7 04       		.byte	0x4
 1635 01b8 25000000 		.4byte	0x25
 1636 01bc 11       		.uleb128 0x11
 1637 01bd 01       		.byte	0x1
 1638 01be 7B000000 		.4byte	.LASF14
 1639 01c2 01       		.byte	0x1
 1640 01c3 CE01     		.2byte	0x1ce
 1641 01c5 01       		.byte	0x1
 1642 01c6 50000000 		.4byte	0x50
 1643 01ca 5C010000 		.4byte	.LFB10
 1644 01ce 88010000 		.4byte	.LFE10
 1645 01d2 01       		.byte	0x1
 1646 01d3 5D       		.byte	0x5d
 1647 01d4 09020000 		.4byte	0x209
 1648 01d8 15       		.uleb128 0x15
 1649 01d9 53000000 		.4byte	.LASF6
 1650 01dd 01       		.byte	0x1
 1651 01de CF01     		.2byte	0x1cf
 1652 01e0 25000000 		.4byte	0x25
 1653 01e4 16       		.uleb128 0x16
 1654 01e5 70000000 		.4byte	0x70
 1655 01e9 5C010000 		.4byte	.LBB8
 1656 01ed 68010000 		.4byte	.LBE8
 1657 01f1 01       		.byte	0x1
 1658 01f2 D501     		.2byte	0x1d5
 1659 01f4 0E       		.uleb128 0xe
 1660 01f5 5C010000 		.4byte	.LBB9
 1661 01f9 68010000 		.4byte	.LBE9
 1662 01fd 0F       		.uleb128 0xf
 1663 01fe 82000000 		.4byte	0x82
 1664 0202 F3000000 		.4byte	.LLST14
 1665 0206 00       		.byte	0x0
 1666 0207 00       		.byte	0x0
 1667 0208 00       		.byte	0x0
 1668 0209 17       		.uleb128 0x17
 1669 020a 01       		.byte	0x1
 1670 020b 9E000000 		.4byte	.LASF15
 1671 020f 01       		.byte	0x1
 1672 0210 ED01     		.2byte	0x1ed
 1673 0212 01       		.byte	0x1
 1674 0213 50000000 		.4byte	0x50
 1675 0217 88010000 		.4byte	.LFB11
 1676 021b B6010000 		.4byte	.LFE11
 1677 021f 11010000 		.4byte	.LLST15
 1678 0223 48020000 		.4byte	0x248
 1679 0227 12       		.uleb128 0x12
 1680 0228 AF000000 		.4byte	.LASF11
 1681 022c 01       		.byte	0x1
 1682 022d EC01     		.2byte	0x1ec
 1683 022f 25000000 		.4byte	0x25
 1684 0233 30010000 		.4byte	.LLST16
 1685 0237 13       		.uleb128 0x13
 1686 0238 40000000 		.4byte	.LASF9
 1687 023c 01       		.byte	0x1
 1688 023d EE01     		.2byte	0x1ee
 1689 023f 50000000 		.4byte	0x50
ARM GAS  /cygdrive/c/Users/Anders/AppData/Local/Temp/ccAE1FMP.s 			page 42


 1690 0243 43010000 		.4byte	.LLST17
 1691 0247 00       		.byte	0x0
 1692 0248 17       		.uleb128 0x17
 1693 0249 01       		.byte	0x1
 1694 024a 00000000 		.4byte	.LASF16
 1695 024e 01       		.byte	0x1
 1696 024f 0002     		.2byte	0x200
 1697 0251 01       		.byte	0x1
 1698 0252 50000000 		.4byte	0x50
 1699 0256 B8010000 		.4byte	.LFB12
 1700 025a 10020000 		.4byte	.LFE12
 1701 025e 61010000 		.4byte	.LLST18
 1702 0262 B1020000 		.4byte	0x2b1
 1703 0266 12       		.uleb128 0x12
 1704 0267 76000000 		.4byte	.LASF17
 1705 026b 01       		.byte	0x1
 1706 026c FD01     		.2byte	0x1fd
 1707 026e 25000000 		.4byte	0x25
 1708 0272 80010000 		.4byte	.LLST19
 1709 0276 12       		.uleb128 0x12
 1710 0277 94010000 		.4byte	.LASF13
 1711 027b 01       		.byte	0x1
 1712 027c FE01     		.2byte	0x1fe
 1713 027e B6010000 		.4byte	0x1b6
 1714 0282 A9010000 		.4byte	.LLST20
 1715 0286 18       		.uleb128 0x18
 1716 0287 6C656E00 		.ascii	"len\000"
 1717 028b 01       		.byte	0x1
 1718 028c FF01     		.2byte	0x1ff
 1719 028e 37000000 		.4byte	0x37
 1720 0292 C7010000 		.4byte	.LLST21
 1721 0296 13       		.uleb128 0x13
 1722 0297 40000000 		.4byte	.LASF9
 1723 029b 01       		.byte	0x1
 1724 029c 0102     		.2byte	0x201
 1725 029e 50000000 		.4byte	0x50
 1726 02a2 E5010000 		.4byte	.LLST22
 1727 02a6 19       		.uleb128 0x19
 1728 02a7 6900     		.ascii	"i\000"
 1729 02a9 01       		.byte	0x1
 1730 02aa 0202     		.2byte	0x202
 1731 02ac 25000000 		.4byte	0x25
 1732 02b0 00       		.byte	0x0
 1733 02b1 0B       		.uleb128 0xb
 1734 02b2 01       		.byte	0x1
 1735 02b3 B4000000 		.4byte	.LASF18
 1736 02b7 01       		.byte	0x1
 1737 02b8 B7       		.byte	0xb7
 1738 02b9 01       		.byte	0x1
 1739 02ba 50000000 		.4byte	0x50
 1740 02be 10020000 		.4byte	.LFB5
 1741 02c2 5C020000 		.4byte	.LFE5
 1742 02c6 01       		.byte	0x1
 1743 02c7 5D       		.byte	0x5d
 1744 02c8 0A030000 		.4byte	0x30a
 1745 02cc 07       		.uleb128 0x7
 1746 02cd 53000000 		.4byte	.LASF6
ARM GAS  /cygdrive/c/Users/Anders/AppData/Local/Temp/ccAE1FMP.s 			page 43


 1747 02d1 01       		.byte	0x1
 1748 02d2 B8       		.byte	0xb8
 1749 02d3 25000000 		.4byte	0x25
 1750 02d7 0C       		.uleb128 0xc
 1751 02d8 40000000 		.4byte	.LASF9
 1752 02dc 01       		.byte	0x1
 1753 02dd B9       		.byte	0xb9
 1754 02de 50000000 		.4byte	0x50
 1755 02e2 F8010000 		.4byte	.LLST24
 1756 02e6 0D       		.uleb128 0xd
 1757 02e7 70000000 		.4byte	0x70
 1758 02eb 24020000 		.4byte	.LBB12
 1759 02ef 32020000 		.4byte	.LBE12
 1760 02f3 01       		.byte	0x1
 1761 02f4 C2       		.byte	0xc2
 1762 02f5 0E       		.uleb128 0xe
 1763 02f6 24020000 		.4byte	.LBB13
 1764 02fa 32020000 		.4byte	.LBE13
 1765 02fe 0F       		.uleb128 0xf
 1766 02ff 82000000 		.4byte	0x82
 1767 0303 16020000 		.4byte	.LLST25
 1768 0307 00       		.byte	0x0
 1769 0308 00       		.byte	0x0
 1770 0309 00       		.byte	0x0
 1771 030a 17       		.uleb128 0x17
 1772 030b 01       		.byte	0x1
 1773 030c EB000000 		.4byte	.LASF19
 1774 0310 01       		.byte	0x1
 1775 0311 3802     		.2byte	0x238
 1776 0313 01       		.byte	0x1
 1777 0314 50000000 		.4byte	0x50
 1778 0318 5C020000 		.4byte	.LFB13
 1779 031c FC020000 		.4byte	.LFE13
 1780 0320 34020000 		.4byte	.LLST26
 1781 0324 A7030000 		.4byte	0x3a7
 1782 0328 12       		.uleb128 0x12
 1783 0329 76000000 		.4byte	.LASF17
 1784 032d 01       		.byte	0x1
 1785 032e 3502     		.2byte	0x235
 1786 0330 25000000 		.4byte	0x25
 1787 0334 53020000 		.4byte	.LLST27
 1788 0338 12       		.uleb128 0x12
 1789 0339 8B000000 		.4byte	.LASF20
 1790 033d 01       		.byte	0x1
 1791 033e 3602     		.2byte	0x236
 1792 0340 B6010000 		.4byte	0x1b6
 1793 0344 7C020000 		.4byte	.LLST28
 1794 0348 18       		.uleb128 0x18
 1795 0349 6C656E00 		.ascii	"len\000"
 1796 034d 01       		.byte	0x1
 1797 034e 3702     		.2byte	0x237
 1798 0350 37000000 		.4byte	0x37
 1799 0354 9A020000 		.4byte	.LLST29
 1800 0358 13       		.uleb128 0x13
 1801 0359 40000000 		.4byte	.LASF9
 1802 035d 01       		.byte	0x1
 1803 035e 3902     		.2byte	0x239
ARM GAS  /cygdrive/c/Users/Anders/AppData/Local/Temp/ccAE1FMP.s 			page 44


 1804 0360 50000000 		.4byte	0x50
 1805 0364 B8020000 		.4byte	.LLST30
 1806 0368 15       		.uleb128 0x15
 1807 0369 53000000 		.4byte	.LASF6
 1808 036d 01       		.byte	0x1
 1809 036e 3A02     		.2byte	0x23a
 1810 0370 25000000 		.4byte	0x25
 1811 0374 1A       		.uleb128 0x1a
 1812 0375 6900     		.ascii	"i\000"
 1813 0377 01       		.byte	0x1
 1814 0378 3B02     		.2byte	0x23b
 1815 037a 25000000 		.4byte	0x25
 1816 037e CB020000 		.4byte	.LLST31
 1817 0382 16       		.uleb128 0x16
 1818 0383 70000000 		.4byte	0x70
 1819 0387 94020000 		.4byte	.LBB16
 1820 038b A0020000 		.4byte	.LBE16
 1821 038f 01       		.byte	0x1
 1822 0390 5402     		.2byte	0x254
 1823 0392 0E       		.uleb128 0xe
 1824 0393 94020000 		.4byte	.LBB17
 1825 0397 A0020000 		.4byte	.LBE17
 1826 039b 0F       		.uleb128 0xf
 1827 039c 82000000 		.4byte	0x82
 1828 03a0 DE020000 		.4byte	.LLST32
 1829 03a4 00       		.byte	0x0
 1830 03a5 00       		.byte	0x0
 1831 03a6 00       		.byte	0x0
 1832 03a7 1B       		.uleb128 0x1b
 1833 03a8 01       		.byte	0x1
 1834 03a9 C3000000 		.4byte	.LASF27
 1835 03ad 01       		.byte	0x1
 1836 03ae 6E01     		.2byte	0x16e
 1837 03b0 01       		.byte	0x1
 1838 03b1 50000000 		.4byte	0x50
 1839 03b5 FC020000 		.4byte	.LFB9
 1840 03b9 9C030000 		.4byte	.LFE9
 1841 03bd 07030000 		.4byte	.LLST33
 1842 03c1 12       		.uleb128 0x12
 1843 03c2 76000000 		.4byte	.LASF17
 1844 03c6 01       		.byte	0x1
 1845 03c7 6B01     		.2byte	0x16b
 1846 03c9 25000000 		.4byte	0x25
 1847 03cd 26030000 		.4byte	.LLST34
 1848 03d1 12       		.uleb128 0x12
 1849 03d2 94010000 		.4byte	.LASF13
 1850 03d6 01       		.byte	0x1
 1851 03d7 6C01     		.2byte	0x16c
 1852 03d9 B6010000 		.4byte	0x1b6
 1853 03dd 4F030000 		.4byte	.LLST35
 1854 03e1 18       		.uleb128 0x18
 1855 03e2 6C656E00 		.ascii	"len\000"
 1856 03e6 01       		.byte	0x1
 1857 03e7 6D01     		.2byte	0x16d
 1858 03e9 37000000 		.4byte	0x37
 1859 03ed 6D030000 		.4byte	.LLST36
 1860 03f1 13       		.uleb128 0x13
ARM GAS  /cygdrive/c/Users/Anders/AppData/Local/Temp/ccAE1FMP.s 			page 45


 1861 03f2 40000000 		.4byte	.LASF9
 1862 03f6 01       		.byte	0x1
 1863 03f7 6F01     		.2byte	0x16f
 1864 03f9 50000000 		.4byte	0x50
 1865 03fd 8B030000 		.4byte	.LLST37
 1866 0401 15       		.uleb128 0x15
 1867 0402 53000000 		.4byte	.LASF6
 1868 0406 01       		.byte	0x1
 1869 0407 7001     		.2byte	0x170
 1870 0409 25000000 		.4byte	0x25
 1871 040d 1A       		.uleb128 0x1a
 1872 040e 6900     		.ascii	"i\000"
 1873 0410 01       		.byte	0x1
 1874 0411 7101     		.2byte	0x171
 1875 0413 25000000 		.4byte	0x25
 1876 0417 B4030000 		.4byte	.LLST38
 1877 041b 1C       		.uleb128 0x1c
 1878 041c 70000000 		.4byte	0x70
 1879 0420 32030000 		.4byte	.LBB22
 1880 0424 3E030000 		.4byte	.LBE22
 1881 0428 01       		.byte	0x1
 1882 0429 8B01     		.2byte	0x18b
 1883 042b 43040000 		.4byte	0x443
 1884 042f 0E       		.uleb128 0xe
 1885 0430 32030000 		.4byte	.LBB23
 1886 0434 3E030000 		.4byte	.LBE23
 1887 0438 0F       		.uleb128 0xf
 1888 0439 82000000 		.4byte	0x82
 1889 043d C7030000 		.4byte	.LLST39
 1890 0441 00       		.byte	0x0
 1891 0442 00       		.byte	0x0
 1892 0443 16       		.uleb128 0x16
 1893 0444 70000000 		.4byte	0x70
 1894 0448 6C030000 		.4byte	.LBB24
 1895 044c 78030000 		.4byte	.LBE24
 1896 0450 01       		.byte	0x1
 1897 0451 B001     		.2byte	0x1b0
 1898 0453 0E       		.uleb128 0xe
 1899 0454 6C030000 		.4byte	.LBB25
 1900 0458 78030000 		.4byte	.LBE25
 1901 045c 0F       		.uleb128 0xf
 1902 045d 82000000 		.4byte	0x82
 1903 0461 F0030000 		.4byte	.LLST40
 1904 0465 00       		.byte	0x0
 1905 0466 00       		.byte	0x0
 1906 0467 00       		.byte	0x0
 1907 0468 00       		.byte	0x0
 1908              		.section	.debug_abbrev
 1909 0000 01       		.uleb128 0x1
 1910 0001 11       		.uleb128 0x11
 1911 0002 01       		.byte	0x1
 1912 0003 25       		.uleb128 0x25
 1913 0004 0E       		.uleb128 0xe
 1914 0005 13       		.uleb128 0x13
 1915 0006 0B       		.uleb128 0xb
 1916 0007 03       		.uleb128 0x3
 1917 0008 0E       		.uleb128 0xe
ARM GAS  /cygdrive/c/Users/Anders/AppData/Local/Temp/ccAE1FMP.s 			page 46


 1918 0009 1B       		.uleb128 0x1b
 1919 000a 0E       		.uleb128 0xe
 1920 000b 11       		.uleb128 0x11
 1921 000c 01       		.uleb128 0x1
 1922 000d 12       		.uleb128 0x12
 1923 000e 01       		.uleb128 0x1
 1924 000f 10       		.uleb128 0x10
 1925 0010 06       		.uleb128 0x6
 1926 0011 00       		.byte	0x0
 1927 0012 00       		.byte	0x0
 1928 0013 02       		.uleb128 0x2
 1929 0014 16       		.uleb128 0x16
 1930 0015 00       		.byte	0x0
 1931 0016 03       		.uleb128 0x3
 1932 0017 08       		.uleb128 0x8
 1933 0018 3A       		.uleb128 0x3a
 1934 0019 0B       		.uleb128 0xb
 1935 001a 3B       		.uleb128 0x3b
 1936 001b 0B       		.uleb128 0xb
 1937 001c 49       		.uleb128 0x49
 1938 001d 13       		.uleb128 0x13
 1939 001e 00       		.byte	0x0
 1940 001f 00       		.byte	0x0
 1941 0020 03       		.uleb128 0x3
 1942 0021 24       		.uleb128 0x24
 1943 0022 00       		.byte	0x0
 1944 0023 0B       		.uleb128 0xb
 1945 0024 0B       		.uleb128 0xb
 1946 0025 3E       		.uleb128 0x3e
 1947 0026 0B       		.uleb128 0xb
 1948 0027 03       		.uleb128 0x3
 1949 0028 0E       		.uleb128 0xe
 1950 0029 00       		.byte	0x0
 1951 002a 00       		.byte	0x0
 1952 002b 04       		.uleb128 0x4
 1953 002c 16       		.uleb128 0x16
 1954 002d 00       		.byte	0x0
 1955 002e 03       		.uleb128 0x3
 1956 002f 0E       		.uleb128 0xe
 1957 0030 3A       		.uleb128 0x3a
 1958 0031 0B       		.uleb128 0xb
 1959 0032 3B       		.uleb128 0x3b
 1960 0033 0B       		.uleb128 0xb
 1961 0034 49       		.uleb128 0x49
 1962 0035 13       		.uleb128 0x13
 1963 0036 00       		.byte	0x0
 1964 0037 00       		.byte	0x0
 1965 0038 05       		.uleb128 0x5
 1966 0039 24       		.uleb128 0x24
 1967 003a 00       		.byte	0x0
 1968 003b 0B       		.uleb128 0xb
 1969 003c 0B       		.uleb128 0xb
 1970 003d 3E       		.uleb128 0x3e
 1971 003e 0B       		.uleb128 0xb
 1972 003f 03       		.uleb128 0x3
 1973 0040 08       		.uleb128 0x8
 1974 0041 00       		.byte	0x0
ARM GAS  /cygdrive/c/Users/Anders/AppData/Local/Temp/ccAE1FMP.s 			page 47


 1975 0042 00       		.byte	0x0
 1976 0043 06       		.uleb128 0x6
 1977 0044 2E       		.uleb128 0x2e
 1978 0045 01       		.byte	0x1
 1979 0046 3F       		.uleb128 0x3f
 1980 0047 0C       		.uleb128 0xc
 1981 0048 03       		.uleb128 0x3
 1982 0049 0E       		.uleb128 0xe
 1983 004a 3A       		.uleb128 0x3a
 1984 004b 0B       		.uleb128 0xb
 1985 004c 3B       		.uleb128 0x3b
 1986 004d 0B       		.uleb128 0xb
 1987 004e 27       		.uleb128 0x27
 1988 004f 0C       		.uleb128 0xc
 1989 0050 49       		.uleb128 0x49
 1990 0051 13       		.uleb128 0x13
 1991 0052 20       		.uleb128 0x20
 1992 0053 0B       		.uleb128 0xb
 1993 0054 01       		.uleb128 0x1
 1994 0055 13       		.uleb128 0x13
 1995 0056 00       		.byte	0x0
 1996 0057 00       		.byte	0x0
 1997 0058 07       		.uleb128 0x7
 1998 0059 34       		.uleb128 0x34
 1999 005a 00       		.byte	0x0
 2000 005b 03       		.uleb128 0x3
 2001 005c 0E       		.uleb128 0xe
 2002 005d 3A       		.uleb128 0x3a
 2003 005e 0B       		.uleb128 0xb
 2004 005f 3B       		.uleb128 0x3b
 2005 0060 0B       		.uleb128 0xb
 2006 0061 49       		.uleb128 0x49
 2007 0062 13       		.uleb128 0x13
 2008 0063 00       		.byte	0x0
 2009 0064 00       		.byte	0x0
 2010 0065 08       		.uleb128 0x8
 2011 0066 2E       		.uleb128 0x2e
 2012 0067 01       		.byte	0x1
 2013 0068 31       		.uleb128 0x31
 2014 0069 13       		.uleb128 0x13
 2015 006a 11       		.uleb128 0x11
 2016 006b 01       		.uleb128 0x1
 2017 006c 12       		.uleb128 0x12
 2018 006d 01       		.uleb128 0x1
 2019 006e 40       		.uleb128 0x40
 2020 006f 0A       		.uleb128 0xa
 2021 0070 01       		.uleb128 0x1
 2022 0071 13       		.uleb128 0x13
 2023 0072 00       		.byte	0x0
 2024 0073 00       		.byte	0x0
 2025 0074 09       		.uleb128 0x9
 2026 0075 34       		.uleb128 0x34
 2027 0076 00       		.byte	0x0
 2028 0077 31       		.uleb128 0x31
 2029 0078 13       		.uleb128 0x13
 2030 0079 02       		.uleb128 0x2
 2031 007a 0A       		.uleb128 0xa
ARM GAS  /cygdrive/c/Users/Anders/AppData/Local/Temp/ccAE1FMP.s 			page 48


 2032 007b 00       		.byte	0x0
 2033 007c 00       		.byte	0x0
 2034 007d 0A       		.uleb128 0xa
 2035 007e 2E       		.uleb128 0x2e
 2036 007f 00       		.byte	0x0
 2037 0080 3F       		.uleb128 0x3f
 2038 0081 0C       		.uleb128 0xc
 2039 0082 03       		.uleb128 0x3
 2040 0083 0E       		.uleb128 0xe
 2041 0084 3A       		.uleb128 0x3a
 2042 0085 0B       		.uleb128 0xb
 2043 0086 3B       		.uleb128 0x3b
 2044 0087 0B       		.uleb128 0xb
 2045 0088 27       		.uleb128 0x27
 2046 0089 0C       		.uleb128 0xc
 2047 008a 11       		.uleb128 0x11
 2048 008b 01       		.uleb128 0x1
 2049 008c 12       		.uleb128 0x12
 2050 008d 01       		.uleb128 0x1
 2051 008e 40       		.uleb128 0x40
 2052 008f 0A       		.uleb128 0xa
 2053 0090 00       		.byte	0x0
 2054 0091 00       		.byte	0x0
 2055 0092 0B       		.uleb128 0xb
 2056 0093 2E       		.uleb128 0x2e
 2057 0094 01       		.byte	0x1
 2058 0095 3F       		.uleb128 0x3f
 2059 0096 0C       		.uleb128 0xc
 2060 0097 03       		.uleb128 0x3
 2061 0098 0E       		.uleb128 0xe
 2062 0099 3A       		.uleb128 0x3a
 2063 009a 0B       		.uleb128 0xb
 2064 009b 3B       		.uleb128 0x3b
 2065 009c 0B       		.uleb128 0xb
 2066 009d 27       		.uleb128 0x27
 2067 009e 0C       		.uleb128 0xc
 2068 009f 49       		.uleb128 0x49
 2069 00a0 13       		.uleb128 0x13
 2070 00a1 11       		.uleb128 0x11
 2071 00a2 01       		.uleb128 0x1
 2072 00a3 12       		.uleb128 0x12
 2073 00a4 01       		.uleb128 0x1
 2074 00a5 40       		.uleb128 0x40
 2075 00a6 0A       		.uleb128 0xa
 2076 00a7 01       		.uleb128 0x1
 2077 00a8 13       		.uleb128 0x13
 2078 00a9 00       		.byte	0x0
 2079 00aa 00       		.byte	0x0
 2080 00ab 0C       		.uleb128 0xc
 2081 00ac 34       		.uleb128 0x34
 2082 00ad 00       		.byte	0x0
 2083 00ae 03       		.uleb128 0x3
 2084 00af 0E       		.uleb128 0xe
 2085 00b0 3A       		.uleb128 0x3a
 2086 00b1 0B       		.uleb128 0xb
 2087 00b2 3B       		.uleb128 0x3b
 2088 00b3 0B       		.uleb128 0xb
ARM GAS  /cygdrive/c/Users/Anders/AppData/Local/Temp/ccAE1FMP.s 			page 49


 2089 00b4 49       		.uleb128 0x49
 2090 00b5 13       		.uleb128 0x13
 2091 00b6 02       		.uleb128 0x2
 2092 00b7 06       		.uleb128 0x6
 2093 00b8 00       		.byte	0x0
 2094 00b9 00       		.byte	0x0
 2095 00ba 0D       		.uleb128 0xd
 2096 00bb 1D       		.uleb128 0x1d
 2097 00bc 01       		.byte	0x1
 2098 00bd 31       		.uleb128 0x31
 2099 00be 13       		.uleb128 0x13
 2100 00bf 11       		.uleb128 0x11
 2101 00c0 01       		.uleb128 0x1
 2102 00c1 12       		.uleb128 0x12
 2103 00c2 01       		.uleb128 0x1
 2104 00c3 58       		.uleb128 0x58
 2105 00c4 0B       		.uleb128 0xb
 2106 00c5 59       		.uleb128 0x59
 2107 00c6 0B       		.uleb128 0xb
 2108 00c7 00       		.byte	0x0
 2109 00c8 00       		.byte	0x0
 2110 00c9 0E       		.uleb128 0xe
 2111 00ca 0B       		.uleb128 0xb
 2112 00cb 01       		.byte	0x1
 2113 00cc 11       		.uleb128 0x11
 2114 00cd 01       		.uleb128 0x1
 2115 00ce 12       		.uleb128 0x12
 2116 00cf 01       		.uleb128 0x1
 2117 00d0 00       		.byte	0x0
 2118 00d1 00       		.byte	0x0
 2119 00d2 0F       		.uleb128 0xf
 2120 00d3 34       		.uleb128 0x34
 2121 00d4 00       		.byte	0x0
 2122 00d5 31       		.uleb128 0x31
 2123 00d6 13       		.uleb128 0x13
 2124 00d7 02       		.uleb128 0x2
 2125 00d8 06       		.uleb128 0x6
 2126 00d9 00       		.byte	0x0
 2127 00da 00       		.byte	0x0
 2128 00db 10       		.uleb128 0x10
 2129 00dc 2E       		.uleb128 0x2e
 2130 00dd 00       		.byte	0x0
 2131 00de 3F       		.uleb128 0x3f
 2132 00df 0C       		.uleb128 0xc
 2133 00e0 03       		.uleb128 0x3
 2134 00e1 0E       		.uleb128 0xe
 2135 00e2 3A       		.uleb128 0x3a
 2136 00e3 0B       		.uleb128 0xb
 2137 00e4 3B       		.uleb128 0x3b
 2138 00e5 0B       		.uleb128 0xb
 2139 00e6 27       		.uleb128 0x27
 2140 00e7 0C       		.uleb128 0xc
 2141 00e8 49       		.uleb128 0x49
 2142 00e9 13       		.uleb128 0x13
 2143 00ea 11       		.uleb128 0x11
 2144 00eb 01       		.uleb128 0x1
 2145 00ec 12       		.uleb128 0x12
ARM GAS  /cygdrive/c/Users/Anders/AppData/Local/Temp/ccAE1FMP.s 			page 50


 2146 00ed 01       		.uleb128 0x1
 2147 00ee 40       		.uleb128 0x40
 2148 00ef 0A       		.uleb128 0xa
 2149 00f0 00       		.byte	0x0
 2150 00f1 00       		.byte	0x0
 2151 00f2 11       		.uleb128 0x11
 2152 00f3 2E       		.uleb128 0x2e
 2153 00f4 01       		.byte	0x1
 2154 00f5 3F       		.uleb128 0x3f
 2155 00f6 0C       		.uleb128 0xc
 2156 00f7 03       		.uleb128 0x3
 2157 00f8 0E       		.uleb128 0xe
 2158 00f9 3A       		.uleb128 0x3a
 2159 00fa 0B       		.uleb128 0xb
 2160 00fb 3B       		.uleb128 0x3b
 2161 00fc 05       		.uleb128 0x5
 2162 00fd 27       		.uleb128 0x27
 2163 00fe 0C       		.uleb128 0xc
 2164 00ff 49       		.uleb128 0x49
 2165 0100 13       		.uleb128 0x13
 2166 0101 11       		.uleb128 0x11
 2167 0102 01       		.uleb128 0x1
 2168 0103 12       		.uleb128 0x12
 2169 0104 01       		.uleb128 0x1
 2170 0105 40       		.uleb128 0x40
 2171 0106 0A       		.uleb128 0xa
 2172 0107 01       		.uleb128 0x1
 2173 0108 13       		.uleb128 0x13
 2174 0109 00       		.byte	0x0
 2175 010a 00       		.byte	0x0
 2176 010b 12       		.uleb128 0x12
 2177 010c 05       		.uleb128 0x5
 2178 010d 00       		.byte	0x0
 2179 010e 03       		.uleb128 0x3
 2180 010f 0E       		.uleb128 0xe
 2181 0110 3A       		.uleb128 0x3a
 2182 0111 0B       		.uleb128 0xb
 2183 0112 3B       		.uleb128 0x3b
 2184 0113 05       		.uleb128 0x5
 2185 0114 49       		.uleb128 0x49
 2186 0115 13       		.uleb128 0x13
 2187 0116 02       		.uleb128 0x2
 2188 0117 06       		.uleb128 0x6
 2189 0118 00       		.byte	0x0
 2190 0119 00       		.byte	0x0
 2191 011a 13       		.uleb128 0x13
 2192 011b 34       		.uleb128 0x34
 2193 011c 00       		.byte	0x0
 2194 011d 03       		.uleb128 0x3
 2195 011e 0E       		.uleb128 0xe
 2196 011f 3A       		.uleb128 0x3a
 2197 0120 0B       		.uleb128 0xb
 2198 0121 3B       		.uleb128 0x3b
 2199 0122 05       		.uleb128 0x5
 2200 0123 49       		.uleb128 0x49
 2201 0124 13       		.uleb128 0x13
 2202 0125 02       		.uleb128 0x2
ARM GAS  /cygdrive/c/Users/Anders/AppData/Local/Temp/ccAE1FMP.s 			page 51


 2203 0126 06       		.uleb128 0x6
 2204 0127 00       		.byte	0x0
 2205 0128 00       		.byte	0x0
 2206 0129 14       		.uleb128 0x14
 2207 012a 0F       		.uleb128 0xf
 2208 012b 00       		.byte	0x0
 2209 012c 0B       		.uleb128 0xb
 2210 012d 0B       		.uleb128 0xb
 2211 012e 49       		.uleb128 0x49
 2212 012f 13       		.uleb128 0x13
 2213 0130 00       		.byte	0x0
 2214 0131 00       		.byte	0x0
 2215 0132 15       		.uleb128 0x15
 2216 0133 34       		.uleb128 0x34
 2217 0134 00       		.byte	0x0
 2218 0135 03       		.uleb128 0x3
 2219 0136 0E       		.uleb128 0xe
 2220 0137 3A       		.uleb128 0x3a
 2221 0138 0B       		.uleb128 0xb
 2222 0139 3B       		.uleb128 0x3b
 2223 013a 05       		.uleb128 0x5
 2224 013b 49       		.uleb128 0x49
 2225 013c 13       		.uleb128 0x13
 2226 013d 00       		.byte	0x0
 2227 013e 00       		.byte	0x0
 2228 013f 16       		.uleb128 0x16
 2229 0140 1D       		.uleb128 0x1d
 2230 0141 01       		.byte	0x1
 2231 0142 31       		.uleb128 0x31
 2232 0143 13       		.uleb128 0x13
 2233 0144 11       		.uleb128 0x11
 2234 0145 01       		.uleb128 0x1
 2235 0146 12       		.uleb128 0x12
 2236 0147 01       		.uleb128 0x1
 2237 0148 58       		.uleb128 0x58
 2238 0149 0B       		.uleb128 0xb
 2239 014a 59       		.uleb128 0x59
 2240 014b 05       		.uleb128 0x5
 2241 014c 00       		.byte	0x0
 2242 014d 00       		.byte	0x0
 2243 014e 17       		.uleb128 0x17
 2244 014f 2E       		.uleb128 0x2e
 2245 0150 01       		.byte	0x1
 2246 0151 3F       		.uleb128 0x3f
 2247 0152 0C       		.uleb128 0xc
 2248 0153 03       		.uleb128 0x3
 2249 0154 0E       		.uleb128 0xe
 2250 0155 3A       		.uleb128 0x3a
 2251 0156 0B       		.uleb128 0xb
 2252 0157 3B       		.uleb128 0x3b
 2253 0158 05       		.uleb128 0x5
 2254 0159 27       		.uleb128 0x27
 2255 015a 0C       		.uleb128 0xc
 2256 015b 49       		.uleb128 0x49
 2257 015c 13       		.uleb128 0x13
 2258 015d 11       		.uleb128 0x11
 2259 015e 01       		.uleb128 0x1
ARM GAS  /cygdrive/c/Users/Anders/AppData/Local/Temp/ccAE1FMP.s 			page 52


 2260 015f 12       		.uleb128 0x12
 2261 0160 01       		.uleb128 0x1
 2262 0161 40       		.uleb128 0x40
 2263 0162 06       		.uleb128 0x6
 2264 0163 01       		.uleb128 0x1
 2265 0164 13       		.uleb128 0x13
 2266 0165 00       		.byte	0x0
 2267 0166 00       		.byte	0x0
 2268 0167 18       		.uleb128 0x18
 2269 0168 05       		.uleb128 0x5
 2270 0169 00       		.byte	0x0
 2271 016a 03       		.uleb128 0x3
 2272 016b 08       		.uleb128 0x8
 2273 016c 3A       		.uleb128 0x3a
 2274 016d 0B       		.uleb128 0xb
 2275 016e 3B       		.uleb128 0x3b
 2276 016f 05       		.uleb128 0x5
 2277 0170 49       		.uleb128 0x49
 2278 0171 13       		.uleb128 0x13
 2279 0172 02       		.uleb128 0x2
 2280 0173 06       		.uleb128 0x6
 2281 0174 00       		.byte	0x0
 2282 0175 00       		.byte	0x0
 2283 0176 19       		.uleb128 0x19
 2284 0177 34       		.uleb128 0x34
 2285 0178 00       		.byte	0x0
 2286 0179 03       		.uleb128 0x3
 2287 017a 08       		.uleb128 0x8
 2288 017b 3A       		.uleb128 0x3a
 2289 017c 0B       		.uleb128 0xb
 2290 017d 3B       		.uleb128 0x3b
 2291 017e 05       		.uleb128 0x5
 2292 017f 49       		.uleb128 0x49
 2293 0180 13       		.uleb128 0x13
 2294 0181 00       		.byte	0x0
 2295 0182 00       		.byte	0x0
 2296 0183 1A       		.uleb128 0x1a
 2297 0184 34       		.uleb128 0x34
 2298 0185 00       		.byte	0x0
 2299 0186 03       		.uleb128 0x3
 2300 0187 08       		.uleb128 0x8
 2301 0188 3A       		.uleb128 0x3a
 2302 0189 0B       		.uleb128 0xb
 2303 018a 3B       		.uleb128 0x3b
 2304 018b 05       		.uleb128 0x5
 2305 018c 49       		.uleb128 0x49
 2306 018d 13       		.uleb128 0x13
 2307 018e 02       		.uleb128 0x2
 2308 018f 06       		.uleb128 0x6
 2309 0190 00       		.byte	0x0
 2310 0191 00       		.byte	0x0
 2311 0192 1B       		.uleb128 0x1b
 2312 0193 2E       		.uleb128 0x2e
 2313 0194 01       		.byte	0x1
 2314 0195 3F       		.uleb128 0x3f
 2315 0196 0C       		.uleb128 0xc
 2316 0197 03       		.uleb128 0x3
ARM GAS  /cygdrive/c/Users/Anders/AppData/Local/Temp/ccAE1FMP.s 			page 53


 2317 0198 0E       		.uleb128 0xe
 2318 0199 3A       		.uleb128 0x3a
 2319 019a 0B       		.uleb128 0xb
 2320 019b 3B       		.uleb128 0x3b
 2321 019c 05       		.uleb128 0x5
 2322 019d 27       		.uleb128 0x27
 2323 019e 0C       		.uleb128 0xc
 2324 019f 49       		.uleb128 0x49
 2325 01a0 13       		.uleb128 0x13
 2326 01a1 11       		.uleb128 0x11
 2327 01a2 01       		.uleb128 0x1
 2328 01a3 12       		.uleb128 0x12
 2329 01a4 01       		.uleb128 0x1
 2330 01a5 40       		.uleb128 0x40
 2331 01a6 06       		.uleb128 0x6
 2332 01a7 00       		.byte	0x0
 2333 01a8 00       		.byte	0x0
 2334 01a9 1C       		.uleb128 0x1c
 2335 01aa 1D       		.uleb128 0x1d
 2336 01ab 01       		.byte	0x1
 2337 01ac 31       		.uleb128 0x31
 2338 01ad 13       		.uleb128 0x13
 2339 01ae 11       		.uleb128 0x11
 2340 01af 01       		.uleb128 0x1
 2341 01b0 12       		.uleb128 0x12
 2342 01b1 01       		.uleb128 0x1
 2343 01b2 58       		.uleb128 0x58
 2344 01b3 0B       		.uleb128 0xb
 2345 01b4 59       		.uleb128 0x59
 2346 01b5 05       		.uleb128 0x5
 2347 01b6 01       		.uleb128 0x1
 2348 01b7 13       		.uleb128 0x13
 2349 01b8 00       		.byte	0x0
 2350 01b9 00       		.byte	0x0
 2351 01ba 00       		.byte	0x0
 2352              		.section	.debug_pubnames,"",%progbits
 2353 0000 C8000000 		.4byte	0xc8
 2354 0004 0200     		.2byte	0x2
 2355 0006 00000000 		.4byte	.Ldebug_info0
 2356 000a 69040000 		.4byte	0x469
 2357 000e 8E000000 		.4byte	0x8e
 2358 0012 69326343 		.ascii	"i2cCheckStatus\000"
 2358      6865636B 
 2358      53746174 
 2358      757300
 2359 0021 A9000000 		.4byte	0xa9
 2360 0025 69326349 		.ascii	"i2cInit\000"
 2360      6E697400 
 2361 002d BC000000 		.4byte	0xbc
 2362 0031 69326353 		.ascii	"i2cStart\000"
 2362      74617274 
 2362      00
 2363 003a 15010000 		.4byte	0x115
 2364 003e 69326353 		.ascii	"i2cStop\000"
 2364      746F7000 
 2365 0046 2C010000 		.4byte	0x12c
 2366 004a 69326350 		.ascii	"i2cPutChar\000"
ARM GAS  /cygdrive/c/Users/Anders/AppData/Local/Temp/ccAE1FMP.s 			page 54


 2366      75744368 
 2366      617200
 2367 0055 69010000 		.4byte	0x169
 2368 0059 69326347 		.ascii	"i2cGetChar\000"
 2368      65744368 
 2368      617200
 2369 0064 BC010000 		.4byte	0x1bc
 2370 0068 69326357 		.ascii	"i2cWaitTransmit\000"
 2370      61697454 
 2370      72616E73 
 2370      6D697400 
 2371 0078 09020000 		.4byte	0x209
 2372 007c 69326357 		.ascii	"i2cWriteWithWait\000"
 2372      72697465 
 2372      57697468 
 2372      57616974 
 2372      00
 2373 008d 48020000 		.4byte	0x248
 2374 0091 6932634D 		.ascii	"i2cMyWrite\000"
 2374      79577269 
 2374      746500
 2375 009c B1020000 		.4byte	0x2b1
 2376 00a0 69326352 		.ascii	"i2cRepeatStart\000"
 2376      65706561 
 2376      74537461 
 2376      727400
 2377 00af 0A030000 		.4byte	0x30a
 2378 00b3 69326352 		.ascii	"i2cRead\000"
 2378      65616400 
 2379 00bb A7030000 		.4byte	0x3a7
 2380 00bf 69326357 		.ascii	"i2cWrite\000"
 2380      72697465 
 2380      00
 2381 00c8 00000000 		.4byte	0x0
 2382              		.section	.debug_aranges,"",%progbits
 2383 0000 1C000000 		.4byte	0x1c
 2384 0004 0200     		.2byte	0x2
 2385 0006 00000000 		.4byte	.Ldebug_info0
 2386 000a 04       		.byte	0x4
 2387 000b 00       		.byte	0x0
 2388 000c 0000     		.2byte	0x0
 2389 000e 0000     		.2byte	0x0
 2390 0010 00000000 		.4byte	.Ltext0
 2391 0014 9C030000 		.4byte	.Letext0-.Ltext0
 2392 0018 00000000 		.4byte	0x0
 2393 001c 00000000 		.4byte	0x0
 2394              		.section	.debug_str,"MS",%progbits,1
 2395              	.LASF16:
 2396 0000 6932634D 		.ascii	"i2cMyWrite\000"
 2396      79577269 
 2396      746500
 2397              	.LASF24:
 2398 000b 69326343 		.ascii	"i2cCheckStatus\000"
 2398      6865636B 
 2398      53746174 
 2398      757300
 2399              	.LASF3:
ARM GAS  /cygdrive/c/Users/Anders/AppData/Local/Temp/ccAE1FMP.s 			page 55


 2400 001a 756E7369 		.ascii	"unsigned int\000"
 2400      676E6564 
 2400      20696E74 
 2400      00
 2401              	.LASF7:
 2402 0027 69326353 		.ascii	"i2cStart\000"
 2402      74617274 
 2402      00
 2403              	.LASF12:
 2404 0030 6D6F6465 		.ascii	"mode\000"
 2404      00
 2405              	.LASF10:
 2406 0035 69326347 		.ascii	"i2cGetChar\000"
 2406      65744368 
 2406      617200
 2407              	.LASF9:
 2408 0040 72657443 		.ascii	"retCode\000"
 2408      6F646500 
 2409              	.LASF8:
 2410 0048 69326350 		.ascii	"i2cPutChar\000"
 2410      75744368 
 2410      617200
 2411              	.LASF6:
 2412 0053 73746174 		.ascii	"status\000"
 2412      757300
 2413              	.LASF25:
 2414 005a 69326349 		.ascii	"i2cInit\000"
 2414      6E697400 
 2415              	.LASF21:
 2416 0062 474E5520 		.ascii	"GNU C 4.2.2\000"
 2416      4320342E 
 2416      322E3200 
 2417              	.LASF26:
 2418 006e 69326353 		.ascii	"i2cStop\000"
 2418      746F7000 
 2419              	.LASF17:
 2420 0076 61646472 		.ascii	"addr\000"
 2420      00
 2421              	.LASF14:
 2422 007b 69326357 		.ascii	"i2cWaitTransmit\000"
 2422      61697454 
 2422      72616E73 
 2422      6D697400 
 2423              	.LASF20:
 2424 008b 70427566 		.ascii	"pBuf\000"
 2424      00
 2425              	.LASF1:
 2426 0090 756E7369 		.ascii	"unsigned char\000"
 2426      676E6564 
 2426      20636861 
 2426      7200
 2427              	.LASF15:
 2428 009e 69326357 		.ascii	"i2cWriteWithWait\000"
 2428      72697465 
 2428      57697468 
 2428      57616974 
 2428      00
ARM GAS  /cygdrive/c/Users/Anders/AppData/Local/Temp/ccAE1FMP.s 			page 56


 2429              	.LASF11:
 2430 00af 64617461 		.ascii	"data\000"
 2430      00
 2431              	.LASF18:
 2432 00b4 69326352 		.ascii	"i2cRepeatStart\000"
 2432      65706561 
 2432      74537461 
 2432      727400
 2433              	.LASF27:
 2434 00c3 69326357 		.ascii	"i2cWrite\000"
 2434      72697465 
 2434      00
 2435              	.LASF2:
 2436 00cc 73686F72 		.ascii	"short unsigned int\000"
 2436      7420756E 
 2436      7369676E 
 2436      65642069 
 2436      6E7400
 2437              	.LASF4:
 2438 00df 7369676E 		.ascii	"signed char\000"
 2438      65642063 
 2438      68617200 
 2439              	.LASF19:
 2440 00eb 69326352 		.ascii	"i2cRead\000"
 2440      65616400 
 2441              	.LASF23:
 2442 00f3 2F637967 		.ascii	"/cygdrive/c/Users/Anders/Fr\345n Gamla Datorn/Mina "
 2442      64726976 
 2442      652F632F 
 2442      55736572 
 2442      732F416E 
 2443 0123 646F6B75 		.ascii	"dokument/Embedded Artists/Products/Education boards"
 2443      6D656E74 
 2443      2F456D62 
 2443      65646465 
 2443      64204172 
 2444 0156 2F4C5043 		.ascii	"/LPC2138 EDU/testPrograms/productionTest\000"
 2444      32313338 
 2444      20454455 
 2444      2F746573 
 2444      7450726F 
 2445              	.LASF22:
 2446 017f 6932632E 		.ascii	"i2c.c\000"
 2446      6300
 2447              	.LASF0:
 2448 0185 74553136 		.ascii	"tU16\000"
 2448      00
 2449              	.LASF5:
 2450 018a 73686F72 		.ascii	"short int\000"
 2450      7420696E 
 2450      7400
 2451              	.LASF13:
 2452 0194 70446174 		.ascii	"pData\000"
 2452      6100
 2453              		.ident	"GCC: (GNU) 4.2.2"
ARM GAS  /cygdrive/c/Users/Anders/AppData/Local/Temp/ccAE1FMP.s 			page 57


DEFINED SYMBOLS
                            *ABS*:00000000 i2c.c
/cygdrive/c/Users/Anders/AppData/Local/Temp/ccAE1FMP.s:1      .text:00000000 $t
/cygdrive/c/Users/Anders/AppData/Local/Temp/ccAE1FMP.s:16     .text:00000000 i2cCheckStatus
/cygdrive/c/Users/Anders/AppData/Local/Temp/ccAE1FMP.s:36     .text:00000010 $d
/cygdrive/c/Users/Anders/AppData/Local/Temp/ccAE1FMP.s:45     .text:00000018 i2cInit
/cygdrive/c/Users/Anders/AppData/Local/Temp/ccAE1FMP.s:42     .text:00000018 $t
/cygdrive/c/Users/Anders/AppData/Local/Temp/ccAE1FMP.s:92     .text:00000054 $d
/cygdrive/c/Users/Anders/AppData/Local/Temp/ccAE1FMP.s:103    .text:00000064 i2cStart
/cygdrive/c/Users/Anders/AppData/Local/Temp/ccAE1FMP.s:100    .text:00000064 $t
/cygdrive/c/Users/Anders/AppData/Local/Temp/ccAE1FMP.s:171    .text:000000a4 $d
/cygdrive/c/Users/Anders/AppData/Local/Temp/ccAE1FMP.s:181    .text:000000b0 i2cStop
/cygdrive/c/Users/Anders/AppData/Local/Temp/ccAE1FMP.s:178    .text:000000b0 $t
/cygdrive/c/Users/Anders/AppData/Local/Temp/ccAE1FMP.s:211    .text:000000d0 $d
/cygdrive/c/Users/Anders/AppData/Local/Temp/ccAE1FMP.s:220    .text:000000d8 i2cPutChar
/cygdrive/c/Users/Anders/AppData/Local/Temp/ccAE1FMP.s:217    .text:000000d8 $t
/cygdrive/c/Users/Anders/AppData/Local/Temp/ccAE1FMP.s:263    .text:000000fc $d
/cygdrive/c/Users/Anders/AppData/Local/Temp/ccAE1FMP.s:272    .text:00000104 i2cGetChar
/cygdrive/c/Users/Anders/AppData/Local/Temp/ccAE1FMP.s:269    .text:00000104 $t
/cygdrive/c/Users/Anders/AppData/Local/Temp/ccAE1FMP.s:342    .text:00000150 $d
/cygdrive/c/Users/Anders/AppData/Local/Temp/ccAE1FMP.s:352    .text:0000015c i2cWaitTransmit
/cygdrive/c/Users/Anders/AppData/Local/Temp/ccAE1FMP.s:349    .text:0000015c $t
/cygdrive/c/Users/Anders/AppData/Local/Temp/ccAE1FMP.s:392    .text:00000180 $d
/cygdrive/c/Users/Anders/AppData/Local/Temp/ccAE1FMP.s:401    .text:00000188 i2cWriteWithWait
/cygdrive/c/Users/Anders/AppData/Local/Temp/ccAE1FMP.s:398    .text:00000188 $t
/cygdrive/c/Users/Anders/AppData/Local/Temp/ccAE1FMP.s:447    .text:000001b8 i2cMyWrite
/cygdrive/c/Users/Anders/AppData/Local/Temp/ccAE1FMP.s:528    .text:00000210 i2cRepeatStart
/cygdrive/c/Users/Anders/AppData/Local/Temp/ccAE1FMP.s:595    .text:00000250 $d
/cygdrive/c/Users/Anders/AppData/Local/Temp/ccAE1FMP.s:605    .text:0000025c i2cRead
/cygdrive/c/Users/Anders/AppData/Local/Temp/ccAE1FMP.s:602    .text:0000025c $t
/cygdrive/c/Users/Anders/AppData/Local/Temp/ccAE1FMP.s:736    .text:000002f4 $d
/cygdrive/c/Users/Anders/AppData/Local/Temp/ccAE1FMP.s:745    .text:000002fc i2cWrite
/cygdrive/c/Users/Anders/AppData/Local/Temp/ccAE1FMP.s:742    .text:000002fc $t
/cygdrive/c/Users/Anders/AppData/Local/Temp/ccAE1FMP.s:886    .text:00000394 $d

NO UNDEFINED SYMBOLS
