ARM GAS  C:\Users\embedded\AppData\Local\Temp\cckmD1Sm.s 			page 1


   1              		.cpu arm7tdmi
   2              		.eabi_attribute 20, 1
   3              		.eabi_attribute 21, 1
   4              		.eabi_attribute 23, 3
   5              		.eabi_attribute 24, 1
   6              		.eabi_attribute 25, 1
   7              		.eabi_attribute 26, 1
   8              		.eabi_attribute 30, 6
   9              		.eabi_attribute 34, 0
  10              		.eabi_attribute 18, 4
  11              		.file	"i2c.c"
  12              		.text
  13              	.Ltext0:
  14              		.cfi_sections	.debug_frame
  15              		.align	1
  16              		.global	i2cCheckStatus
  17              		.syntax unified
  18              		.code	16
  19              		.thumb_func
  20              		.fpu softvfp
  21              		.type	i2cCheckStatus, %function
  22              	i2cCheckStatus:
  23              	.LFB0:
  24              		.file 1 "i2c.c"
   1:i2c.c         **** 
   2:i2c.c         **** 
   3:i2c.c         **** /******************************************************************************
   4:i2c.c         ****  * Includes
   5:i2c.c         ****  *****************************************************************************/
   6:i2c.c         **** 
   7:i2c.c         **** #include "i2c.h"
   8:i2c.c         **** 
   9:i2c.c         **** /******************************************************************************
  10:i2c.c         ****  * Defines and typedefs
  11:i2c.c         ****  *****************************************************************************/
  12:i2c.c         **** 
  13:i2c.c         **** #define I2C_CONSET (*((volatile unsigned char *)0xE001C000U))
  14:i2c.c         **** #define I2C_STAT (*((volatile unsigned char *)0xE001C004U))
  15:i2c.c         **** #define I2C_DATA (*((volatile unsigned char *)0xE001C008U))
  16:i2c.c         **** #define I2C_ADDR (*((volatile unsigned char *)0xE001C00CU))
  17:i2c.c         **** #define I2C_SCLH (*((volatile unsigned short *)0xE001C010U))
  18:i2c.c         **** #define I2C_SCLL (*((volatile unsigned short *)0xE001C014U))
  19:i2c.c         **** #define I2C_CONCLR (*((volatile unsigned char *)0xE001C018U))
  20:i2c.c         **** 
  21:i2c.c         **** #define I2C_REG_CONSET 0x00000040U      /* Control Set Register         */
  22:i2c.c         **** #define I2C_REG_CONSET_MASK 0x0000007CU /* Used bits                    */
  23:i2c.c         **** #define I2C_REG_DATA 0x00000000U        /* Data register                */
  24:i2c.c         **** #define I2C_REG_DATA_MASK 0x000000FFU   /* Used bits                    */
  25:i2c.c         **** #define I2C_REG_ADDR 0x00000000U        /* Slave address register       */
  26:i2c.c         **** #define I2C_REG_ADDR_MASK 0x000000FFU   /* Used bits                    */
  27:i2c.c         **** #define I2C_REG_SCLH 0x00000100U        /* SCL Duty Cycle high register */
  28:i2c.c         **** #define I2C_REG_SCLH_MASK 0x0000FFFFU   /* Used bits                    */
  29:i2c.c         **** #define I2C_REG_SCLL 0x00000100U        /* SCL Duty Cycle low register  */
  30:i2c.c         **** #define I2C_REG_SCLL_MASK 0x0000FFFFU   /* Used bits                    */
  31:i2c.c         **** 
  32:i2c.c         **** /******************************************************************************
  33:i2c.c         ****  *
ARM GAS  C:\Users\embedded\AppData\Local\Temp\cckmD1Sm.s 			page 2


  34:i2c.c         ****  * Description:
  35:i2c.c         ****  *    Checks the I2C status.
  36:i2c.c         ****  *
  37:i2c.c         ****  *
  38:i2c.c         ****  *  Returns:
  39:i2c.c         ****  *      00h Bus error
  40:i2c.c         ****  *      08h START condition transmitted
  41:i2c.c         ****  *      10h Repeated START condition transmitted
  42:i2c.c         ****  *      18h SLA + W transmitted, ACK received
  43:i2c.c         ****  *      20h SLA + W transmitted, ACK not received
  44:i2c.c         ****  *      28h Data byte transmitted, ACK received
  45:i2c.c         ****  *      30h Data byte transmitted, ACK not received
  46:i2c.c         ****  *      38h Arbitration lost
  47:i2c.c         ****  *      40h SLA + R transmitted, ACK received
  48:i2c.c         ****  *      48h SLA + R transmitted, ACK not received
  49:i2c.c         ****  *      50h Data byte received in master mode, ACK transmitted
  50:i2c.c         ****  *      58h Data byte received in master mode, ACK not transmitted
  51:i2c.c         ****  *      60h SLA + W received, ACK transmitted
  52:i2c.c         ****  *      68h Arbitration lost, SLA + W received, ACK transmitted
  53:i2c.c         ****  *      70h General call address received, ACK transmitted
  54:i2c.c         ****  *      78h Arbitration lost, general call addr received, ACK transmitted
  55:i2c.c         ****  *      80h Data byte received with own SLA, ACK transmitted
  56:i2c.c         ****  *      88h Data byte received with own SLA, ACK not transmitted
  57:i2c.c         ****  *      90h Data byte received after general call, ACK transmitted
  58:i2c.c         ****  *      98h Data byte received after general call, ACK not transmitted
  59:i2c.c         ****  *      A0h STOP or repeated START condition received in slave mode
  60:i2c.c         ****  *      A8h SLA + R received, ACK transmitted
  61:i2c.c         ****  *      B0h Arbitration lost, SLA + R received, ACK transmitted
  62:i2c.c         ****  *      B8h Data byte transmitted in slave mode, ACK received
  63:i2c.c         ****  *      C0h Data byte transmitted in slave mode, ACK not received
  64:i2c.c         ****  *      C8h Last byte transmitted in slave mode, ACK received
  65:i2c.c         ****  *      F8h No relevant status information, SI=0
  66:i2c.c         ****  *      FFh Channel error
  67:i2c.c         ****  *
  68:i2c.c         ****  *****************************************************************************/
  69:i2c.c         **** tU8 i2cCheckStatus(void)
  70:i2c.c         **** {
  25              		.loc 1 70 0
  26              		.cfi_startproc
  27              		@ Function supports interworking.
  28              		@ args = 0, pretend = 0, frame = 8
  29              		@ frame_needed = 1, uses_anonymous_args = 0
  30 0000 80B5     		push	{r7, lr}
  31              	.LCFI0:
  32              		.cfi_def_cfa_offset 8
  33              		.cfi_offset 7, -8
  34              		.cfi_offset 14, -4
  35 0002 82B0     		sub	sp, sp, #8
  36              	.LCFI1:
  37              		.cfi_def_cfa_offset 16
  38 0004 00AF     		add	r7, sp, #0
  39              	.LCFI2:
  40              		.cfi_def_cfa_register 7
  71:i2c.c         ****   tU8 status = 0;
  41              		.loc 1 71 0
  42 0006 FB1D     		adds	r3, r7, #7
  43 0008 0022     		movs	r2, #0
ARM GAS  C:\Users\embedded\AppData\Local\Temp\cckmD1Sm.s 			page 3


  44 000a 1A70     		strb	r2, [r3]
  72:i2c.c         **** 
  73:i2c.c         ****   /* wait for I2C Status changed */
  74:i2c.c         ****   while ((I2C_CONSET & 0x08) == 0) /* while SI == 0 */
  45              		.loc 1 74 0
  46 000c C046     		nop
  47              	.L2:
  48              		.loc 1 74 0 is_stmt 0 discriminator 1
  49 000e 0A4B     		ldr	r3, .L4
  50 0010 1B78     		ldrb	r3, [r3]
  51 0012 1B06     		lsls	r3, r3, #24
  52 0014 1B0E     		lsrs	r3, r3, #24
  53 0016 1A00     		movs	r2, r3
  54 0018 0823     		movs	r3, #8
  55 001a 1340     		ands	r3, r2
  56 001c F7D0     		beq	.L2
  75:i2c.c         ****   {
  76:i2c.c         ****     ;
  77:i2c.c         ****   }
  78:i2c.c         **** 
  79:i2c.c         ****   /* Read I2C State */
  80:i2c.c         ****   status = I2C_STAT;
  57              		.loc 1 80 0 is_stmt 1
  58 001e 074A     		ldr	r2, .L4+4
  59 0020 FB1D     		adds	r3, r7, #7
  60 0022 1278     		ldrb	r2, [r2]
  61 0024 1A70     		strb	r2, [r3]
  81:i2c.c         **** 
  82:i2c.c         ****   /* NOTE! SI flag is not cleared here */
  83:i2c.c         **** 
  84:i2c.c         ****   return status;
  62              		.loc 1 84 0
  63 0026 FB1D     		adds	r3, r7, #7
  64 0028 1B78     		ldrb	r3, [r3]
  85:i2c.c         **** }
  65              		.loc 1 85 0
  66 002a 1800     		movs	r0, r3
  67 002c BD46     		mov	sp, r7
  68 002e 02B0     		add	sp, sp, #8
  69              		@ sp needed
  70 0030 80BC     		pop	{r7}
  71 0032 02BC     		pop	{r1}
  72 0034 0847     		bx	r1
  73              	.L5:
  74 0036 C046     		.align	2
  75              	.L4:
  76 0038 00C001E0 		.word	-536756224
  77 003c 04C001E0 		.word	-536756220
  78              		.cfi_endproc
  79              	.LFE0:
  80              		.size	i2cCheckStatus, .-i2cCheckStatus
  81              		.align	1
  82              		.global	i2cInit
  83              		.syntax unified
  84              		.code	16
  85              		.thumb_func
  86              		.fpu softvfp
ARM GAS  C:\Users\embedded\AppData\Local\Temp\cckmD1Sm.s 			page 4


  87              		.type	i2cInit, %function
  88              	i2cInit:
  89              	.LFB1:
  86:i2c.c         **** 
  87:i2c.c         **** /******************************************************************************
  88:i2c.c         ****  *
  89:i2c.c         ****  * Description:
  90:i2c.c         ****  *    Reset the I2C module.
  91:i2c.c         ****  *
  92:i2c.c         ****  *****************************************************************************/
  93:i2c.c         **** void i2cInit(void)
  94:i2c.c         **** {
  90              		.loc 1 94 0
  91              		.cfi_startproc
  92              		@ Function supports interworking.
  93              		@ args = 0, pretend = 0, frame = 0
  94              		@ frame_needed = 1, uses_anonymous_args = 0
  95 0040 80B5     		push	{r7, lr}
  96              	.LCFI3:
  97              		.cfi_def_cfa_offset 8
  98              		.cfi_offset 7, -8
  99              		.cfi_offset 14, -4
 100 0042 00AF     		add	r7, sp, #0
 101              	.LCFI4:
 102              		.cfi_def_cfa_register 7
  95:i2c.c         ****   PINSEL0 |= 0x50;
 103              		.loc 1 95 0
 104 0044 164B     		ldr	r3, .L7
 105 0046 1A68     		ldr	r2, [r3]
 106 0048 154B     		ldr	r3, .L7
 107 004a 5021     		movs	r1, #80
 108 004c 0A43     		orrs	r2, r1
 109 004e 1A60     		str	r2, [r3]
  96:i2c.c         **** 
  97:i2c.c         ****   /* clear flags */
  98:i2c.c         ****   I2C_CONCLR = 0x6c;
 110              		.loc 1 98 0
 111 0050 144B     		ldr	r3, .L7+4
 112 0052 6C22     		movs	r2, #108
 113 0054 1A70     		strb	r2, [r3]
  99:i2c.c         **** 
 100:i2c.c         ****   /* reset registers */
 101:i2c.c         ****   I2C_SCLL = (I2C_SCLL & ~I2C_REG_SCLL_MASK) | I2C_REG_SCLL;
 114              		.loc 1 101 0
 115 0056 144B     		ldr	r3, .L7+8
 116 0058 1B88     		ldrh	r3, [r3]
 117 005a 134B     		ldr	r3, .L7+8
 118 005c 8022     		movs	r2, #128
 119 005e 5200     		lsls	r2, r2, #1
 120 0060 1A80     		strh	r2, [r3]
 102:i2c.c         ****   I2C_SCLH = (I2C_SCLH & ~I2C_REG_SCLH_MASK) | I2C_REG_SCLH;
 121              		.loc 1 102 0
 122 0062 124B     		ldr	r3, .L7+12
 123 0064 1B88     		ldrh	r3, [r3]
 124 0066 114B     		ldr	r3, .L7+12
 125 0068 8022     		movs	r2, #128
 126 006a 5200     		lsls	r2, r2, #1
ARM GAS  C:\Users\embedded\AppData\Local\Temp\cckmD1Sm.s 			page 5


 127 006c 1A80     		strh	r2, [r3]
 103:i2c.c         ****   I2C_ADDR = (I2C_ADDR & ~I2C_REG_ADDR_MASK) | I2C_REG_ADDR;
 128              		.loc 1 103 0
 129 006e 104B     		ldr	r3, .L7+16
 130 0070 1B78     		ldrb	r3, [r3]
 131 0072 0F4B     		ldr	r3, .L7+16
 132 0074 0022     		movs	r2, #0
 133 0076 1A70     		strb	r2, [r3]
 104:i2c.c         ****   I2C_CONSET = (I2C_CONSET & ~I2C_REG_CONSET_MASK) | I2C_REG_CONSET;
 134              		.loc 1 104 0
 135 0078 0E4B     		ldr	r3, .L7+20
 136 007a 1B78     		ldrb	r3, [r3]
 137 007c 1B06     		lsls	r3, r3, #24
 138 007e 1B0E     		lsrs	r3, r3, #24
 139 0080 7C22     		movs	r2, #124
 140 0082 9343     		bics	r3, r2
 141 0084 1B06     		lsls	r3, r3, #24
 142 0086 1B0E     		lsrs	r3, r3, #24
 143 0088 0A4A     		ldr	r2, .L7+20
 144 008a 4021     		movs	r1, #64
 145 008c 0B43     		orrs	r3, r1
 146 008e 1B06     		lsls	r3, r3, #24
 147 0090 1B0E     		lsrs	r3, r3, #24
 148 0092 1370     		strb	r3, [r2]
 105:i2c.c         **** }
 149              		.loc 1 105 0
 150 0094 C046     		nop
 151 0096 BD46     		mov	sp, r7
 152              		@ sp needed
 153 0098 80BC     		pop	{r7}
 154 009a 01BC     		pop	{r0}
 155 009c 0047     		bx	r0
 156              	.L8:
 157 009e C046     		.align	2
 158              	.L7:
 159 00a0 00C002E0 		.word	-536690688
 160 00a4 18C001E0 		.word	-536756200
 161 00a8 14C001E0 		.word	-536756204
 162 00ac 10C001E0 		.word	-536756208
 163 00b0 0CC001E0 		.word	-536756212
 164 00b4 00C001E0 		.word	-536756224
 165              		.cfi_endproc
 166              	.LFE1:
 167              		.size	i2cInit, .-i2cInit
 168              		.align	1
 169              		.global	i2cStart
 170              		.syntax unified
 171              		.code	16
 172              		.thumb_func
 173              		.fpu softvfp
 174              		.type	i2cStart, %function
 175              	i2cStart:
 176              	.LFB2:
 106:i2c.c         **** 
 107:i2c.c         **** /******************************************************************************
 108:i2c.c         ****  *
 109:i2c.c         ****  * Description:
ARM GAS  C:\Users\embedded\AppData\Local\Temp\cckmD1Sm.s 			page 6


 110:i2c.c         ****  *    Generates a start condition on I2C when bus is free.
 111:i2c.c         ****  *    Master mode will also automatically be entered.
 112:i2c.c         ****  *
 113:i2c.c         ****  *    Note: After a stop condition, you may need a bus free time before you
 114:i2c.c         ****  *          can generate a new start condition.
 115:i2c.c         ****  *
 116:i2c.c         ****  * Returns:
 117:i2c.c         ****  *    I2C_CODE_OK or I2C status code
 118:i2c.c         ****  *
 119:i2c.c         ****  *****************************************************************************/
 120:i2c.c         **** tS8 i2cStart(void)
 121:i2c.c         **** {
 177              		.loc 1 121 0
 178              		.cfi_startproc
 179              		@ Function supports interworking.
 180              		@ args = 0, pretend = 0, frame = 8
 181              		@ frame_needed = 1, uses_anonymous_args = 0
 182 00b8 90B5     		push	{r4, r7, lr}
 183              	.LCFI5:
 184              		.cfi_def_cfa_offset 12
 185              		.cfi_offset 4, -12
 186              		.cfi_offset 7, -8
 187              		.cfi_offset 14, -4
 188 00ba 83B0     		sub	sp, sp, #12
 189              	.LCFI6:
 190              		.cfi_def_cfa_offset 24
 191 00bc 00AF     		add	r7, sp, #0
 192              	.LCFI7:
 193              		.cfi_def_cfa_register 7
 122:i2c.c         ****   tU8 status = 0;
 194              		.loc 1 122 0
 195 00be BB1D     		adds	r3, r7, #6
 196 00c0 0022     		movs	r2, #0
 197 00c2 1A70     		strb	r2, [r3]
 123:i2c.c         ****   tS8 retCode = 0;
 198              		.loc 1 123 0
 199 00c4 FB1D     		adds	r3, r7, #7
 200 00c6 0022     		movs	r2, #0
 201 00c8 1A70     		strb	r2, [r3]
 124:i2c.c         **** 
 125:i2c.c         ****   /* issue a start condition */
 126:i2c.c         ****   I2C_CONSET |= 0x20; /* STA = 1, set start flag */
 202              		.loc 1 126 0
 203 00ca 1A4B     		ldr	r3, .L16
 204 00cc 1B78     		ldrb	r3, [r3]
 205 00ce 1B06     		lsls	r3, r3, #24
 206 00d0 1B0E     		lsrs	r3, r3, #24
 207 00d2 184A     		ldr	r2, .L16
 208 00d4 2021     		movs	r1, #32
 209 00d6 0B43     		orrs	r3, r1
 210 00d8 1B06     		lsls	r3, r3, #24
 211 00da 1B0E     		lsrs	r3, r3, #24
 212 00dc 1370     		strb	r3, [r2]
 213              	.L14:
 127:i2c.c         **** 
 128:i2c.c         ****   /* wait until START transmitted */
 129:i2c.c         ****   while (1)
ARM GAS  C:\Users\embedded\AppData\Local\Temp\cckmD1Sm.s 			page 7


 130:i2c.c         ****   {
 131:i2c.c         ****     status = i2cCheckStatus();
 214              		.loc 1 131 0
 215 00de BC1D     		adds	r4, r7, #6
 216 00e0 FFF7FEFF 		bl	i2cCheckStatus
 217 00e4 0300     		movs	r3, r0
 218 00e6 2370     		strb	r3, [r4]
 132:i2c.c         **** 
 133:i2c.c         ****     /* start transmitted */
 134:i2c.c         ****     if ((status == (tU8)0x08) || (status == (tU8)0x10))
 219              		.loc 1 134 0
 220 00e8 BB1D     		adds	r3, r7, #6
 221 00ea 1B78     		ldrb	r3, [r3]
 222 00ec 082B     		cmp	r3, #8
 223 00ee 03D0     		beq	.L10
 224              		.loc 1 134 0 is_stmt 0 discriminator 1
 225 00f0 BB1D     		adds	r3, r7, #6
 226 00f2 1B78     		ldrb	r3, [r3]
 227 00f4 102B     		cmp	r3, #16
 228 00f6 03D1     		bne	.L11
 229              	.L10:
 135:i2c.c         ****     {
 136:i2c.c         ****       retCode = I2C_CODE_OK;
 230              		.loc 1 136 0 is_stmt 1
 231 00f8 FB1D     		adds	r3, r7, #7
 232 00fa 0122     		movs	r2, #1
 233 00fc 1A70     		strb	r2, [r3]
 137:i2c.c         ****       break;
 234              		.loc 1 137 0
 235 00fe 0CE0     		b	.L12
 236              	.L11:
 138:i2c.c         ****     }
 139:i2c.c         **** 
 140:i2c.c         ****     /* error */
 141:i2c.c         ****     else if (status != (tU8)0xf8)
 237              		.loc 1 141 0
 238 0100 BB1D     		adds	r3, r7, #6
 239 0102 1B78     		ldrb	r3, [r3]
 240 0104 F82B     		cmp	r3, #248
 241 0106 04D0     		beq	.L13
 142:i2c.c         ****     {
 143:i2c.c         ****       retCode = (tS8)status;
 242              		.loc 1 143 0
 243 0108 FB1D     		adds	r3, r7, #7
 244 010a BA1D     		adds	r2, r7, #6
 245 010c 1278     		ldrb	r2, [r2]
 246 010e 1A70     		strb	r2, [r3]
 144:i2c.c         ****       break;
 247              		.loc 1 144 0
 248 0110 03E0     		b	.L12
 249              	.L13:
 145:i2c.c         ****     }
 146:i2c.c         **** 
 147:i2c.c         ****     else
 148:i2c.c         ****     {
 149:i2c.c         ****       /* clear SI flag */
 150:i2c.c         ****       I2C_CONCLR = 0x08;
ARM GAS  C:\Users\embedded\AppData\Local\Temp\cckmD1Sm.s 			page 8


 250              		.loc 1 150 0
 251 0112 094B     		ldr	r3, .L16+4
 252 0114 0822     		movs	r2, #8
 253 0116 1A70     		strb	r2, [r3]
 131:i2c.c         **** 
 254              		.loc 1 131 0
 255 0118 E1E7     		b	.L14
 256              	.L12:
 151:i2c.c         ****     }
 152:i2c.c         ****   }
 153:i2c.c         **** 
 154:i2c.c         ****   /* clear start flag */
 155:i2c.c         ****   I2C_CONCLR = 0x20;
 257              		.loc 1 155 0
 258 011a 074B     		ldr	r3, .L16+4
 259 011c 2022     		movs	r2, #32
 260 011e 1A70     		strb	r2, [r3]
 156:i2c.c         **** 
 157:i2c.c         ****   return retCode;
 261              		.loc 1 157 0
 262 0120 FB1D     		adds	r3, r7, #7
 263 0122 1B78     		ldrb	r3, [r3]
 264 0124 1B06     		lsls	r3, r3, #24
 265 0126 1B16     		asrs	r3, r3, #24
 158:i2c.c         **** }
 266              		.loc 1 158 0
 267 0128 1800     		movs	r0, r3
 268 012a BD46     		mov	sp, r7
 269 012c 03B0     		add	sp, sp, #12
 270              		@ sp needed
 271 012e 90BC     		pop	{r4, r7}
 272 0130 02BC     		pop	{r1}
 273 0132 0847     		bx	r1
 274              	.L17:
 275              		.align	2
 276              	.L16:
 277 0134 00C001E0 		.word	-536756224
 278 0138 18C001E0 		.word	-536756200
 279              		.cfi_endproc
 280              	.LFE2:
 281              		.size	i2cStart, .-i2cStart
 282              		.align	1
 283              		.global	i2cRepeatStart
 284              		.syntax unified
 285              		.code	16
 286              		.thumb_func
 287              		.fpu softvfp
 288              		.type	i2cRepeatStart, %function
 289              	i2cRepeatStart:
 290              	.LFB3:
 159:i2c.c         **** 
 160:i2c.c         **** /******************************************************************************
 161:i2c.c         ****  *
 162:i2c.c         ****  * Description:
 163:i2c.c         ****  *    Generates a start condition on I2C when bus is free.
 164:i2c.c         ****  *    Master mode will also automatically be entered.
 165:i2c.c         ****  *
ARM GAS  C:\Users\embedded\AppData\Local\Temp\cckmD1Sm.s 			page 9


 166:i2c.c         ****  *    Note: After a stop condition, you may need a bus free time before you
 167:i2c.c         ****  *          can generate a new start condition.
 168:i2c.c         ****  *
 169:i2c.c         ****  * Returns:
 170:i2c.c         ****  *    I2C_CODE_OK or I2C status code
 171:i2c.c         ****  *
 172:i2c.c         ****  *****************************************************************************/
 173:i2c.c         **** tS8 i2cRepeatStart(void)
 174:i2c.c         **** {
 291              		.loc 1 174 0
 292              		.cfi_startproc
 293              		@ Function supports interworking.
 294              		@ args = 0, pretend = 0, frame = 8
 295              		@ frame_needed = 1, uses_anonymous_args = 0
 296 013c 90B5     		push	{r4, r7, lr}
 297              	.LCFI8:
 298              		.cfi_def_cfa_offset 12
 299              		.cfi_offset 4, -12
 300              		.cfi_offset 7, -8
 301              		.cfi_offset 14, -4
 302 013e 83B0     		sub	sp, sp, #12
 303              	.LCFI9:
 304              		.cfi_def_cfa_offset 24
 305 0140 00AF     		add	r7, sp, #0
 306              	.LCFI10:
 307              		.cfi_def_cfa_register 7
 175:i2c.c         ****   tU8 status = 0;
 308              		.loc 1 175 0
 309 0142 BB1D     		adds	r3, r7, #6
 310 0144 0022     		movs	r2, #0
 311 0146 1A70     		strb	r2, [r3]
 176:i2c.c         ****   tS8 retCode = 0;
 312              		.loc 1 176 0
 313 0148 FB1D     		adds	r3, r7, #7
 314 014a 0022     		movs	r2, #0
 315 014c 1A70     		strb	r2, [r3]
 177:i2c.c         **** 
 178:i2c.c         ****   /* issue a start condition */
 179:i2c.c         ****   I2C_CONSET |= 0x20; /* STA = 1, set start flag */
 316              		.loc 1 179 0
 317 014e 1C4B     		ldr	r3, .L25
 318 0150 1B78     		ldrb	r3, [r3]
 319 0152 1B06     		lsls	r3, r3, #24
 320 0154 1B0E     		lsrs	r3, r3, #24
 321 0156 1A4A     		ldr	r2, .L25
 322 0158 2021     		movs	r1, #32
 323 015a 0B43     		orrs	r3, r1
 324 015c 1B06     		lsls	r3, r3, #24
 325 015e 1B0E     		lsrs	r3, r3, #24
 326 0160 1370     		strb	r3, [r2]
 180:i2c.c         ****   I2C_CONCLR = 0x08;  /* clear SI flag           */
 327              		.loc 1 180 0
 328 0162 184B     		ldr	r3, .L25+4
 329 0164 0822     		movs	r2, #8
 330 0166 1A70     		strb	r2, [r3]
 331              	.L23:
 181:i2c.c         **** 
ARM GAS  C:\Users\embedded\AppData\Local\Temp\cckmD1Sm.s 			page 10


 182:i2c.c         ****   /* wait until START transmitted */
 183:i2c.c         ****   while (1)
 184:i2c.c         ****   {
 185:i2c.c         ****     status = i2cCheckStatus();
 332              		.loc 1 185 0
 333 0168 BC1D     		adds	r4, r7, #6
 334 016a FFF7FEFF 		bl	i2cCheckStatus
 335 016e 0300     		movs	r3, r0
 336 0170 2370     		strb	r3, [r4]
 186:i2c.c         **** 
 187:i2c.c         ****     /* start transmitted */
 188:i2c.c         ****     if ((status == (tU8)0x08) || (status == (tU8)0x10))
 337              		.loc 1 188 0
 338 0172 BB1D     		adds	r3, r7, #6
 339 0174 1B78     		ldrb	r3, [r3]
 340 0176 082B     		cmp	r3, #8
 341 0178 03D0     		beq	.L19
 342              		.loc 1 188 0 is_stmt 0 discriminator 1
 343 017a BB1D     		adds	r3, r7, #6
 344 017c 1B78     		ldrb	r3, [r3]
 345 017e 102B     		cmp	r3, #16
 346 0180 03D1     		bne	.L20
 347              	.L19:
 189:i2c.c         ****     {
 190:i2c.c         ****       retCode = I2C_CODE_OK;
 348              		.loc 1 190 0 is_stmt 1
 349 0182 FB1D     		adds	r3, r7, #7
 350 0184 0122     		movs	r2, #1
 351 0186 1A70     		strb	r2, [r3]
 191:i2c.c         ****       break;
 352              		.loc 1 191 0
 353 0188 0CE0     		b	.L21
 354              	.L20:
 192:i2c.c         ****     }
 193:i2c.c         **** 
 194:i2c.c         ****     /* error */
 195:i2c.c         ****     else if (status != (tU8)0xf8)
 355              		.loc 1 195 0
 356 018a BB1D     		adds	r3, r7, #6
 357 018c 1B78     		ldrb	r3, [r3]
 358 018e F82B     		cmp	r3, #248
 359 0190 04D0     		beq	.L22
 196:i2c.c         ****     {
 197:i2c.c         ****       retCode = (tS8)status;
 360              		.loc 1 197 0
 361 0192 FB1D     		adds	r3, r7, #7
 362 0194 BA1D     		adds	r2, r7, #6
 363 0196 1278     		ldrb	r2, [r2]
 364 0198 1A70     		strb	r2, [r3]
 198:i2c.c         ****       break;
 365              		.loc 1 198 0
 366 019a 03E0     		b	.L21
 367              	.L22:
 199:i2c.c         ****     }
 200:i2c.c         **** 
 201:i2c.c         ****     else
 202:i2c.c         ****     {
ARM GAS  C:\Users\embedded\AppData\Local\Temp\cckmD1Sm.s 			page 11


 203:i2c.c         ****       /* clear SI flag */
 204:i2c.c         ****       I2C_CONCLR = 0x08;
 368              		.loc 1 204 0
 369 019c 094B     		ldr	r3, .L25+4
 370 019e 0822     		movs	r2, #8
 371 01a0 1A70     		strb	r2, [r3]
 185:i2c.c         **** 
 372              		.loc 1 185 0
 373 01a2 E1E7     		b	.L23
 374              	.L21:
 205:i2c.c         ****     }
 206:i2c.c         ****   }
 207:i2c.c         **** 
 208:i2c.c         ****   /* clear start flag */
 209:i2c.c         ****   I2C_CONCLR = 0x20;
 375              		.loc 1 209 0
 376 01a4 074B     		ldr	r3, .L25+4
 377 01a6 2022     		movs	r2, #32
 378 01a8 1A70     		strb	r2, [r3]
 210:i2c.c         **** 
 211:i2c.c         ****   return retCode;
 379              		.loc 1 211 0
 380 01aa FB1D     		adds	r3, r7, #7
 381 01ac 1B78     		ldrb	r3, [r3]
 382 01ae 1B06     		lsls	r3, r3, #24
 383 01b0 1B16     		asrs	r3, r3, #24
 212:i2c.c         **** }
 384              		.loc 1 212 0
 385 01b2 1800     		movs	r0, r3
 386 01b4 BD46     		mov	sp, r7
 387 01b6 03B0     		add	sp, sp, #12
 388              		@ sp needed
 389 01b8 90BC     		pop	{r4, r7}
 390 01ba 02BC     		pop	{r1}
 391 01bc 0847     		bx	r1
 392              	.L26:
 393 01be C046     		.align	2
 394              	.L25:
 395 01c0 00C001E0 		.word	-536756224
 396 01c4 18C001E0 		.word	-536756200
 397              		.cfi_endproc
 398              	.LFE3:
 399              		.size	i2cRepeatStart, .-i2cRepeatStart
 400              		.align	1
 401              		.global	i2cStop
 402              		.syntax unified
 403              		.code	16
 404              		.thumb_func
 405              		.fpu softvfp
 406              		.type	i2cStop, %function
 407              	i2cStop:
 408              	.LFB4:
 213:i2c.c         **** 
 214:i2c.c         **** /******************************************************************************
 215:i2c.c         ****  *
 216:i2c.c         ****  * Description:
 217:i2c.c         ****  *    Generates a stop condition in master mode or recovers from an error
ARM GAS  C:\Users\embedded\AppData\Local\Temp\cckmD1Sm.s 			page 12


 218:i2c.c         ****  *    condition in slave mode.
 219:i2c.c         ****  *
 220:i2c.c         ****  *    Note: After this function is run, you may need a bus free time before
 221:i2c.c         ****  *          you can generate a new start condition.
 222:i2c.c         ****  *
 223:i2c.c         ****  * Returns:
 224:i2c.c         ****  *    I2C_CODE_OK
 225:i2c.c         ****  *
 226:i2c.c         ****  *****************************************************************************/
 227:i2c.c         **** tS8 i2cStop(void)
 228:i2c.c         **** {
 409              		.loc 1 228 0
 410              		.cfi_startproc
 411              		@ Function supports interworking.
 412              		@ args = 0, pretend = 0, frame = 0
 413              		@ frame_needed = 1, uses_anonymous_args = 0
 414 01c8 80B5     		push	{r7, lr}
 415              	.LCFI11:
 416              		.cfi_def_cfa_offset 8
 417              		.cfi_offset 7, -8
 418              		.cfi_offset 14, -4
 419 01ca 00AF     		add	r7, sp, #0
 420              	.LCFI12:
 421              		.cfi_def_cfa_register 7
 229:i2c.c         ****   I2C_CONSET |= 0x10; /* STO = 1, set stop flag */
 422              		.loc 1 229 0
 423 01cc 0E4B     		ldr	r3, .L30
 424 01ce 1B78     		ldrb	r3, [r3]
 425 01d0 1B06     		lsls	r3, r3, #24
 426 01d2 1B0E     		lsrs	r3, r3, #24
 427 01d4 0C4A     		ldr	r2, .L30
 428 01d6 1021     		movs	r1, #16
 429 01d8 0B43     		orrs	r3, r1
 430 01da 1B06     		lsls	r3, r3, #24
 431 01dc 1B0E     		lsrs	r3, r3, #24
 432 01de 1370     		strb	r3, [r2]
 230:i2c.c         ****   I2C_CONCLR = 0x08;  /* clear SI flag          */
 433              		.loc 1 230 0
 434 01e0 0A4B     		ldr	r3, .L30+4
 435 01e2 0822     		movs	r2, #8
 436 01e4 1A70     		strb	r2, [r3]
 231:i2c.c         **** 
 232:i2c.c         ****   /* wait for STOP detected (while STO = 1) */
 233:i2c.c         ****   while ((I2C_CONSET & 0x10) == 0x10)
 437              		.loc 1 233 0
 438 01e6 C046     		nop
 439              	.L28:
 440              		.loc 1 233 0 is_stmt 0 discriminator 1
 441 01e8 074B     		ldr	r3, .L30
 442 01ea 1B78     		ldrb	r3, [r3]
 443 01ec 1B06     		lsls	r3, r3, #24
 444 01ee 1B0E     		lsrs	r3, r3, #24
 445 01f0 1A00     		movs	r2, r3
 446 01f2 1023     		movs	r3, #16
 447 01f4 1340     		ands	r3, r2
 448 01f6 102B     		cmp	r3, #16
 449 01f8 F6D0     		beq	.L28
ARM GAS  C:\Users\embedded\AppData\Local\Temp\cckmD1Sm.s 			page 13


 234:i2c.c         ****   {
 235:i2c.c         ****     /* do nothing */
 236:i2c.c         ****     ;
 237:i2c.c         ****   }
 238:i2c.c         **** 
 239:i2c.c         ****   return I2C_CODE_OK;
 450              		.loc 1 239 0 is_stmt 1
 451 01fa 0123     		movs	r3, #1
 240:i2c.c         **** }
 452              		.loc 1 240 0
 453 01fc 1800     		movs	r0, r3
 454 01fe BD46     		mov	sp, r7
 455              		@ sp needed
 456 0200 80BC     		pop	{r7}
 457 0202 02BC     		pop	{r1}
 458 0204 0847     		bx	r1
 459              	.L31:
 460 0206 C046     		.align	2
 461              	.L30:
 462 0208 00C001E0 		.word	-536756224
 463 020c 18C001E0 		.word	-536756200
 464              		.cfi_endproc
 465              	.LFE4:
 466              		.size	i2cStop, .-i2cStop
 467              		.align	1
 468              		.global	i2cPutChar
 469              		.syntax unified
 470              		.code	16
 471              		.thumb_func
 472              		.fpu softvfp
 473              		.type	i2cPutChar, %function
 474              	i2cPutChar:
 475              	.LFB5:
 241:i2c.c         **** 
 242:i2c.c         **** /******************************************************************************
 243:i2c.c         ****  *
 244:i2c.c         ****  * Description:
 245:i2c.c         ****  *    Sends a character on the I2C network
 246:i2c.c         ****  *
 247:i2c.c         ****  * Params:
 248:i2c.c         ****  *    [in] data - the character to send
 249:i2c.c         ****  *
 250:i2c.c         ****  * Returns:
 251:i2c.c         ****  *    I2C_CODE_OK   - successful
 252:i2c.c         ****  *    I2C_CODE_BUSY - data register is not ready -> byte was not sent
 253:i2c.c         ****  *
 254:i2c.c         ****  *****************************************************************************/
 255:i2c.c         **** tS8 i2cPutChar(tU8 data)
 256:i2c.c         **** {
 476              		.loc 1 256 0
 477              		.cfi_startproc
 478              		@ Function supports interworking.
 479              		@ args = 0, pretend = 0, frame = 16
 480              		@ frame_needed = 1, uses_anonymous_args = 0
 481 0210 80B5     		push	{r7, lr}
 482              	.LCFI13:
 483              		.cfi_def_cfa_offset 8
ARM GAS  C:\Users\embedded\AppData\Local\Temp\cckmD1Sm.s 			page 14


 484              		.cfi_offset 7, -8
 485              		.cfi_offset 14, -4
 486 0212 84B0     		sub	sp, sp, #16
 487              	.LCFI14:
 488              		.cfi_def_cfa_offset 24
 489 0214 00AF     		add	r7, sp, #0
 490              	.LCFI15:
 491              		.cfi_def_cfa_register 7
 492 0216 0200     		movs	r2, r0
 493 0218 FB1D     		adds	r3, r7, #7
 494 021a 1A70     		strb	r2, [r3]
 257:i2c.c         ****   tS8 retCode = 0;
 495              		.loc 1 257 0
 496 021c 0F23     		movs	r3, #15
 497 021e FB18     		adds	r3, r7, r3
 498 0220 0022     		movs	r2, #0
 499 0222 1A70     		strb	r2, [r3]
 258:i2c.c         **** 
 259:i2c.c         ****   /* check if I2C Data register can be accessed */
 260:i2c.c         ****   if ((I2C_CONSET & 0x08) != 0) /* if SI = 1 */
 500              		.loc 1 260 0
 501 0224 114B     		ldr	r3, .L36
 502 0226 1B78     		ldrb	r3, [r3]
 503 0228 1B06     		lsls	r3, r3, #24
 504 022a 1B0E     		lsrs	r3, r3, #24
 505 022c 1A00     		movs	r2, r3
 506 022e 0823     		movs	r3, #8
 507 0230 1340     		ands	r3, r2
 508 0232 0BD0     		beq	.L33
 261:i2c.c         ****   {
 262:i2c.c         ****     /* send data */
 263:i2c.c         ****     I2C_DATA = data;
 509              		.loc 1 263 0
 510 0234 0E4A     		ldr	r2, .L36+4
 511 0236 FB1D     		adds	r3, r7, #7
 512 0238 1B78     		ldrb	r3, [r3]
 513 023a 1370     		strb	r3, [r2]
 264:i2c.c         ****     I2C_CONCLR = 0x08; /* clear SI flag */
 514              		.loc 1 264 0
 515 023c 0D4B     		ldr	r3, .L36+8
 516 023e 0822     		movs	r2, #8
 517 0240 1A70     		strb	r2, [r3]
 265:i2c.c         ****     retCode = I2C_CODE_OK;
 518              		.loc 1 265 0
 519 0242 0F23     		movs	r3, #15
 520 0244 FB18     		adds	r3, r7, r3
 521 0246 0122     		movs	r2, #1
 522 0248 1A70     		strb	r2, [r3]
 523 024a 03E0     		b	.L34
 524              	.L33:
 266:i2c.c         ****   }
 267:i2c.c         ****   else
 268:i2c.c         ****   {
 269:i2c.c         ****     /* data register not ready */
 270:i2c.c         ****     retCode = I2C_CODE_BUSY;
 525              		.loc 1 270 0
 526 024c 0F23     		movs	r3, #15
ARM GAS  C:\Users\embedded\AppData\Local\Temp\cckmD1Sm.s 			page 15


 527 024e FB18     		adds	r3, r7, r3
 528 0250 FC22     		movs	r2, #252
 529 0252 1A70     		strb	r2, [r3]
 530              	.L34:
 271:i2c.c         ****   }
 272:i2c.c         **** 
 273:i2c.c         ****   return retCode;
 531              		.loc 1 273 0
 532 0254 0F23     		movs	r3, #15
 533 0256 FB18     		adds	r3, r7, r3
 534 0258 1B78     		ldrb	r3, [r3]
 535 025a 1B06     		lsls	r3, r3, #24
 536 025c 1B16     		asrs	r3, r3, #24
 274:i2c.c         **** }
 537              		.loc 1 274 0
 538 025e 1800     		movs	r0, r3
 539 0260 BD46     		mov	sp, r7
 540 0262 04B0     		add	sp, sp, #16
 541              		@ sp needed
 542 0264 80BC     		pop	{r7}
 543 0266 02BC     		pop	{r1}
 544 0268 0847     		bx	r1
 545              	.L37:
 546 026a C046     		.align	2
 547              	.L36:
 548 026c 00C001E0 		.word	-536756224
 549 0270 08C001E0 		.word	-536756216
 550 0274 18C001E0 		.word	-536756200
 551              		.cfi_endproc
 552              	.LFE5:
 553              		.size	i2cPutChar, .-i2cPutChar
 554              		.align	1
 555              		.global	i2cGetChar
 556              		.syntax unified
 557              		.code	16
 558              		.thumb_func
 559              		.fpu softvfp
 560              		.type	i2cGetChar, %function
 561              	i2cGetChar:
 562              	.LFB6:
 275:i2c.c         **** 
 276:i2c.c         **** /******************************************************************************
 277:i2c.c         ****  *
 278:i2c.c         ****  * Description:
 279:i2c.c         ****  *    Read a character. I2C master mode is used.
 280:i2c.c         ****  *    This function is also used to prepare if the master shall generate
 281:i2c.c         ****  *    acknowledge or not acknowledge.
 282:i2c.c         ****  *
 283:i2c.c         ****  * Params:
 284:i2c.c         ****  *    [in]  mode  - I2C_MODE_ACK0 Set ACK=0. Slave sends next byte
 285:i2c.c         ****  *                  I2C_MODE_ACK1 Set ACK=1. Slave sends last byte
 286:i2c.c         ****  *                  I2C_MODE_READ Read data from data register
 287:i2c.c         ****  *    [out] pData - a pointer to where the data shall be saved.
 288:i2c.c         ****  *
 289:i2c.c         ****  * Returns:
 290:i2c.c         ****  *    I2C_CODE_OK    - successful
 291:i2c.c         ****  *    I2C_CODE_EMPTY - no data is available
ARM GAS  C:\Users\embedded\AppData\Local\Temp\cckmD1Sm.s 			page 16


 292:i2c.c         ****  *
 293:i2c.c         ****  *****************************************************************************/
 294:i2c.c         **** tS8 i2cGetChar(tU8 mode,
 295:i2c.c         ****                tU8 *pData)
 296:i2c.c         **** {
 563              		.loc 1 296 0
 564              		.cfi_startproc
 565              		@ Function supports interworking.
 566              		@ args = 0, pretend = 0, frame = 16
 567              		@ frame_needed = 1, uses_anonymous_args = 0
 568 0278 80B5     		push	{r7, lr}
 569              	.LCFI16:
 570              		.cfi_def_cfa_offset 8
 571              		.cfi_offset 7, -8
 572              		.cfi_offset 14, -4
 573 027a 84B0     		sub	sp, sp, #16
 574              	.LCFI17:
 575              		.cfi_def_cfa_offset 24
 576 027c 00AF     		add	r7, sp, #0
 577              	.LCFI18:
 578              		.cfi_def_cfa_register 7
 579 027e 0200     		movs	r2, r0
 580 0280 3960     		str	r1, [r7]
 581 0282 FB1D     		adds	r3, r7, #7
 582 0284 1A70     		strb	r2, [r3]
 297:i2c.c         ****   tS8 retCode = I2C_CODE_OK;
 583              		.loc 1 297 0
 584 0286 0F23     		movs	r3, #15
 585 0288 FB18     		adds	r3, r7, r3
 586 028a 0122     		movs	r2, #1
 587 028c 1A70     		strb	r2, [r3]
 298:i2c.c         **** 
 299:i2c.c         ****   if (mode == (tU8)I2C_MODE_ACK0)
 588              		.loc 1 299 0
 589 028e FB1D     		adds	r3, r7, #7
 590 0290 1B78     		ldrb	r3, [r3]
 591 0292 002B     		cmp	r3, #0
 592 0294 0DD1     		bne	.L39
 300:i2c.c         ****   {
 301:i2c.c         ****     /* the operation mode is changed from master transmit to master receive */
 302:i2c.c         **** 
 303:i2c.c         ****     /* set ACK=0 (informs slave to send next byte) */
 304:i2c.c         **** 
 305:i2c.c         ****     I2C_CONSET |= 0x04; /* AA=1          */
 593              		.loc 1 305 0
 594 0296 1D4B     		ldr	r3, .L44
 595 0298 1B78     		ldrb	r3, [r3]
 596 029a 1B06     		lsls	r3, r3, #24
 597 029c 1B0E     		lsrs	r3, r3, #24
 598 029e 1B4A     		ldr	r2, .L44
 599 02a0 0421     		movs	r1, #4
 600 02a2 0B43     		orrs	r3, r1
 601 02a4 1B06     		lsls	r3, r3, #24
 602 02a6 1B0E     		lsrs	r3, r3, #24
 603 02a8 1370     		strb	r3, [r2]
 306:i2c.c         ****     I2C_CONCLR = 0x08;  /* clear SI flag */
 604              		.loc 1 306 0
ARM GAS  C:\Users\embedded\AppData\Local\Temp\cckmD1Sm.s 			page 17


 605 02aa 194B     		ldr	r3, .L44+4
 606 02ac 0822     		movs	r2, #8
 607 02ae 1A70     		strb	r2, [r3]
 608 02b0 21E0     		b	.L40
 609              	.L39:
 307:i2c.c         ****   }
 308:i2c.c         ****   else if (mode == (tU8)I2C_MODE_ACK1)
 610              		.loc 1 308 0
 611 02b2 FB1D     		adds	r3, r7, #7
 612 02b4 1B78     		ldrb	r3, [r3]
 613 02b6 012B     		cmp	r3, #1
 614 02b8 06D1     		bne	.L41
 309:i2c.c         ****   {
 310:i2c.c         ****     /* set ACK=1 (informs slave to send last byte) */
 311:i2c.c         ****     I2C_CONCLR = 0x04;
 615              		.loc 1 311 0
 616 02ba 154B     		ldr	r3, .L44+4
 617 02bc 0422     		movs	r2, #4
 618 02be 1A70     		strb	r2, [r3]
 312:i2c.c         ****     I2C_CONCLR = 0x08; /* clear SI flag */
 619              		.loc 1 312 0
 620 02c0 134B     		ldr	r3, .L44+4
 621 02c2 0822     		movs	r2, #8
 622 02c4 1A70     		strb	r2, [r3]
 623 02c6 16E0     		b	.L40
 624              	.L41:
 313:i2c.c         ****   }
 314:i2c.c         ****   else if (mode == (tU8)I2C_MODE_READ)
 625              		.loc 1 314 0
 626 02c8 FB1D     		adds	r3, r7, #7
 627 02ca 1B78     		ldrb	r3, [r3]
 628 02cc 022B     		cmp	r3, #2
 629 02ce 12D1     		bne	.L40
 315:i2c.c         ****   {
 316:i2c.c         ****     /* check if I2C Data register can be accessed */
 317:i2c.c         ****     if ((I2C_CONSET & 0x08) != 0) /* SI = 1 */
 630              		.loc 1 317 0
 631 02d0 0E4B     		ldr	r3, .L44
 632 02d2 1B78     		ldrb	r3, [r3]
 633 02d4 1B06     		lsls	r3, r3, #24
 634 02d6 1B0E     		lsrs	r3, r3, #24
 635 02d8 1A00     		movs	r2, r3
 636 02da 0823     		movs	r3, #8
 637 02dc 1340     		ands	r3, r2
 638 02de 06D0     		beq	.L42
 318:i2c.c         ****     {
 319:i2c.c         ****       /* read data  */
 320:i2c.c         ****       *pData = (tU8)I2C_DATA;
 639              		.loc 1 320 0
 640 02e0 0C4B     		ldr	r3, .L44+8
 641 02e2 1B78     		ldrb	r3, [r3]
 642 02e4 1B06     		lsls	r3, r3, #24
 643 02e6 1A0E     		lsrs	r2, r3, #24
 644 02e8 3B68     		ldr	r3, [r7]
 645 02ea 1A70     		strb	r2, [r3]
 646 02ec 03E0     		b	.L40
 647              	.L42:
ARM GAS  C:\Users\embedded\AppData\Local\Temp\cckmD1Sm.s 			page 18


 321:i2c.c         ****     }
 322:i2c.c         ****     else
 323:i2c.c         ****     {
 324:i2c.c         ****       /* No data available */
 325:i2c.c         ****       retCode = I2C_CODE_EMPTY;
 648              		.loc 1 325 0
 649 02ee 0F23     		movs	r3, #15
 650 02f0 FB18     		adds	r3, r7, r3
 651 02f2 FD22     		movs	r2, #253
 652 02f4 1A70     		strb	r2, [r3]
 653              	.L40:
 326:i2c.c         ****     }
 327:i2c.c         ****   }
 328:i2c.c         **** 
 329:i2c.c         ****   return retCode;
 654              		.loc 1 329 0
 655 02f6 0F23     		movs	r3, #15
 656 02f8 FB18     		adds	r3, r7, r3
 657 02fa 1B78     		ldrb	r3, [r3]
 658 02fc 1B06     		lsls	r3, r3, #24
 659 02fe 1B16     		asrs	r3, r3, #24
 330:i2c.c         **** }
 660              		.loc 1 330 0
 661 0300 1800     		movs	r0, r3
 662 0302 BD46     		mov	sp, r7
 663 0304 04B0     		add	sp, sp, #16
 664              		@ sp needed
 665 0306 80BC     		pop	{r7}
 666 0308 02BC     		pop	{r1}
 667 030a 0847     		bx	r1
 668              	.L45:
 669              		.align	2
 670              	.L44:
 671 030c 00C001E0 		.word	-536756224
 672 0310 18C001E0 		.word	-536756200
 673 0314 08C001E0 		.word	-536756216
 674              		.cfi_endproc
 675              	.LFE6:
 676              		.size	i2cGetChar, .-i2cGetChar
 677              		.align	1
 678              		.global	i2cWrite
 679              		.syntax unified
 680              		.code	16
 681              		.thumb_func
 682              		.fpu softvfp
 683              		.type	i2cWrite, %function
 684              	i2cWrite:
 685              	.LFB7:
 331:i2c.c         **** 
 332:i2c.c         **** /******************************************************************************
 333:i2c.c         ****  *
 334:i2c.c         ****  * Description:
 335:i2c.c         ****  *    Sends data on the I2C network
 336:i2c.c         ****  *
 337:i2c.c         ****  *    Note: After this function is run, you may need a bus free time before a
 338:i2c.c         ****  *          new data transfer can be initiated.
 339:i2c.c         ****  *
ARM GAS  C:\Users\embedded\AppData\Local\Temp\cckmD1Sm.s 			page 19


 340:i2c.c         ****  * Params:
 341:i2c.c         ****  *    [in] addr  - address
 342:i2c.c         ****  *    [in] pData - data to transmit
 343:i2c.c         ****  *    [in] len   - number of bytes to transmit
 344:i2c.c         ****  *
 345:i2c.c         ****  * Returns:
 346:i2c.c         ****  *    I2C_CODE_OK    - successful
 347:i2c.c         ****  *    I2C_CODE_ERROR - an error occured
 348:i2c.c         ****  *
 349:i2c.c         ****  *****************************************************************************/
 350:i2c.c         **** tS8 i2cWrite(tU8 addr,
 351:i2c.c         ****              tU8 *pData,
 352:i2c.c         ****              tU16 len)
 353:i2c.c         **** {
 686              		.loc 1 353 0
 687              		.cfi_startproc
 688              		@ Function supports interworking.
 689              		@ args = 0, pretend = 0, frame = 16
 690              		@ frame_needed = 1, uses_anonymous_args = 0
 691 0318 B0B5     		push	{r4, r5, r7, lr}
 692              	.LCFI19:
 693              		.cfi_def_cfa_offset 16
 694              		.cfi_offset 4, -16
 695              		.cfi_offset 5, -12
 696              		.cfi_offset 7, -8
 697              		.cfi_offset 14, -4
 698 031a 84B0     		sub	sp, sp, #16
 699              	.LCFI20:
 700              		.cfi_def_cfa_offset 32
 701 031c 00AF     		add	r7, sp, #0
 702              	.LCFI21:
 703              		.cfi_def_cfa_register 7
 704 031e 3960     		str	r1, [r7]
 705 0320 1100     		movs	r1, r2
 706 0322 FB1D     		adds	r3, r7, #7
 707 0324 021C     		adds	r2, r0, #0
 708 0326 1A70     		strb	r2, [r3]
 709 0328 3B1D     		adds	r3, r7, #4
 710 032a 0A1C     		adds	r2, r1, #0
 711 032c 1A80     		strh	r2, [r3]
 354:i2c.c         ****   tS8 retCode = 0;
 712              		.loc 1 354 0
 713 032e 0F21     		movs	r1, #15
 714 0330 7B18     		adds	r3, r7, r1
 715 0332 0022     		movs	r2, #0
 716 0334 1A70     		strb	r2, [r3]
 355:i2c.c         ****   tU8 status = 0;
 717              		.loc 1 355 0
 718 0336 0B23     		movs	r3, #11
 719 0338 FB18     		adds	r3, r7, r3
 720 033a 0022     		movs	r2, #0
 721 033c 1A70     		strb	r2, [r3]
 356:i2c.c         ****   tU16 i = 0;
 722              		.loc 1 356 0
 723 033e 0C23     		movs	r3, #12
 724 0340 FB18     		adds	r3, r7, r3
 725 0342 0022     		movs	r2, #0
ARM GAS  C:\Users\embedded\AppData\Local\Temp\cckmD1Sm.s 			page 20


 726 0344 1A80     		strh	r2, [r3]
 357:i2c.c         **** 
 358:i2c.c         ****   /* generate Start condition */
 359:i2c.c         ****   retCode = i2cStart();
 727              		.loc 1 359 0
 728 0346 0D00     		movs	r5, r1
 729 0348 7C18     		adds	r4, r7, r1
 730 034a FFF7FEFF 		bl	i2cStart
 731 034e 0300     		movs	r3, r0
 732 0350 2370     		strb	r3, [r4]
 360:i2c.c         **** 
 361:i2c.c         ****   /* Transmit address */
 362:i2c.c         ****   if (retCode == I2C_CODE_OK)
 733              		.loc 1 362 0
 734 0352 2900     		movs	r1, r5
 735 0354 7B18     		adds	r3, r7, r1
 736 0356 1B78     		ldrb	r3, [r3]
 737 0358 1B06     		lsls	r3, r3, #24
 738 035a 1B16     		asrs	r3, r3, #24
 739 035c 012B     		cmp	r3, #1
 740 035e 19D1     		bne	.L47
 363:i2c.c         ****   {
 364:i2c.c         ****     /* write SLA+W */
 365:i2c.c         ****     retCode = i2cPutChar(addr);
 741              		.loc 1 365 0
 742 0360 0F23     		movs	r3, #15
 743 0362 FC18     		adds	r4, r7, r3
 744 0364 FB1D     		adds	r3, r7, #7
 745 0366 1B78     		ldrb	r3, [r3]
 746 0368 1800     		movs	r0, r3
 747 036a FFF7FEFF 		bl	i2cPutChar
 748 036e 0300     		movs	r3, r0
 749 0370 2370     		strb	r3, [r4]
 366:i2c.c         ****     while (retCode == I2C_CODE_BUSY)
 750              		.loc 1 366 0
 751 0372 08E0     		b	.L48
 752              	.L49:
 367:i2c.c         ****     {
 368:i2c.c         ****       retCode = i2cPutChar(addr);
 753              		.loc 1 368 0
 754 0374 0F23     		movs	r3, #15
 755 0376 FC18     		adds	r4, r7, r3
 756 0378 FB1D     		adds	r3, r7, #7
 757 037a 1B78     		ldrb	r3, [r3]
 758 037c 1800     		movs	r0, r3
 759 037e FFF7FEFF 		bl	i2cPutChar
 760 0382 0300     		movs	r3, r0
 761 0384 2370     		strb	r3, [r4]
 762              	.L48:
 366:i2c.c         ****     while (retCode == I2C_CODE_BUSY)
 763              		.loc 1 366 0
 764 0386 0F23     		movs	r3, #15
 765 0388 FB18     		adds	r3, r7, r3
 766 038a 1B78     		ldrb	r3, [r3]
 767 038c 1B06     		lsls	r3, r3, #24
 768 038e 1B16     		asrs	r3, r3, #24
 769 0390 0433     		adds	r3, r3, #4
ARM GAS  C:\Users\embedded\AppData\Local\Temp\cckmD1Sm.s 			page 21


 770 0392 EFD0     		beq	.L49
 771              	.L47:
 369:i2c.c         ****     }
 370:i2c.c         ****   }
 371:i2c.c         **** 
 372:i2c.c         ****   if (retCode == I2C_CODE_OK)
 772              		.loc 1 372 0
 773 0394 0F23     		movs	r3, #15
 774 0396 FB18     		adds	r3, r7, r3
 775 0398 1B78     		ldrb	r3, [r3]
 776 039a 1B06     		lsls	r3, r3, #24
 777 039c 1B16     		asrs	r3, r3, #24
 778 039e 012B     		cmp	r3, #1
 779 03a0 4CD1     		bne	.L61
 373:i2c.c         ****   {
 374:i2c.c         ****     /* wait until address transmitted and transmit data */
 375:i2c.c         ****     for (i = (tU16)0; i < len; i = i + (tU16)1)
 780              		.loc 1 375 0
 781 03a2 0C23     		movs	r3, #12
 782 03a4 FB18     		adds	r3, r7, r3
 783 03a6 0022     		movs	r2, #0
 784 03a8 1A80     		strh	r2, [r3]
 785 03aa 40E0     		b	.L51
 786              	.L58:
 376:i2c.c         ****     {
 377:i2c.c         ****       /* wait until data transmitted */
 378:i2c.c         **** 
 379:i2c.c         ****       while (TRUE == (tBool)1)
 380:i2c.c         ****       {
 381:i2c.c         ****         /* get new status */
 382:i2c.c         ****         status = i2cCheckStatus();
 787              		.loc 1 382 0
 788 03ac 0B25     		movs	r5, #11
 789 03ae 7C19     		adds	r4, r7, r5
 790 03b0 FFF7FEFF 		bl	i2cCheckStatus
 791 03b4 0300     		movs	r3, r0
 792 03b6 2370     		strb	r3, [r4]
 383:i2c.c         **** 
 384:i2c.c         ****         /*
 385:i2c.c         ****          * SLA+W transmitted, ACK received or
 386:i2c.c         ****          * data byte transmitted, ACK received
 387:i2c.c         ****          */
 388:i2c.c         ****         if ((status == (tU8)0x18) || (status == (tU8)0x28))
 793              		.loc 1 388 0
 794 03b8 7B19     		adds	r3, r7, r5
 795 03ba 1B78     		ldrb	r3, [r3]
 796 03bc 182B     		cmp	r3, #24
 797 03be 04D0     		beq	.L52
 798              		.loc 1 388 0 is_stmt 0 discriminator 1
 799 03c0 0B23     		movs	r3, #11
 800 03c2 FB18     		adds	r3, r7, r3
 801 03c4 1B78     		ldrb	r3, [r3]
 802 03c6 282B     		cmp	r3, #40
 803 03c8 1DD1     		bne	.L53
 804              	.L52:
 389:i2c.c         ****         {
 390:i2c.c         ****           /* Data transmitted and ACK received */
ARM GAS  C:\Users\embedded\AppData\Local\Temp\cckmD1Sm.s 			page 22


 391:i2c.c         **** 
 392:i2c.c         ****           /* write data */
 393:i2c.c         ****           retCode = i2cPutChar(*pData);
 805              		.loc 1 393 0 is_stmt 1
 806 03ca 3B68     		ldr	r3, [r7]
 807 03cc 1B78     		ldrb	r3, [r3]
 808 03ce 0F22     		movs	r2, #15
 809 03d0 BC18     		adds	r4, r7, r2
 810 03d2 1800     		movs	r0, r3
 811 03d4 FFF7FEFF 		bl	i2cPutChar
 812 03d8 0300     		movs	r3, r0
 813 03da 2370     		strb	r3, [r4]
 394:i2c.c         ****           while (retCode == I2C_CODE_BUSY)
 814              		.loc 1 394 0
 815 03dc 08E0     		b	.L54
 816              	.L55:
 395:i2c.c         ****           {
 396:i2c.c         ****             retCode = i2cPutChar(*pData);
 817              		.loc 1 396 0
 818 03de 3B68     		ldr	r3, [r7]
 819 03e0 1B78     		ldrb	r3, [r3]
 820 03e2 0F22     		movs	r2, #15
 821 03e4 BC18     		adds	r4, r7, r2
 822 03e6 1800     		movs	r0, r3
 823 03e8 FFF7FEFF 		bl	i2cPutChar
 824 03ec 0300     		movs	r3, r0
 825 03ee 2370     		strb	r3, [r4]
 826              	.L54:
 394:i2c.c         ****           while (retCode == I2C_CODE_BUSY)
 827              		.loc 1 394 0
 828 03f0 0F23     		movs	r3, #15
 829 03f2 FB18     		adds	r3, r7, r3
 830 03f4 1B78     		ldrb	r3, [r3]
 831 03f6 1B06     		lsls	r3, r3, #24
 832 03f8 1B16     		asrs	r3, r3, #24
 833 03fa 0433     		adds	r3, r3, #4
 834 03fc EFD0     		beq	.L55
 397:i2c.c         ****           }
 398:i2c.c         ****           pData++;
 835              		.loc 1 398 0
 836 03fe 3B68     		ldr	r3, [r7]
 837 0400 0133     		adds	r3, r3, #1
 838 0402 3B60     		str	r3, [r7]
 399:i2c.c         **** 
 400:i2c.c         ****           break;
 839              		.loc 1 400 0
 840 0404 0DE0     		b	.L56
 841              	.L53:
 401:i2c.c         ****         }
 402:i2c.c         **** 
 403:i2c.c         ****         /* no relevant status information */
 404:i2c.c         ****         else if (status != (tU8)0xf8)
 842              		.loc 1 404 0
 843 0406 0B23     		movs	r3, #11
 844 0408 FB18     		adds	r3, r7, r3
 845 040a 1B78     		ldrb	r3, [r3]
 846 040c F82B     		cmp	r3, #248
ARM GAS  C:\Users\embedded\AppData\Local\Temp\cckmD1Sm.s 			page 23


 847 040e CDD0     		beq	.L58
 405:i2c.c         ****         {
 406:i2c.c         ****           /* error */
 407:i2c.c         ****           i = len;
 848              		.loc 1 407 0
 849 0410 0C23     		movs	r3, #12
 850 0412 FB18     		adds	r3, r7, r3
 851 0414 3A1D     		adds	r2, r7, #4
 852 0416 1288     		ldrh	r2, [r2]
 853 0418 1A80     		strh	r2, [r3]
 408:i2c.c         ****           retCode = I2C_CODE_ERROR;
 854              		.loc 1 408 0
 855 041a 0F23     		movs	r3, #15
 856 041c FB18     		adds	r3, r7, r3
 857 041e FF22     		movs	r2, #255
 858 0420 1A70     		strb	r2, [r3]
 859              	.L56:
 375:i2c.c         ****     {
 860              		.loc 1 375 0 discriminator 2
 861 0422 0C22     		movs	r2, #12
 862 0424 BB18     		adds	r3, r7, r2
 863 0426 BA18     		adds	r2, r7, r2
 864 0428 1288     		ldrh	r2, [r2]
 865 042a 0132     		adds	r2, r2, #1
 866 042c 1A80     		strh	r2, [r3]
 867              	.L51:
 375:i2c.c         ****     {
 868              		.loc 1 375 0 is_stmt 0 discriminator 1
 869 042e 0C23     		movs	r3, #12
 870 0430 FA18     		adds	r2, r7, r3
 871 0432 3B1D     		adds	r3, r7, #4
 872 0434 1288     		ldrh	r2, [r2]
 873 0436 1B88     		ldrh	r3, [r3]
 874 0438 9A42     		cmp	r2, r3
 875 043a B7D3     		bcc	.L58
 876              	.L61:
 409:i2c.c         ****           break;
 410:i2c.c         ****         }
 411:i2c.c         ****       }
 412:i2c.c         ****     }
 413:i2c.c         ****   }
 414:i2c.c         **** 
 415:i2c.c         ****   /* wait until data transmitted */
 416:i2c.c         ****   while (1)
 417:i2c.c         ****   {
 418:i2c.c         ****     /* get new status */
 419:i2c.c         ****     status = i2cCheckStatus();
 877              		.loc 1 419 0 is_stmt 1
 878 043c 0B25     		movs	r5, #11
 879 043e 7C19     		adds	r4, r7, r5
 880 0440 FFF7FEFF 		bl	i2cCheckStatus
 881 0444 0300     		movs	r3, r0
 882 0446 2370     		strb	r3, [r4]
 420:i2c.c         **** 
 421:i2c.c         ****     /*
 422:i2c.c         ****      * SLA+W transmitted, ACK received or
 423:i2c.c         ****      * data byte transmitted, ACK received
ARM GAS  C:\Users\embedded\AppData\Local\Temp\cckmD1Sm.s 			page 24


 424:i2c.c         ****      */
 425:i2c.c         ****     if ((status == (tU8)0x18) || (status == (tU8)0x28))
 883              		.loc 1 425 0
 884 0448 7B19     		adds	r3, r7, r5
 885 044a 1B78     		ldrb	r3, [r3]
 886 044c 182B     		cmp	r3, #24
 887 044e 19D0     		beq	.L59
 888              		.loc 1 425 0 is_stmt 0 discriminator 1
 889 0450 0B23     		movs	r3, #11
 890 0452 FB18     		adds	r3, r7, r3
 891 0454 1B78     		ldrb	r3, [r3]
 892 0456 282B     		cmp	r3, #40
 893 0458 14D0     		beq	.L59
 426:i2c.c         ****     {
 427:i2c.c         ****       /* data transmitted and ACK received */
 428:i2c.c         ****       break;
 429:i2c.c         ****     }
 430:i2c.c         **** 
 431:i2c.c         ****     /* no relevant status information */
 432:i2c.c         ****     else if (status != (tU8)0xf8)
 894              		.loc 1 432 0 is_stmt 1
 895 045a 0B23     		movs	r3, #11
 896 045c FB18     		adds	r3, r7, r3
 897 045e 1B78     		ldrb	r3, [r3]
 898 0460 F82B     		cmp	r3, #248
 899 0462 09D0     		beq	.L60
 433:i2c.c         ****     {
 434:i2c.c         ****       /* error */
 435:i2c.c         ****       i = len;
 900              		.loc 1 435 0
 901 0464 0C23     		movs	r3, #12
 902 0466 FB18     		adds	r3, r7, r3
 903 0468 3A1D     		adds	r2, r7, #4
 904 046a 1288     		ldrh	r2, [r2]
 905 046c 1A80     		strh	r2, [r3]
 436:i2c.c         ****       retCode = I2C_CODE_ERROR;
 906              		.loc 1 436 0
 907 046e 0F23     		movs	r3, #15
 908 0470 FB18     		adds	r3, r7, r3
 909 0472 FF22     		movs	r2, #255
 910 0474 1A70     		strb	r2, [r3]
 437:i2c.c         ****       break;
 911              		.loc 1 437 0
 912 0476 05E0     		b	.L59
 913              	.L60:
 914 0478 0F22     		movs	r2, #15
 915 047a BB18     		adds	r3, r7, r2
 916 047c BA18     		adds	r2, r7, r2
 917 047e 1278     		ldrb	r2, [r2]
 918 0480 1A70     		strb	r2, [r3]
 419:i2c.c         **** 
 919              		.loc 1 419 0
 920 0482 DBE7     		b	.L61
 921              	.L59:
 438:i2c.c         ****     }
 439:i2c.c         ****   }
 440:i2c.c         **** 
ARM GAS  C:\Users\embedded\AppData\Local\Temp\cckmD1Sm.s 			page 25


 441:i2c.c         ****   /* generate Stop condition */
 442:i2c.c         ****   i2cStop();
 922              		.loc 1 442 0
 923 0484 FFF7FEFF 		bl	i2cStop
 443:i2c.c         **** 
 444:i2c.c         ****   return retCode;
 924              		.loc 1 444 0
 925 0488 0F23     		movs	r3, #15
 926 048a FB18     		adds	r3, r7, r3
 927 048c 1B78     		ldrb	r3, [r3]
 928 048e 1B06     		lsls	r3, r3, #24
 929 0490 1B16     		asrs	r3, r3, #24
 445:i2c.c         **** }
 930              		.loc 1 445 0
 931 0492 1800     		movs	r0, r3
 932 0494 BD46     		mov	sp, r7
 933 0496 04B0     		add	sp, sp, #16
 934              		@ sp needed
 935 0498 B0BC     		pop	{r4, r5, r7}
 936 049a 02BC     		pop	{r1}
 937 049c 0847     		bx	r1
 938              		.cfi_endproc
 939              	.LFE7:
 940              		.size	i2cWrite, .-i2cWrite
 941              		.align	1
 942              		.global	i2cWaitTransmit
 943              		.syntax unified
 944              		.code	16
 945              		.thumb_func
 946              		.fpu softvfp
 947              		.type	i2cWaitTransmit, %function
 948              	i2cWaitTransmit:
 949              	.LFB8:
 446:i2c.c         **** 
 447:i2c.c         **** tS8 i2cWaitTransmit(void)
 448:i2c.c         **** {
 950              		.loc 1 448 0
 951              		.cfi_startproc
 952              		@ Function supports interworking.
 953              		@ args = 0, pretend = 0, frame = 8
 954              		@ frame_needed = 1, uses_anonymous_args = 0
 955 049e 90B5     		push	{r4, r7, lr}
 956              	.LCFI22:
 957              		.cfi_def_cfa_offset 12
 958              		.cfi_offset 4, -12
 959              		.cfi_offset 7, -8
 960              		.cfi_offset 14, -4
 961 04a0 83B0     		sub	sp, sp, #12
 962              	.LCFI23:
 963              		.cfi_def_cfa_offset 24
 964 04a2 00AF     		add	r7, sp, #0
 965              	.LCFI24:
 966              		.cfi_def_cfa_register 7
 449:i2c.c         ****   tU8 status = 0;
 967              		.loc 1 449 0
 968 04a4 FB1D     		adds	r3, r7, #7
 969 04a6 0022     		movs	r2, #0
ARM GAS  C:\Users\embedded\AppData\Local\Temp\cckmD1Sm.s 			page 26


 970 04a8 1A70     		strb	r2, [r3]
 971              	.L68:
 450:i2c.c         **** 
 451:i2c.c         ****   /* wait until data transmitted */
 452:i2c.c         ****   while (1)
 453:i2c.c         ****   {
 454:i2c.c         ****     /* get new status */
 455:i2c.c         ****     status = i2cCheckStatus();
 972              		.loc 1 455 0
 973 04aa FC1D     		adds	r4, r7, #7
 974 04ac FFF7FEFF 		bl	i2cCheckStatus
 975 04b0 0300     		movs	r3, r0
 976 04b2 2370     		strb	r3, [r4]
 456:i2c.c         **** 
 457:i2c.c         ****     /*
 458:i2c.c         ****      * SLA+W transmitted, ACK received or
 459:i2c.c         ****      * data byte transmitted, ACK received
 460:i2c.c         ****      */
 461:i2c.c         ****     if ((status == (tU8)0x18) || (status == (tU8)0x28))
 977              		.loc 1 461 0
 978 04b4 FB1D     		adds	r3, r7, #7
 979 04b6 1B78     		ldrb	r3, [r3]
 980 04b8 182B     		cmp	r3, #24
 981 04ba 03D0     		beq	.L64
 982              		.loc 1 461 0 is_stmt 0 discriminator 1
 983 04bc FB1D     		adds	r3, r7, #7
 984 04be 1B78     		ldrb	r3, [r3]
 985 04c0 282B     		cmp	r3, #40
 986 04c2 01D1     		bne	.L65
 987              	.L64:
 462:i2c.c         ****     {
 463:i2c.c         ****       /* data transmitted and ACK received */
 464:i2c.c         ****       return I2C_CODE_OK;
 988              		.loc 1 464 0 is_stmt 1
 989 04c4 0123     		movs	r3, #1
 990 04c6 05E0     		b	.L66
 991              	.L65:
 465:i2c.c         ****     }
 466:i2c.c         **** 
 467:i2c.c         ****     /* no relevant status information */
 468:i2c.c         ****     else if (status != (tU8)0xf8)
 992              		.loc 1 468 0
 993 04c8 FB1D     		adds	r3, r7, #7
 994 04ca 1B78     		ldrb	r3, [r3]
 995 04cc F82B     		cmp	r3, #248
 996 04ce ECD0     		beq	.L68
 469:i2c.c         ****     {
 470:i2c.c         ****       /* error */
 471:i2c.c         **** 
 472:i2c.c         ****       return I2C_CODE_ERROR;
 997              		.loc 1 472 0
 998 04d0 0123     		movs	r3, #1
 999 04d2 5B42     		rsbs	r3, r3, #0
 1000              	.L66:
 473:i2c.c         ****     }
 474:i2c.c         ****   }
 475:i2c.c         **** }
ARM GAS  C:\Users\embedded\AppData\Local\Temp\cckmD1Sm.s 			page 27


 1001              		.loc 1 475 0
 1002 04d4 1800     		movs	r0, r3
 1003 04d6 BD46     		mov	sp, r7
 1004 04d8 03B0     		add	sp, sp, #12
 1005              		@ sp needed
 1006 04da 90BC     		pop	{r4, r7}
 1007 04dc 02BC     		pop	{r1}
 1008 04de 0847     		bx	r1
 1009              		.cfi_endproc
 1010              	.LFE8:
 1011              		.size	i2cWaitTransmit, .-i2cWaitTransmit
 1012              		.align	1
 1013              		.global	i2cWriteWithWait
 1014              		.syntax unified
 1015              		.code	16
 1016              		.thumb_func
 1017              		.fpu softvfp
 1018              		.type	i2cWriteWithWait, %function
 1019              	i2cWriteWithWait:
 1020              	.LFB9:
 476:i2c.c         **** 
 477:i2c.c         **** tS8 i2cWriteWithWait(tU8 data)
 478:i2c.c         **** {
 1021              		.loc 1 478 0
 1022              		.cfi_startproc
 1023              		@ Function supports interworking.
 1024              		@ args = 0, pretend = 0, frame = 16
 1025              		@ frame_needed = 1, uses_anonymous_args = 0
 1026 04e0 90B5     		push	{r4, r7, lr}
 1027              	.LCFI25:
 1028              		.cfi_def_cfa_offset 12
 1029              		.cfi_offset 4, -12
 1030              		.cfi_offset 7, -8
 1031              		.cfi_offset 14, -4
 1032 04e2 85B0     		sub	sp, sp, #20
 1033              	.LCFI26:
 1034              		.cfi_def_cfa_offset 32
 1035 04e4 00AF     		add	r7, sp, #0
 1036              	.LCFI27:
 1037              		.cfi_def_cfa_register 7
 1038 04e6 0200     		movs	r2, r0
 1039 04e8 FB1D     		adds	r3, r7, #7
 1040 04ea 1A70     		strb	r2, [r3]
 479:i2c.c         ****   tS8 retCode = 0;
 1041              		.loc 1 479 0
 1042 04ec 0F21     		movs	r1, #15
 1043 04ee 7B18     		adds	r3, r7, r1
 1044 04f0 0022     		movs	r2, #0
 1045 04f2 1A70     		strb	r2, [r3]
 480:i2c.c         **** 
 481:i2c.c         ****   retCode = i2cPutChar(data);
 1046              		.loc 1 481 0
 1047 04f4 7C18     		adds	r4, r7, r1
 1048 04f6 FB1D     		adds	r3, r7, #7
 1049 04f8 1B78     		ldrb	r3, [r3]
 1050 04fa 1800     		movs	r0, r3
 1051 04fc FFF7FEFF 		bl	i2cPutChar
ARM GAS  C:\Users\embedded\AppData\Local\Temp\cckmD1Sm.s 			page 28


 1052 0500 0300     		movs	r3, r0
 1053 0502 2370     		strb	r3, [r4]
 482:i2c.c         ****   while (retCode == I2C_CODE_BUSY)
 1054              		.loc 1 482 0
 1055 0504 08E0     		b	.L70
 1056              	.L71:
 483:i2c.c         ****   {
 484:i2c.c         ****     retCode = i2cPutChar(data);
 1057              		.loc 1 484 0
 1058 0506 0F23     		movs	r3, #15
 1059 0508 FC18     		adds	r4, r7, r3
 1060 050a FB1D     		adds	r3, r7, #7
 1061 050c 1B78     		ldrb	r3, [r3]
 1062 050e 1800     		movs	r0, r3
 1063 0510 FFF7FEFF 		bl	i2cPutChar
 1064 0514 0300     		movs	r3, r0
 1065 0516 2370     		strb	r3, [r4]
 1066              	.L70:
 482:i2c.c         ****   while (retCode == I2C_CODE_BUSY)
 1067              		.loc 1 482 0
 1068 0518 0F23     		movs	r3, #15
 1069 051a FB18     		adds	r3, r7, r3
 1070 051c 1B78     		ldrb	r3, [r3]
 1071 051e 1B06     		lsls	r3, r3, #24
 1072 0520 1B16     		asrs	r3, r3, #24
 1073 0522 0433     		adds	r3, r3, #4
 1074 0524 EFD0     		beq	.L71
 485:i2c.c         ****   }
 486:i2c.c         **** 
 487:i2c.c         ****   if (retCode == I2C_CODE_OK)
 1075              		.loc 1 487 0
 1076 0526 0F23     		movs	r3, #15
 1077 0528 FB18     		adds	r3, r7, r3
 1078 052a 1B78     		ldrb	r3, [r3]
 1079 052c 1B06     		lsls	r3, r3, #24
 1080 052e 1B16     		asrs	r3, r3, #24
 1081 0530 012B     		cmp	r3, #1
 1082 0532 05D1     		bne	.L72
 488:i2c.c         ****     retCode = i2cWaitTransmit();
 1083              		.loc 1 488 0
 1084 0534 0F23     		movs	r3, #15
 1085 0536 FC18     		adds	r4, r7, r3
 1086 0538 FFF7FEFF 		bl	i2cWaitTransmit
 1087 053c 0300     		movs	r3, r0
 1088 053e 2370     		strb	r3, [r4]
 1089              	.L72:
 489:i2c.c         **** 
 490:i2c.c         ****   return retCode;
 1090              		.loc 1 490 0
 1091 0540 0F23     		movs	r3, #15
 1092 0542 FB18     		adds	r3, r7, r3
 1093 0544 1B78     		ldrb	r3, [r3]
 1094 0546 1B06     		lsls	r3, r3, #24
 1095 0548 1B16     		asrs	r3, r3, #24
 491:i2c.c         **** }
 1096              		.loc 1 491 0
 1097 054a 1800     		movs	r0, r3
ARM GAS  C:\Users\embedded\AppData\Local\Temp\cckmD1Sm.s 			page 29


 1098 054c BD46     		mov	sp, r7
 1099 054e 05B0     		add	sp, sp, #20
 1100              		@ sp needed
 1101 0550 90BC     		pop	{r4, r7}
 1102 0552 02BC     		pop	{r1}
 1103 0554 0847     		bx	r1
 1104              		.cfi_endproc
 1105              	.LFE9:
 1106              		.size	i2cWriteWithWait, .-i2cWriteWithWait
 1107              		.align	1
 1108              		.global	i2cMyWrite
 1109              		.syntax unified
 1110              		.code	16
 1111              		.thumb_func
 1112              		.fpu softvfp
 1113              		.type	i2cMyWrite, %function
 1114              	i2cMyWrite:
 1115              	.LFB10:
 492:i2c.c         **** 
 493:i2c.c         **** tS8 i2cMyWrite(tU8 addr,
 494:i2c.c         ****                tU8 *pData,
 495:i2c.c         ****                tU16 len)
 496:i2c.c         **** {
 1116              		.loc 1 496 0
 1117              		.cfi_startproc
 1118              		@ Function supports interworking.
 1119              		@ args = 0, pretend = 0, frame = 16
 1120              		@ frame_needed = 1, uses_anonymous_args = 0
 1121 0556 B0B5     		push	{r4, r5, r7, lr}
 1122              	.LCFI28:
 1123              		.cfi_def_cfa_offset 16
 1124              		.cfi_offset 4, -16
 1125              		.cfi_offset 5, -12
 1126              		.cfi_offset 7, -8
 1127              		.cfi_offset 14, -4
 1128 0558 84B0     		sub	sp, sp, #16
 1129              	.LCFI29:
 1130              		.cfi_def_cfa_offset 32
 1131 055a 00AF     		add	r7, sp, #0
 1132              	.LCFI30:
 1133              		.cfi_def_cfa_register 7
 1134 055c 3960     		str	r1, [r7]
 1135 055e 1100     		movs	r1, r2
 1136 0560 FB1D     		adds	r3, r7, #7
 1137 0562 021C     		adds	r2, r0, #0
 1138 0564 1A70     		strb	r2, [r3]
 1139 0566 3B1D     		adds	r3, r7, #4
 1140 0568 0A1C     		adds	r2, r1, #0
 1141 056a 1A80     		strh	r2, [r3]
 497:i2c.c         ****   tS8 retCode = 0;
 1142              		.loc 1 497 0
 1143 056c 0F21     		movs	r1, #15
 1144 056e 7B18     		adds	r3, r7, r1
 1145 0570 0022     		movs	r2, #0
 1146 0572 1A70     		strb	r2, [r3]
 498:i2c.c         ****   tU8 i = 0;
 1147              		.loc 1 498 0
ARM GAS  C:\Users\embedded\AppData\Local\Temp\cckmD1Sm.s 			page 30


 1148 0574 0E23     		movs	r3, #14
 1149 0576 FB18     		adds	r3, r7, r3
 1150 0578 0022     		movs	r2, #0
 1151 057a 1A70     		strb	r2, [r3]
 499:i2c.c         **** 
 500:i2c.c         ****   do
 501:i2c.c         ****   {
 502:i2c.c         ****     /* generate Start condition */
 503:i2c.c         ****     retCode = i2cStart();
 1152              		.loc 1 503 0
 1153 057c 0D00     		movs	r5, r1
 1154 057e 7C18     		adds	r4, r7, r1
 1155 0580 FFF7FEFF 		bl	i2cStart
 1156 0584 0300     		movs	r3, r0
 1157 0586 2370     		strb	r3, [r4]
 504:i2c.c         ****     if (retCode != I2C_CODE_OK)
 1158              		.loc 1 504 0
 1159 0588 2900     		movs	r1, r5
 1160 058a 7B18     		adds	r3, r7, r1
 1161 058c 1B78     		ldrb	r3, [r3]
 1162 058e 1B06     		lsls	r3, r3, #24
 1163 0590 1B16     		asrs	r3, r3, #24
 1164 0592 012B     		cmp	r3, #1
 1165 0594 35D1     		bne	.L82
 505:i2c.c         ****       break;
 506:i2c.c         **** 
 507:i2c.c         ****     /* write address */
 508:i2c.c         ****     retCode = i2cWriteWithWait(addr);
 1166              		.loc 1 508 0
 1167 0596 0F25     		movs	r5, #15
 1168 0598 7C19     		adds	r4, r7, r5
 1169 059a FB1D     		adds	r3, r7, #7
 1170 059c 1B78     		ldrb	r3, [r3]
 1171 059e 1800     		movs	r0, r3
 1172 05a0 FFF7FEFF 		bl	i2cWriteWithWait
 1173 05a4 0300     		movs	r3, r0
 1174 05a6 2370     		strb	r3, [r4]
 509:i2c.c         ****     if (retCode != I2C_CODE_OK)
 1175              		.loc 1 509 0
 1176 05a8 7B19     		adds	r3, r7, r5
 1177 05aa 1B78     		ldrb	r3, [r3]
 1178 05ac 1B06     		lsls	r3, r3, #24
 1179 05ae 1B16     		asrs	r3, r3, #24
 1180 05b0 012B     		cmp	r3, #1
 1181 05b2 28D1     		bne	.L83
 510:i2c.c         ****       break;
 511:i2c.c         **** 
 512:i2c.c         ****     for (i = 0; i < len; i++)
 1182              		.loc 1 512 0
 1183 05b4 0E23     		movs	r3, #14
 1184 05b6 FB18     		adds	r3, r7, r3
 1185 05b8 0022     		movs	r2, #0
 1186 05ba 1A70     		strb	r2, [r3]
 1187 05bc 17E0     		b	.L78
 1188              	.L80:
 513:i2c.c         ****     {
 514:i2c.c         ****       retCode = i2cWriteWithWait(*pData);
ARM GAS  C:\Users\embedded\AppData\Local\Temp\cckmD1Sm.s 			page 31


 1189              		.loc 1 514 0
 1190 05be 3B68     		ldr	r3, [r7]
 1191 05c0 1B78     		ldrb	r3, [r3]
 1192 05c2 0F25     		movs	r5, #15
 1193 05c4 7C19     		adds	r4, r7, r5
 1194 05c6 1800     		movs	r0, r3
 1195 05c8 FFF7FEFF 		bl	i2cWriteWithWait
 1196 05cc 0300     		movs	r3, r0
 1197 05ce 2370     		strb	r3, [r4]
 515:i2c.c         ****       if (retCode != I2C_CODE_OK)
 1198              		.loc 1 515 0
 1199 05d0 7B19     		adds	r3, r7, r5
 1200 05d2 1B78     		ldrb	r3, [r3]
 1201 05d4 1B06     		lsls	r3, r3, #24
 1202 05d6 1B16     		asrs	r3, r3, #24
 1203 05d8 012B     		cmp	r3, #1
 1204 05da 16D1     		bne	.L84
 516:i2c.c         ****         break;
 517:i2c.c         **** 
 518:i2c.c         ****       pData++;
 1205              		.loc 1 518 0 discriminator 2
 1206 05dc 3B68     		ldr	r3, [r7]
 1207 05de 0133     		adds	r3, r3, #1
 1208 05e0 3B60     		str	r3, [r7]
 512:i2c.c         ****     {
 1209              		.loc 1 512 0 discriminator 2
 1210 05e2 0E21     		movs	r1, #14
 1211 05e4 7B18     		adds	r3, r7, r1
 1212 05e6 1A78     		ldrb	r2, [r3]
 1213 05e8 7B18     		adds	r3, r7, r1
 1214 05ea 0132     		adds	r2, r2, #1
 1215 05ec 1A70     		strb	r2, [r3]
 1216              	.L78:
 512:i2c.c         ****     {
 1217              		.loc 1 512 0 is_stmt 0 discriminator 1
 1218 05ee 0E23     		movs	r3, #14
 1219 05f0 FB18     		adds	r3, r7, r3
 1220 05f2 1B78     		ldrb	r3, [r3]
 1221 05f4 1B04     		lsls	r3, r3, #16
 1222 05f6 1B0C     		lsrs	r3, r3, #16
 1223 05f8 3A1D     		adds	r2, r7, #4
 1224 05fa 1288     		ldrh	r2, [r2]
 1225 05fc 9A42     		cmp	r2, r3
 1226 05fe DED8     		bhi	.L80
 1227 0600 04E0     		b	.L76
 1228              	.L82:
 505:i2c.c         **** 
 1229              		.loc 1 505 0 is_stmt 1
 1230 0602 C046     		nop
 1231 0604 02E0     		b	.L76
 1232              	.L83:
 510:i2c.c         **** 
 1233              		.loc 1 510 0
 1234 0606 C046     		nop
 1235 0608 00E0     		b	.L76
 1236              	.L84:
 516:i2c.c         **** 
ARM GAS  C:\Users\embedded\AppData\Local\Temp\cckmD1Sm.s 			page 32


 1237              		.loc 1 516 0
 1238 060a C046     		nop
 1239              	.L76:
 519:i2c.c         ****     }
 520:i2c.c         **** 
 521:i2c.c         ****   } while (0);
 522:i2c.c         **** 
 523:i2c.c         ****   /* generate Stop condition */
 524:i2c.c         ****   i2cStop();
 1240              		.loc 1 524 0
 1241 060c FFF7FEFF 		bl	i2cStop
 525:i2c.c         **** 
 526:i2c.c         ****   return retCode;
 1242              		.loc 1 526 0
 1243 0610 0F23     		movs	r3, #15
 1244 0612 FB18     		adds	r3, r7, r3
 1245 0614 1B78     		ldrb	r3, [r3]
 1246 0616 1B06     		lsls	r3, r3, #24
 1247 0618 1B16     		asrs	r3, r3, #24
 527:i2c.c         **** }
 1248              		.loc 1 527 0
 1249 061a 1800     		movs	r0, r3
 1250 061c BD46     		mov	sp, r7
 1251 061e 04B0     		add	sp, sp, #16
 1252              		@ sp needed
 1253 0620 B0BC     		pop	{r4, r5, r7}
 1254 0622 02BC     		pop	{r1}
 1255 0624 0847     		bx	r1
 1256              		.cfi_endproc
 1257              	.LFE10:
 1258              		.size	i2cMyWrite, .-i2cMyWrite
 1259              		.align	1
 1260              		.global	i2cRead
 1261              		.syntax unified
 1262              		.code	16
 1263              		.thumb_func
 1264              		.fpu softvfp
 1265              		.type	i2cRead, %function
 1266              	i2cRead:
 1267              	.LFB11:
 528:i2c.c         **** 
 529:i2c.c         **** /******************************************************************************
 530:i2c.c         ****  *
 531:i2c.c         ****  * Description:
 532:i2c.c         ****  *    Read a specified number of bytes from the I2C network.
 533:i2c.c         ****  *
 534:i2c.c         ****  *    Note: After this function is run, you may need a bus free time before a
 535:i2c.c         ****  *          new data transfer can be initiated.
 536:i2c.c         ****  *
 537:i2c.c         ****  * Params:
 538:i2c.c         ****  *    [in] addr - address
 539:i2c.c         ****  *    [in] pBuf - receive buffer
 540:i2c.c         ****  *    [in] len  - number of bytes to receive
 541:i2c.c         ****  *
 542:i2c.c         ****  * Returns:
 543:i2c.c         ****  *    I2C_CODE_OK or I2C status code
 544:i2c.c         ****  *
ARM GAS  C:\Users\embedded\AppData\Local\Temp\cckmD1Sm.s 			page 33


 545:i2c.c         ****  *****************************************************************************/
 546:i2c.c         **** tS8 i2cRead(tU8 addr,
 547:i2c.c         ****             tU8 *pBuf,
 548:i2c.c         ****             tU16 len)
 549:i2c.c         **** {
 1268              		.loc 1 549 0
 1269              		.cfi_startproc
 1270              		@ Function supports interworking.
 1271              		@ args = 0, pretend = 0, frame = 16
 1272              		@ frame_needed = 1, uses_anonymous_args = 0
 1273 0626 B0B5     		push	{r4, r5, r7, lr}
 1274              	.LCFI31:
 1275              		.cfi_def_cfa_offset 16
 1276              		.cfi_offset 4, -16
 1277              		.cfi_offset 5, -12
 1278              		.cfi_offset 7, -8
 1279              		.cfi_offset 14, -4
 1280 0628 84B0     		sub	sp, sp, #16
 1281              	.LCFI32:
 1282              		.cfi_def_cfa_offset 32
 1283 062a 00AF     		add	r7, sp, #0
 1284              	.LCFI33:
 1285              		.cfi_def_cfa_register 7
 1286 062c 3960     		str	r1, [r7]
 1287 062e 1100     		movs	r1, r2
 1288 0630 FB1D     		adds	r3, r7, #7
 1289 0632 021C     		adds	r2, r0, #0
 1290 0634 1A70     		strb	r2, [r3]
 1291 0636 3B1D     		adds	r3, r7, #4
 1292 0638 0A1C     		adds	r2, r1, #0
 1293 063a 1A80     		strh	r2, [r3]
 550:i2c.c         ****   tS8 retCode = 0;
 1294              		.loc 1 550 0
 1295 063c 0F21     		movs	r1, #15
 1296 063e 7B18     		adds	r3, r7, r1
 1297 0640 0022     		movs	r2, #0
 1298 0642 1A70     		strb	r2, [r3]
 551:i2c.c         ****   tU8 status = 0;
 1299              		.loc 1 551 0
 1300 0644 0B23     		movs	r3, #11
 1301 0646 FB18     		adds	r3, r7, r3
 1302 0648 0022     		movs	r2, #0
 1303 064a 1A70     		strb	r2, [r3]
 552:i2c.c         ****   tU16 i = 0;
 1304              		.loc 1 552 0
 1305 064c 0C23     		movs	r3, #12
 1306 064e FB18     		adds	r3, r7, r3
 1307 0650 0022     		movs	r2, #0
 1308 0652 1A80     		strh	r2, [r3]
 553:i2c.c         **** 
 554:i2c.c         ****   /* Generate Start condition */
 555:i2c.c         ****   retCode = i2cStart();
 1309              		.loc 1 555 0
 1310 0654 0D00     		movs	r5, r1
 1311 0656 7C18     		adds	r4, r7, r1
 1312 0658 FFF7FEFF 		bl	i2cStart
 1313 065c 0300     		movs	r3, r0
ARM GAS  C:\Users\embedded\AppData\Local\Temp\cckmD1Sm.s 			page 34


 1314 065e 2370     		strb	r3, [r4]
 556:i2c.c         **** 
 557:i2c.c         ****   /* Transmit address */
 558:i2c.c         ****   if (retCode == I2C_CODE_OK)
 1315              		.loc 1 558 0
 1316 0660 2900     		movs	r1, r5
 1317 0662 7B18     		adds	r3, r7, r1
 1318 0664 1B78     		ldrb	r3, [r3]
 1319 0666 1B06     		lsls	r3, r3, #24
 1320 0668 1B16     		asrs	r3, r3, #24
 1321 066a 012B     		cmp	r3, #1
 1322 066c 19D1     		bne	.L86
 559:i2c.c         ****   {
 560:i2c.c         ****     /* write SLA+R */
 561:i2c.c         ****     retCode = i2cPutChar(addr);
 1323              		.loc 1 561 0
 1324 066e 0F23     		movs	r3, #15
 1325 0670 FC18     		adds	r4, r7, r3
 1326 0672 FB1D     		adds	r3, r7, #7
 1327 0674 1B78     		ldrb	r3, [r3]
 1328 0676 1800     		movs	r0, r3
 1329 0678 FFF7FEFF 		bl	i2cPutChar
 1330 067c 0300     		movs	r3, r0
 1331 067e 2370     		strb	r3, [r4]
 562:i2c.c         ****     while (retCode == I2C_CODE_BUSY)
 1332              		.loc 1 562 0
 1333 0680 08E0     		b	.L87
 1334              	.L88:
 563:i2c.c         ****     {
 564:i2c.c         ****       retCode = i2cPutChar(addr);
 1335              		.loc 1 564 0
 1336 0682 0F23     		movs	r3, #15
 1337 0684 FC18     		adds	r4, r7, r3
 1338 0686 FB1D     		adds	r3, r7, #7
 1339 0688 1B78     		ldrb	r3, [r3]
 1340 068a 1800     		movs	r0, r3
 1341 068c FFF7FEFF 		bl	i2cPutChar
 1342 0690 0300     		movs	r3, r0
 1343 0692 2370     		strb	r3, [r4]
 1344              	.L87:
 562:i2c.c         ****     while (retCode == I2C_CODE_BUSY)
 1345              		.loc 1 562 0
 1346 0694 0F23     		movs	r3, #15
 1347 0696 FB18     		adds	r3, r7, r3
 1348 0698 1B78     		ldrb	r3, [r3]
 1349 069a 1B06     		lsls	r3, r3, #24
 1350 069c 1B16     		asrs	r3, r3, #24
 1351 069e 0433     		adds	r3, r3, #4
 1352 06a0 EFD0     		beq	.L88
 1353              	.L86:
 565:i2c.c         ****     }
 566:i2c.c         ****   }
 567:i2c.c         **** 
 568:i2c.c         ****   if (retCode == I2C_CODE_OK)
 1354              		.loc 1 568 0
 1355 06a2 0F23     		movs	r3, #15
 1356 06a4 FB18     		adds	r3, r7, r3
ARM GAS  C:\Users\embedded\AppData\Local\Temp\cckmD1Sm.s 			page 35


 1357 06a6 1B78     		ldrb	r3, [r3]
 1358 06a8 1B06     		lsls	r3, r3, #24
 1359 06aa 1B16     		asrs	r3, r3, #24
 1360 06ac 012B     		cmp	r3, #1
 1361 06ae 00D0     		beq	.LCB1186
 1362 06b0 6BE0     		b	.L89	@long jump
 1363              	.LCB1186:
 569:i2c.c         ****   {
 570:i2c.c         ****     /* wait until address transmitted and receive data */
 571:i2c.c         ****     for (i = (tU16)1; i <= len; i = i + (tU16)1)
 1364              		.loc 1 571 0
 1365 06b2 0C23     		movs	r3, #12
 1366 06b4 FB18     		adds	r3, r7, r3
 1367 06b6 0122     		movs	r2, #1
 1368 06b8 1A80     		strh	r2, [r3]
 1369 06ba 5FE0     		b	.L90
 1370              	.L99:
 572:i2c.c         ****     {
 573:i2c.c         ****       /* wait until data transmitted */
 574:i2c.c         ****       while (TRUE == (tBool)1)
 575:i2c.c         ****       {
 576:i2c.c         ****         /* get new status */
 577:i2c.c         ****         status = i2cCheckStatus();
 1371              		.loc 1 577 0
 1372 06bc 0B25     		movs	r5, #11
 1373 06be 7C19     		adds	r4, r7, r5
 1374 06c0 FFF7FEFF 		bl	i2cCheckStatus
 1375 06c4 0300     		movs	r3, r0
 1376 06c6 2370     		strb	r3, [r4]
 578:i2c.c         **** 
 579:i2c.c         ****         /*
 580:i2c.c         ****          * SLA+R transmitted, ACK received or
 581:i2c.c         ****          * SLA+R transmitted, ACK not received
 582:i2c.c         ****          * data byte received in master mode, ACK transmitted
 583:i2c.c         ****          */
 584:i2c.c         ****         if ((status == (tU8)0x40) || (status == (tU8)0x48) || (status == (tU8)0x50))
 1377              		.loc 1 584 0
 1378 06c8 7B19     		adds	r3, r7, r5
 1379 06ca 1B78     		ldrb	r3, [r3]
 1380 06cc 402B     		cmp	r3, #64
 1381 06ce 09D0     		beq	.L91
 1382              		.loc 1 584 0 is_stmt 0 discriminator 1
 1383 06d0 0B23     		movs	r3, #11
 1384 06d2 FB18     		adds	r3, r7, r3
 1385 06d4 1B78     		ldrb	r3, [r3]
 1386 06d6 482B     		cmp	r3, #72
 1387 06d8 04D0     		beq	.L91
 1388              		.loc 1 584 0 discriminator 2
 1389 06da 0B23     		movs	r3, #11
 1390 06dc FB18     		adds	r3, r7, r3
 1391 06de 1B78     		ldrb	r3, [r3]
 1392 06e0 502B     		cmp	r3, #80
 1393 06e2 37D1     		bne	.L92
 1394              	.L91:
 585:i2c.c         ****         {
 586:i2c.c         ****           /* data received */
 587:i2c.c         **** 
ARM GAS  C:\Users\embedded\AppData\Local\Temp\cckmD1Sm.s 			page 36


 588:i2c.c         ****           if (i == len)
 1395              		.loc 1 588 0 is_stmt 1
 1396 06e4 0C23     		movs	r3, #12
 1397 06e6 FA18     		adds	r2, r7, r3
 1398 06e8 3B1D     		adds	r3, r7, #4
 1399 06ea 1288     		ldrh	r2, [r2]
 1400 06ec 1B88     		ldrh	r3, [r3]
 1401 06ee 9A42     		cmp	r2, r3
 1402 06f0 09D1     		bne	.L93
 589:i2c.c         ****           {
 590:i2c.c         ****             /* Set generate NACK */
 591:i2c.c         ****             retCode = i2cGetChar(I2C_MODE_ACK1, pBuf);
 1403              		.loc 1 591 0
 1404 06f2 0F23     		movs	r3, #15
 1405 06f4 FC18     		adds	r4, r7, r3
 1406 06f6 3B68     		ldr	r3, [r7]
 1407 06f8 1900     		movs	r1, r3
 1408 06fa 0120     		movs	r0, #1
 1409 06fc FFF7FEFF 		bl	i2cGetChar
 1410 0700 0300     		movs	r3, r0
 1411 0702 2370     		strb	r3, [r4]
 1412 0704 08E0     		b	.L94
 1413              	.L93:
 592:i2c.c         ****           }
 593:i2c.c         ****           else
 594:i2c.c         ****           {
 595:i2c.c         ****             retCode = i2cGetChar(I2C_MODE_ACK0, pBuf);
 1414              		.loc 1 595 0
 1415 0706 0F23     		movs	r3, #15
 1416 0708 FC18     		adds	r4, r7, r3
 1417 070a 3B68     		ldr	r3, [r7]
 1418 070c 1900     		movs	r1, r3
 1419 070e 0020     		movs	r0, #0
 1420 0710 FFF7FEFF 		bl	i2cGetChar
 1421 0714 0300     		movs	r3, r0
 1422 0716 2370     		strb	r3, [r4]
 1423              	.L94:
 596:i2c.c         ****           }
 597:i2c.c         **** 
 598:i2c.c         ****           /* Read data */
 599:i2c.c         ****           retCode = i2cGetChar(I2C_MODE_READ, pBuf);
 1424              		.loc 1 599 0
 1425 0718 0F23     		movs	r3, #15
 1426 071a FC18     		adds	r4, r7, r3
 1427 071c 3B68     		ldr	r3, [r7]
 1428 071e 1900     		movs	r1, r3
 1429 0720 0220     		movs	r0, #2
 1430 0722 FFF7FEFF 		bl	i2cGetChar
 1431 0726 0300     		movs	r3, r0
 1432 0728 2370     		strb	r3, [r4]
 600:i2c.c         ****           while (retCode == (tS8)I2C_CODE_EMPTY)
 1433              		.loc 1 600 0
 1434 072a 08E0     		b	.L95
 1435              	.L96:
 601:i2c.c         ****           {
 602:i2c.c         ****             retCode = i2cGetChar(I2C_MODE_READ, pBuf);
 1436              		.loc 1 602 0
ARM GAS  C:\Users\embedded\AppData\Local\Temp\cckmD1Sm.s 			page 37


 1437 072c 0F23     		movs	r3, #15
 1438 072e FC18     		adds	r4, r7, r3
 1439 0730 3B68     		ldr	r3, [r7]
 1440 0732 1900     		movs	r1, r3
 1441 0734 0220     		movs	r0, #2
 1442 0736 FFF7FEFF 		bl	i2cGetChar
 1443 073a 0300     		movs	r3, r0
 1444 073c 2370     		strb	r3, [r4]
 1445              	.L95:
 600:i2c.c         ****           while (retCode == (tS8)I2C_CODE_EMPTY)
 1446              		.loc 1 600 0
 1447 073e 0F23     		movs	r3, #15
 1448 0740 FB18     		adds	r3, r7, r3
 1449 0742 1B78     		ldrb	r3, [r3]
 1450 0744 1B06     		lsls	r3, r3, #24
 1451 0746 1B16     		asrs	r3, r3, #24
 1452 0748 0333     		adds	r3, r3, #3
 1453 074a EFD0     		beq	.L96
 603:i2c.c         ****           }
 604:i2c.c         ****           pBuf++;
 1454              		.loc 1 604 0
 1455 074c 3B68     		ldr	r3, [r7]
 1456 074e 0133     		adds	r3, r3, #1
 1457 0750 3B60     		str	r3, [r7]
 605:i2c.c         **** 
 606:i2c.c         ****           break;
 1458              		.loc 1 606 0
 1459 0752 0DE0     		b	.L97
 1460              	.L92:
 607:i2c.c         ****         }
 608:i2c.c         **** 
 609:i2c.c         ****         /* no relevant status information */
 610:i2c.c         ****         else if (status != (tU8)0xf8)
 1461              		.loc 1 610 0
 1462 0754 0B23     		movs	r3, #11
 1463 0756 FB18     		adds	r3, r7, r3
 1464 0758 1B78     		ldrb	r3, [r3]
 1465 075a F82B     		cmp	r3, #248
 1466 075c AED0     		beq	.L99
 611:i2c.c         ****         {
 612:i2c.c         ****           /* error */
 613:i2c.c         ****           i = len;
 1467              		.loc 1 613 0
 1468 075e 0C23     		movs	r3, #12
 1469 0760 FB18     		adds	r3, r7, r3
 1470 0762 3A1D     		adds	r2, r7, #4
 1471 0764 1288     		ldrh	r2, [r2]
 1472 0766 1A80     		strh	r2, [r3]
 614:i2c.c         ****           retCode = I2C_CODE_ERROR;
 1473              		.loc 1 614 0
 1474 0768 0F23     		movs	r3, #15
 1475 076a FB18     		adds	r3, r7, r3
 1476 076c FF22     		movs	r2, #255
 1477 076e 1A70     		strb	r2, [r3]
 1478              	.L97:
 571:i2c.c         ****     {
 1479              		.loc 1 571 0 discriminator 2
ARM GAS  C:\Users\embedded\AppData\Local\Temp\cckmD1Sm.s 			page 38


 1480 0770 0C22     		movs	r2, #12
 1481 0772 BB18     		adds	r3, r7, r2
 1482 0774 BA18     		adds	r2, r7, r2
 1483 0776 1288     		ldrh	r2, [r2]
 1484 0778 0132     		adds	r2, r2, #1
 1485 077a 1A80     		strh	r2, [r3]
 1486              	.L90:
 571:i2c.c         ****     {
 1487              		.loc 1 571 0 is_stmt 0 discriminator 1
 1488 077c 0C23     		movs	r3, #12
 1489 077e FA18     		adds	r2, r7, r3
 1490 0780 3B1D     		adds	r3, r7, #4
 1491 0782 1288     		ldrh	r2, [r2]
 1492 0784 1B88     		ldrh	r3, [r3]
 1493 0786 9A42     		cmp	r2, r3
 1494 0788 98D9     		bls	.L99
 1495              	.L89:
 615:i2c.c         ****           break;
 616:i2c.c         ****         }
 617:i2c.c         ****       }
 618:i2c.c         ****     }
 619:i2c.c         ****   }
 620:i2c.c         **** 
 621:i2c.c         ****   /*--- Generate Stop condition ---*/
 622:i2c.c         ****   i2cStop();
 1496              		.loc 1 622 0 is_stmt 1
 1497 078a FFF7FEFF 		bl	i2cStop
 623:i2c.c         **** 
 624:i2c.c         ****   return retCode;
 1498              		.loc 1 624 0
 1499 078e 0F23     		movs	r3, #15
 1500 0790 FB18     		adds	r3, r7, r3
 1501 0792 1B78     		ldrb	r3, [r3]
 1502 0794 1B06     		lsls	r3, r3, #24
 1503 0796 1B16     		asrs	r3, r3, #24
 625:i2c.c         **** }
 1504              		.loc 1 625 0
 1505 0798 1800     		movs	r0, r3
 1506 079a BD46     		mov	sp, r7
 1507 079c 04B0     		add	sp, sp, #16
 1508              		@ sp needed
 1509 079e B0BC     		pop	{r4, r5, r7}
 1510 07a0 02BC     		pop	{r1}
 1511 07a2 0847     		bx	r1
 1512              		.cfi_endproc
 1513              	.LFE11:
 1514              		.size	i2cRead, .-i2cRead
 1515              	.Letext0:
 1516              		.file 2 "general.h"
 1517              		.section	.debug_info,"",%progbits
 1518              	.Ldebug_info0:
 1519 0000 C4030000 		.4byte	0x3c4
 1520 0004 0200     		.2byte	0x2
 1521 0006 00000000 		.4byte	.Ldebug_abbrev0
 1522 000a 04       		.byte	0x4
 1523 000b 01       		.uleb128 0x1
 1524 000c D6000000 		.4byte	.LASF27
ARM GAS  C:\Users\embedded\AppData\Local\Temp\cckmD1Sm.s 			page 39


 1525 0010 0C       		.byte	0xc
 1526 0011 A4010000 		.4byte	.LASF28
 1527 0015 5F010000 		.4byte	.LASF29
 1528 0019 00000000 		.4byte	.Ltext0
 1529 001d A4070000 		.4byte	.Letext0
 1530 0021 00000000 		.4byte	.Ldebug_line0
 1531 0025 02       		.uleb128 0x2
 1532 0026 74553800 		.ascii	"tU8\000"
 1533 002a 02       		.byte	0x2
 1534 002b 18       		.byte	0x18
 1535 002c 30000000 		.4byte	0x30
 1536 0030 03       		.uleb128 0x3
 1537 0031 01       		.byte	0x1
 1538 0032 08       		.byte	0x8
 1539 0033 AF000000 		.4byte	.LASF1
 1540 0037 04       		.uleb128 0x4
 1541 0038 BB010000 		.4byte	.LASF0
 1542 003c 02       		.byte	0x2
 1543 003d 19       		.byte	0x19
 1544 003e 42000000 		.4byte	0x42
 1545 0042 03       		.uleb128 0x3
 1546 0043 02       		.byte	0x2
 1547 0044 07       		.byte	0x7
 1548 0045 7D010000 		.4byte	.LASF2
 1549 0049 03       		.uleb128 0x3
 1550 004a 04       		.byte	0x4
 1551 004b 07       		.byte	0x7
 1552 004c 28000000 		.4byte	.LASF3
 1553 0050 03       		.uleb128 0x3
 1554 0051 08       		.byte	0x8
 1555 0052 07       		.byte	0x7
 1556 0053 7E000000 		.4byte	.LASF4
 1557 0057 02       		.uleb128 0x2
 1558 0058 74533800 		.ascii	"tS8\000"
 1559 005c 02       		.byte	0x2
 1560 005d 1C       		.byte	0x1c
 1561 005e 62000000 		.4byte	0x62
 1562 0062 03       		.uleb128 0x3
 1563 0063 01       		.byte	0x1
 1564 0064 06       		.byte	0x6
 1565 0065 90010000 		.4byte	.LASF5
 1566 0069 03       		.uleb128 0x3
 1567 006a 02       		.byte	0x2
 1568 006b 05       		.byte	0x5
 1569 006c C6010000 		.4byte	.LASF6
 1570 0070 05       		.uleb128 0x5
 1571 0071 04       		.byte	0x4
 1572 0072 05       		.byte	0x5
 1573 0073 696E7400 		.ascii	"int\000"
 1574 0077 03       		.uleb128 0x3
 1575 0078 08       		.byte	0x8
 1576 0079 05       		.byte	0x5
 1577 007a 00000000 		.4byte	.LASF7
 1578 007e 06       		.uleb128 0x6
 1579 007f 07       		.byte	0x7
 1580 0080 01       		.byte	0x1
 1581 0081 30000000 		.4byte	0x30
ARM GAS  C:\Users\embedded\AppData\Local\Temp\cckmD1Sm.s 			page 40


 1582 0085 02       		.byte	0x2
 1583 0086 20       		.byte	0x20
 1584 0087 98000000 		.4byte	0x98
 1585 008b 07       		.uleb128 0x7
 1586 008c 61000000 		.4byte	.LASF8
 1587 0090 00       		.byte	0
 1588 0091 07       		.uleb128 0x7
 1589 0092 BD000000 		.4byte	.LASF9
 1590 0096 01       		.byte	0x1
 1591 0097 00       		.byte	0
 1592 0098 04       		.uleb128 0x4
 1593 0099 C0010000 		.4byte	.LASF10
 1594 009d 02       		.byte	0x2
 1595 009e 21       		.byte	0x21
 1596 009f 7E000000 		.4byte	0x7e
 1597 00a3 08       		.uleb128 0x8
 1598 00a4 01       		.byte	0x1
 1599 00a5 9C010000 		.4byte	.LASF15
 1600 00a9 01       		.byte	0x1
 1601 00aa 2202     		.2byte	0x222
 1602 00ac 01       		.byte	0x1
 1603 00ad 57000000 		.4byte	0x57
 1604 00b1 26060000 		.4byte	.LFB11
 1605 00b5 A4070000 		.4byte	.LFE11
 1606 00b9 00000000 		.4byte	.LLST11
 1607 00bd 01       		.byte	0x1
 1608 00be 1B010000 		.4byte	0x11b
 1609 00c2 09       		.uleb128 0x9
 1610 00c3 95000000 		.4byte	.LASF11
 1611 00c7 01       		.byte	0x1
 1612 00c8 2202     		.2byte	0x222
 1613 00ca 25000000 		.4byte	0x25
 1614 00ce 02       		.byte	0x2
 1615 00cf 91       		.byte	0x91
 1616 00d0 67       		.sleb128 -25
 1617 00d1 09       		.uleb128 0x9
 1618 00d2 AA000000 		.4byte	.LASF12
 1619 00d6 01       		.byte	0x1
 1620 00d7 2302     		.2byte	0x223
 1621 00d9 1B010000 		.4byte	0x11b
 1622 00dd 02       		.byte	0x2
 1623 00de 91       		.byte	0x91
 1624 00df 60       		.sleb128 -32
 1625 00e0 0A       		.uleb128 0xa
 1626 00e1 6C656E00 		.ascii	"len\000"
 1627 00e5 01       		.byte	0x1
 1628 00e6 2402     		.2byte	0x224
 1629 00e8 37000000 		.4byte	0x37
 1630 00ec 02       		.byte	0x2
 1631 00ed 91       		.byte	0x91
 1632 00ee 64       		.sleb128 -28
 1633 00ef 0B       		.uleb128 0xb
 1634 00f0 4E000000 		.4byte	.LASF13
 1635 00f4 01       		.byte	0x1
 1636 00f5 2602     		.2byte	0x226
 1637 00f7 57000000 		.4byte	0x57
 1638 00fb 02       		.byte	0x2
ARM GAS  C:\Users\embedded\AppData\Local\Temp\cckmD1Sm.s 			page 41


 1639 00fc 91       		.byte	0x91
 1640 00fd 6F       		.sleb128 -17
 1641 00fe 0B       		.uleb128 0xb
 1642 00ff 67000000 		.4byte	.LASF14
 1643 0103 01       		.byte	0x1
 1644 0104 2702     		.2byte	0x227
 1645 0106 25000000 		.4byte	0x25
 1646 010a 02       		.byte	0x2
 1647 010b 91       		.byte	0x91
 1648 010c 6B       		.sleb128 -21
 1649 010d 0C       		.uleb128 0xc
 1650 010e 6900     		.ascii	"i\000"
 1651 0110 01       		.byte	0x1
 1652 0111 2802     		.2byte	0x228
 1653 0113 37000000 		.4byte	0x37
 1654 0117 02       		.byte	0x2
 1655 0118 91       		.byte	0x91
 1656 0119 6C       		.sleb128 -20
 1657 011a 00       		.byte	0
 1658 011b 0D       		.uleb128 0xd
 1659 011c 04       		.byte	0x4
 1660 011d 25000000 		.4byte	0x25
 1661 0121 08       		.uleb128 0x8
 1662 0122 01       		.byte	0x1
 1663 0123 0E000000 		.4byte	.LASF16
 1664 0127 01       		.byte	0x1
 1665 0128 ED01     		.2byte	0x1ed
 1666 012a 01       		.byte	0x1
 1667 012b 57000000 		.4byte	0x57
 1668 012f 56050000 		.4byte	.LFB10
 1669 0133 26060000 		.4byte	.LFE10
 1670 0137 38000000 		.4byte	.LLST10
 1671 013b 01       		.byte	0x1
 1672 013c 8A010000 		.4byte	0x18a
 1673 0140 09       		.uleb128 0x9
 1674 0141 95000000 		.4byte	.LASF11
 1675 0145 01       		.byte	0x1
 1676 0146 ED01     		.2byte	0x1ed
 1677 0148 25000000 		.4byte	0x25
 1678 014c 02       		.byte	0x2
 1679 014d 91       		.byte	0x91
 1680 014e 67       		.sleb128 -25
 1681 014f 09       		.uleb128 0x9
 1682 0150 D0010000 		.4byte	.LASF17
 1683 0154 01       		.byte	0x1
 1684 0155 EE01     		.2byte	0x1ee
 1685 0157 1B010000 		.4byte	0x11b
 1686 015b 02       		.byte	0x2
 1687 015c 91       		.byte	0x91
 1688 015d 60       		.sleb128 -32
 1689 015e 0A       		.uleb128 0xa
 1690 015f 6C656E00 		.ascii	"len\000"
 1691 0163 01       		.byte	0x1
 1692 0164 EF01     		.2byte	0x1ef
 1693 0166 37000000 		.4byte	0x37
 1694 016a 02       		.byte	0x2
 1695 016b 91       		.byte	0x91
ARM GAS  C:\Users\embedded\AppData\Local\Temp\cckmD1Sm.s 			page 42


 1696 016c 64       		.sleb128 -28
 1697 016d 0B       		.uleb128 0xb
 1698 016e 4E000000 		.4byte	.LASF13
 1699 0172 01       		.byte	0x1
 1700 0173 F101     		.2byte	0x1f1
 1701 0175 57000000 		.4byte	0x57
 1702 0179 02       		.byte	0x2
 1703 017a 91       		.byte	0x91
 1704 017b 6F       		.sleb128 -17
 1705 017c 0C       		.uleb128 0xc
 1706 017d 6900     		.ascii	"i\000"
 1707 017f 01       		.byte	0x1
 1708 0180 F201     		.2byte	0x1f2
 1709 0182 25000000 		.4byte	0x25
 1710 0186 02       		.byte	0x2
 1711 0187 91       		.byte	0x91
 1712 0188 6E       		.sleb128 -18
 1713 0189 00       		.byte	0
 1714 018a 08       		.uleb128 0x8
 1715 018b 01       		.byte	0x1
 1716 018c AA010000 		.4byte	.LASF18
 1717 0190 01       		.byte	0x1
 1718 0191 DD01     		.2byte	0x1dd
 1719 0193 01       		.byte	0x1
 1720 0194 57000000 		.4byte	0x57
 1721 0198 E0040000 		.4byte	.LFB9
 1722 019c 56050000 		.4byte	.LFE9
 1723 01a0 70000000 		.4byte	.LLST9
 1724 01a4 01       		.byte	0x1
 1725 01a5 C8010000 		.4byte	0x1c8
 1726 01a9 09       		.uleb128 0x9
 1727 01aa C2000000 		.4byte	.LASF19
 1728 01ae 01       		.byte	0x1
 1729 01af DD01     		.2byte	0x1dd
 1730 01b1 25000000 		.4byte	0x25
 1731 01b5 02       		.byte	0x2
 1732 01b6 91       		.byte	0x91
 1733 01b7 67       		.sleb128 -25
 1734 01b8 0B       		.uleb128 0xb
 1735 01b9 4E000000 		.4byte	.LASF13
 1736 01bd 01       		.byte	0x1
 1737 01be DF01     		.2byte	0x1df
 1738 01c0 57000000 		.4byte	0x57
 1739 01c4 02       		.byte	0x2
 1740 01c5 91       		.byte	0x91
 1741 01c6 6F       		.sleb128 -17
 1742 01c7 00       		.byte	0
 1743 01c8 08       		.uleb128 0x8
 1744 01c9 01       		.byte	0x1
 1745 01ca 9A000000 		.4byte	.LASF20
 1746 01ce 01       		.byte	0x1
 1747 01cf BF01     		.2byte	0x1bf
 1748 01d1 01       		.byte	0x1
 1749 01d2 57000000 		.4byte	0x57
 1750 01d6 9E040000 		.4byte	.LFB8
 1751 01da E0040000 		.4byte	.LFE8
 1752 01de A8000000 		.4byte	.LLST8
ARM GAS  C:\Users\embedded\AppData\Local\Temp\cckmD1Sm.s 			page 43


 1753 01e2 01       		.byte	0x1
 1754 01e3 F7010000 		.4byte	0x1f7
 1755 01e7 0B       		.uleb128 0xb
 1756 01e8 67000000 		.4byte	.LASF14
 1757 01ec 01       		.byte	0x1
 1758 01ed C101     		.2byte	0x1c1
 1759 01ef 25000000 		.4byte	0x25
 1760 01f3 02       		.byte	0x2
 1761 01f4 91       		.byte	0x91
 1762 01f5 6F       		.sleb128 -17
 1763 01f6 00       		.byte	0
 1764 01f7 08       		.uleb128 0x8
 1765 01f8 01       		.byte	0x1
 1766 01f9 56010000 		.4byte	.LASF21
 1767 01fd 01       		.byte	0x1
 1768 01fe 5E01     		.2byte	0x15e
 1769 0200 01       		.byte	0x1
 1770 0201 57000000 		.4byte	0x57
 1771 0205 18030000 		.4byte	.LFB7
 1772 0209 9E040000 		.4byte	.LFE7
 1773 020d E0000000 		.4byte	.LLST7
 1774 0211 01       		.byte	0x1
 1775 0212 6F020000 		.4byte	0x26f
 1776 0216 09       		.uleb128 0x9
 1777 0217 95000000 		.4byte	.LASF11
 1778 021b 01       		.byte	0x1
 1779 021c 5E01     		.2byte	0x15e
 1780 021e 25000000 		.4byte	0x25
 1781 0222 02       		.byte	0x2
 1782 0223 91       		.byte	0x91
 1783 0224 67       		.sleb128 -25
 1784 0225 09       		.uleb128 0x9
 1785 0226 D0010000 		.4byte	.LASF17
 1786 022a 01       		.byte	0x1
 1787 022b 5F01     		.2byte	0x15f
 1788 022d 1B010000 		.4byte	0x11b
 1789 0231 02       		.byte	0x2
 1790 0232 91       		.byte	0x91
 1791 0233 60       		.sleb128 -32
 1792 0234 0A       		.uleb128 0xa
 1793 0235 6C656E00 		.ascii	"len\000"
 1794 0239 01       		.byte	0x1
 1795 023a 6001     		.2byte	0x160
 1796 023c 37000000 		.4byte	0x37
 1797 0240 02       		.byte	0x2
 1798 0241 91       		.byte	0x91
 1799 0242 64       		.sleb128 -28
 1800 0243 0B       		.uleb128 0xb
 1801 0244 4E000000 		.4byte	.LASF13
 1802 0248 01       		.byte	0x1
 1803 0249 6201     		.2byte	0x162
 1804 024b 57000000 		.4byte	0x57
 1805 024f 02       		.byte	0x2
 1806 0250 91       		.byte	0x91
 1807 0251 6F       		.sleb128 -17
 1808 0252 0B       		.uleb128 0xb
 1809 0253 67000000 		.4byte	.LASF14
ARM GAS  C:\Users\embedded\AppData\Local\Temp\cckmD1Sm.s 			page 44


 1810 0257 01       		.byte	0x1
 1811 0258 6301     		.2byte	0x163
 1812 025a 25000000 		.4byte	0x25
 1813 025e 02       		.byte	0x2
 1814 025f 91       		.byte	0x91
 1815 0260 6B       		.sleb128 -21
 1816 0261 0C       		.uleb128 0xc
 1817 0262 6900     		.ascii	"i\000"
 1818 0264 01       		.byte	0x1
 1819 0265 6401     		.2byte	0x164
 1820 0267 37000000 		.4byte	0x37
 1821 026b 02       		.byte	0x2
 1822 026c 91       		.byte	0x91
 1823 026d 6C       		.sleb128 -20
 1824 026e 00       		.byte	0
 1825 026f 0E       		.uleb128 0xe
 1826 0270 01       		.byte	0x1
 1827 0271 43000000 		.4byte	.LASF22
 1828 0275 01       		.byte	0x1
 1829 0276 2601     		.2byte	0x126
 1830 0278 01       		.byte	0x1
 1831 0279 57000000 		.4byte	0x57
 1832 027d 78020000 		.4byte	.LFB6
 1833 0281 18030000 		.4byte	.LFE6
 1834 0285 18010000 		.4byte	.LLST6
 1835 0289 01       		.byte	0x1
 1836 028a BC020000 		.4byte	0x2bc
 1837 028e 09       		.uleb128 0x9
 1838 028f 3E000000 		.4byte	.LASF23
 1839 0293 01       		.byte	0x1
 1840 0294 2601     		.2byte	0x126
 1841 0296 25000000 		.4byte	0x25
 1842 029a 02       		.byte	0x2
 1843 029b 91       		.byte	0x91
 1844 029c 6F       		.sleb128 -17
 1845 029d 09       		.uleb128 0x9
 1846 029e D0010000 		.4byte	.LASF17
 1847 02a2 01       		.byte	0x1
 1848 02a3 2701     		.2byte	0x127
 1849 02a5 1B010000 		.4byte	0x11b
 1850 02a9 02       		.byte	0x2
 1851 02aa 91       		.byte	0x91
 1852 02ab 68       		.sleb128 -24
 1853 02ac 0B       		.uleb128 0xb
 1854 02ad 4E000000 		.4byte	.LASF13
 1855 02b1 01       		.byte	0x1
 1856 02b2 2901     		.2byte	0x129
 1857 02b4 57000000 		.4byte	0x57
 1858 02b8 02       		.byte	0x2
 1859 02b9 91       		.byte	0x91
 1860 02ba 77       		.sleb128 -9
 1861 02bb 00       		.byte	0
 1862 02bc 0F       		.uleb128 0xf
 1863 02bd 01       		.byte	0x1
 1864 02be 56000000 		.4byte	.LASF24
 1865 02c2 01       		.byte	0x1
 1866 02c3 FF       		.byte	0xff
ARM GAS  C:\Users\embedded\AppData\Local\Temp\cckmD1Sm.s 			page 45


 1867 02c4 01       		.byte	0x1
 1868 02c5 57000000 		.4byte	0x57
 1869 02c9 10020000 		.4byte	.LFB5
 1870 02cd 78020000 		.4byte	.LFE5
 1871 02d1 50010000 		.4byte	.LLST5
 1872 02d5 01       		.byte	0x1
 1873 02d6 F8020000 		.4byte	0x2f8
 1874 02da 10       		.uleb128 0x10
 1875 02db C2000000 		.4byte	.LASF19
 1876 02df 01       		.byte	0x1
 1877 02e0 FF       		.byte	0xff
 1878 02e1 25000000 		.4byte	0x25
 1879 02e5 02       		.byte	0x2
 1880 02e6 91       		.byte	0x91
 1881 02e7 6F       		.sleb128 -17
 1882 02e8 0B       		.uleb128 0xb
 1883 02e9 4E000000 		.4byte	.LASF13
 1884 02ed 01       		.byte	0x1
 1885 02ee 0101     		.2byte	0x101
 1886 02f0 57000000 		.4byte	0x57
 1887 02f4 02       		.byte	0x2
 1888 02f5 91       		.byte	0x91
 1889 02f6 77       		.sleb128 -9
 1890 02f7 00       		.byte	0
 1891 02f8 11       		.uleb128 0x11
 1892 02f9 01       		.byte	0x1
 1893 02fa 76000000 		.4byte	.LASF30
 1894 02fe 01       		.byte	0x1
 1895 02ff E3       		.byte	0xe3
 1896 0300 01       		.byte	0x1
 1897 0301 57000000 		.4byte	0x57
 1898 0305 C8010000 		.4byte	.LFB4
 1899 0309 10020000 		.4byte	.LFE4
 1900 030d 88010000 		.4byte	.LLST4
 1901 0311 01       		.byte	0x1
 1902 0312 12       		.uleb128 0x12
 1903 0313 01       		.byte	0x1
 1904 0314 C7000000 		.4byte	.LASF25
 1905 0318 01       		.byte	0x1
 1906 0319 AD       		.byte	0xad
 1907 031a 01       		.byte	0x1
 1908 031b 57000000 		.4byte	0x57
 1909 031f 3C010000 		.4byte	.LFB3
 1910 0323 C8010000 		.4byte	.LFE3
 1911 0327 B4010000 		.4byte	.LLST3
 1912 032b 01       		.byte	0x1
 1913 032c 4D030000 		.4byte	0x34d
 1914 0330 13       		.uleb128 0x13
 1915 0331 67000000 		.4byte	.LASF14
 1916 0335 01       		.byte	0x1
 1917 0336 AF       		.byte	0xaf
 1918 0337 25000000 		.4byte	0x25
 1919 033b 02       		.byte	0x2
 1920 033c 91       		.byte	0x91
 1921 033d 6E       		.sleb128 -18
 1922 033e 13       		.uleb128 0x13
 1923 033f 4E000000 		.4byte	.LASF13
ARM GAS  C:\Users\embedded\AppData\Local\Temp\cckmD1Sm.s 			page 46


 1924 0343 01       		.byte	0x1
 1925 0344 B0       		.byte	0xb0
 1926 0345 57000000 		.4byte	0x57
 1927 0349 02       		.byte	0x2
 1928 034a 91       		.byte	0x91
 1929 034b 6F       		.sleb128 -17
 1930 034c 00       		.byte	0
 1931 034d 12       		.uleb128 0x12
 1932 034e 01       		.byte	0x1
 1933 034f 35000000 		.4byte	.LASF26
 1934 0353 01       		.byte	0x1
 1935 0354 78       		.byte	0x78
 1936 0355 01       		.byte	0x1
 1937 0356 57000000 		.4byte	0x57
 1938 035a B8000000 		.4byte	.LFB2
 1939 035e 3C010000 		.4byte	.LFE2
 1940 0362 EC010000 		.4byte	.LLST2
 1941 0366 01       		.byte	0x1
 1942 0367 88030000 		.4byte	0x388
 1943 036b 13       		.uleb128 0x13
 1944 036c 67000000 		.4byte	.LASF14
 1945 0370 01       		.byte	0x1
 1946 0371 7A       		.byte	0x7a
 1947 0372 25000000 		.4byte	0x25
 1948 0376 02       		.byte	0x2
 1949 0377 91       		.byte	0x91
 1950 0378 6E       		.sleb128 -18
 1951 0379 13       		.uleb128 0x13
 1952 037a 4E000000 		.4byte	.LASF13
 1953 037e 01       		.byte	0x1
 1954 037f 7B       		.byte	0x7b
 1955 0380 57000000 		.4byte	0x57
 1956 0384 02       		.byte	0x2
 1957 0385 91       		.byte	0x91
 1958 0386 6F       		.sleb128 -17
 1959 0387 00       		.byte	0
 1960 0388 14       		.uleb128 0x14
 1961 0389 01       		.byte	0x1
 1962 038a 6E000000 		.4byte	.LASF31
 1963 038e 01       		.byte	0x1
 1964 038f 5D       		.byte	0x5d
 1965 0390 01       		.byte	0x1
 1966 0391 40000000 		.4byte	.LFB1
 1967 0395 B8000000 		.4byte	.LFE1
 1968 0399 24020000 		.4byte	.LLST1
 1969 039d 01       		.byte	0x1
 1970 039e 15       		.uleb128 0x15
 1971 039f 01       		.byte	0x1
 1972 03a0 19000000 		.4byte	.LASF32
 1973 03a4 01       		.byte	0x1
 1974 03a5 45       		.byte	0x45
 1975 03a6 01       		.byte	0x1
 1976 03a7 25000000 		.4byte	0x25
 1977 03ab 00000000 		.4byte	.LFB0
 1978 03af 40000000 		.4byte	.LFE0
 1979 03b3 50020000 		.4byte	.LLST0
 1980 03b7 01       		.byte	0x1
ARM GAS  C:\Users\embedded\AppData\Local\Temp\cckmD1Sm.s 			page 47


 1981 03b8 13       		.uleb128 0x13
 1982 03b9 67000000 		.4byte	.LASF14
 1983 03bd 01       		.byte	0x1
 1984 03be 47       		.byte	0x47
 1985 03bf 25000000 		.4byte	0x25
 1986 03c3 02       		.byte	0x2
 1987 03c4 91       		.byte	0x91
 1988 03c5 77       		.sleb128 -9
 1989 03c6 00       		.byte	0
 1990 03c7 00       		.byte	0
 1991              		.section	.debug_abbrev,"",%progbits
 1992              	.Ldebug_abbrev0:
 1993 0000 01       		.uleb128 0x1
 1994 0001 11       		.uleb128 0x11
 1995 0002 01       		.byte	0x1
 1996 0003 25       		.uleb128 0x25
 1997 0004 0E       		.uleb128 0xe
 1998 0005 13       		.uleb128 0x13
 1999 0006 0B       		.uleb128 0xb
 2000 0007 03       		.uleb128 0x3
 2001 0008 0E       		.uleb128 0xe
 2002 0009 1B       		.uleb128 0x1b
 2003 000a 0E       		.uleb128 0xe
 2004 000b 11       		.uleb128 0x11
 2005 000c 01       		.uleb128 0x1
 2006 000d 12       		.uleb128 0x12
 2007 000e 01       		.uleb128 0x1
 2008 000f 10       		.uleb128 0x10
 2009 0010 06       		.uleb128 0x6
 2010 0011 00       		.byte	0
 2011 0012 00       		.byte	0
 2012 0013 02       		.uleb128 0x2
 2013 0014 16       		.uleb128 0x16
 2014 0015 00       		.byte	0
 2015 0016 03       		.uleb128 0x3
 2016 0017 08       		.uleb128 0x8
 2017 0018 3A       		.uleb128 0x3a
 2018 0019 0B       		.uleb128 0xb
 2019 001a 3B       		.uleb128 0x3b
 2020 001b 0B       		.uleb128 0xb
 2021 001c 49       		.uleb128 0x49
 2022 001d 13       		.uleb128 0x13
 2023 001e 00       		.byte	0
 2024 001f 00       		.byte	0
 2025 0020 03       		.uleb128 0x3
 2026 0021 24       		.uleb128 0x24
 2027 0022 00       		.byte	0
 2028 0023 0B       		.uleb128 0xb
 2029 0024 0B       		.uleb128 0xb
 2030 0025 3E       		.uleb128 0x3e
 2031 0026 0B       		.uleb128 0xb
 2032 0027 03       		.uleb128 0x3
 2033 0028 0E       		.uleb128 0xe
 2034 0029 00       		.byte	0
 2035 002a 00       		.byte	0
 2036 002b 04       		.uleb128 0x4
 2037 002c 16       		.uleb128 0x16
ARM GAS  C:\Users\embedded\AppData\Local\Temp\cckmD1Sm.s 			page 48


 2038 002d 00       		.byte	0
 2039 002e 03       		.uleb128 0x3
 2040 002f 0E       		.uleb128 0xe
 2041 0030 3A       		.uleb128 0x3a
 2042 0031 0B       		.uleb128 0xb
 2043 0032 3B       		.uleb128 0x3b
 2044 0033 0B       		.uleb128 0xb
 2045 0034 49       		.uleb128 0x49
 2046 0035 13       		.uleb128 0x13
 2047 0036 00       		.byte	0
 2048 0037 00       		.byte	0
 2049 0038 05       		.uleb128 0x5
 2050 0039 24       		.uleb128 0x24
 2051 003a 00       		.byte	0
 2052 003b 0B       		.uleb128 0xb
 2053 003c 0B       		.uleb128 0xb
 2054 003d 3E       		.uleb128 0x3e
 2055 003e 0B       		.uleb128 0xb
 2056 003f 03       		.uleb128 0x3
 2057 0040 08       		.uleb128 0x8
 2058 0041 00       		.byte	0
 2059 0042 00       		.byte	0
 2060 0043 06       		.uleb128 0x6
 2061 0044 04       		.uleb128 0x4
 2062 0045 01       		.byte	0x1
 2063 0046 3E       		.uleb128 0x3e
 2064 0047 0B       		.uleb128 0xb
 2065 0048 0B       		.uleb128 0xb
 2066 0049 0B       		.uleb128 0xb
 2067 004a 49       		.uleb128 0x49
 2068 004b 13       		.uleb128 0x13
 2069 004c 3A       		.uleb128 0x3a
 2070 004d 0B       		.uleb128 0xb
 2071 004e 3B       		.uleb128 0x3b
 2072 004f 0B       		.uleb128 0xb
 2073 0050 01       		.uleb128 0x1
 2074 0051 13       		.uleb128 0x13
 2075 0052 00       		.byte	0
 2076 0053 00       		.byte	0
 2077 0054 07       		.uleb128 0x7
 2078 0055 28       		.uleb128 0x28
 2079 0056 00       		.byte	0
 2080 0057 03       		.uleb128 0x3
 2081 0058 0E       		.uleb128 0xe
 2082 0059 1C       		.uleb128 0x1c
 2083 005a 0B       		.uleb128 0xb
 2084 005b 00       		.byte	0
 2085 005c 00       		.byte	0
 2086 005d 08       		.uleb128 0x8
 2087 005e 2E       		.uleb128 0x2e
 2088 005f 01       		.byte	0x1
 2089 0060 3F       		.uleb128 0x3f
 2090 0061 0C       		.uleb128 0xc
 2091 0062 03       		.uleb128 0x3
 2092 0063 0E       		.uleb128 0xe
 2093 0064 3A       		.uleb128 0x3a
 2094 0065 0B       		.uleb128 0xb
ARM GAS  C:\Users\embedded\AppData\Local\Temp\cckmD1Sm.s 			page 49


 2095 0066 3B       		.uleb128 0x3b
 2096 0067 05       		.uleb128 0x5
 2097 0068 27       		.uleb128 0x27
 2098 0069 0C       		.uleb128 0xc
 2099 006a 49       		.uleb128 0x49
 2100 006b 13       		.uleb128 0x13
 2101 006c 11       		.uleb128 0x11
 2102 006d 01       		.uleb128 0x1
 2103 006e 12       		.uleb128 0x12
 2104 006f 01       		.uleb128 0x1
 2105 0070 40       		.uleb128 0x40
 2106 0071 06       		.uleb128 0x6
 2107 0072 9642     		.uleb128 0x2116
 2108 0074 0C       		.uleb128 0xc
 2109 0075 01       		.uleb128 0x1
 2110 0076 13       		.uleb128 0x13
 2111 0077 00       		.byte	0
 2112 0078 00       		.byte	0
 2113 0079 09       		.uleb128 0x9
 2114 007a 05       		.uleb128 0x5
 2115 007b 00       		.byte	0
 2116 007c 03       		.uleb128 0x3
 2117 007d 0E       		.uleb128 0xe
 2118 007e 3A       		.uleb128 0x3a
 2119 007f 0B       		.uleb128 0xb
 2120 0080 3B       		.uleb128 0x3b
 2121 0081 05       		.uleb128 0x5
 2122 0082 49       		.uleb128 0x49
 2123 0083 13       		.uleb128 0x13
 2124 0084 02       		.uleb128 0x2
 2125 0085 0A       		.uleb128 0xa
 2126 0086 00       		.byte	0
 2127 0087 00       		.byte	0
 2128 0088 0A       		.uleb128 0xa
 2129 0089 05       		.uleb128 0x5
 2130 008a 00       		.byte	0
 2131 008b 03       		.uleb128 0x3
 2132 008c 08       		.uleb128 0x8
 2133 008d 3A       		.uleb128 0x3a
 2134 008e 0B       		.uleb128 0xb
 2135 008f 3B       		.uleb128 0x3b
 2136 0090 05       		.uleb128 0x5
 2137 0091 49       		.uleb128 0x49
 2138 0092 13       		.uleb128 0x13
 2139 0093 02       		.uleb128 0x2
 2140 0094 0A       		.uleb128 0xa
 2141 0095 00       		.byte	0
 2142 0096 00       		.byte	0
 2143 0097 0B       		.uleb128 0xb
 2144 0098 34       		.uleb128 0x34
 2145 0099 00       		.byte	0
 2146 009a 03       		.uleb128 0x3
 2147 009b 0E       		.uleb128 0xe
 2148 009c 3A       		.uleb128 0x3a
 2149 009d 0B       		.uleb128 0xb
 2150 009e 3B       		.uleb128 0x3b
 2151 009f 05       		.uleb128 0x5
ARM GAS  C:\Users\embedded\AppData\Local\Temp\cckmD1Sm.s 			page 50


 2152 00a0 49       		.uleb128 0x49
 2153 00a1 13       		.uleb128 0x13
 2154 00a2 02       		.uleb128 0x2
 2155 00a3 0A       		.uleb128 0xa
 2156 00a4 00       		.byte	0
 2157 00a5 00       		.byte	0
 2158 00a6 0C       		.uleb128 0xc
 2159 00a7 34       		.uleb128 0x34
 2160 00a8 00       		.byte	0
 2161 00a9 03       		.uleb128 0x3
 2162 00aa 08       		.uleb128 0x8
 2163 00ab 3A       		.uleb128 0x3a
 2164 00ac 0B       		.uleb128 0xb
 2165 00ad 3B       		.uleb128 0x3b
 2166 00ae 05       		.uleb128 0x5
 2167 00af 49       		.uleb128 0x49
 2168 00b0 13       		.uleb128 0x13
 2169 00b1 02       		.uleb128 0x2
 2170 00b2 0A       		.uleb128 0xa
 2171 00b3 00       		.byte	0
 2172 00b4 00       		.byte	0
 2173 00b5 0D       		.uleb128 0xd
 2174 00b6 0F       		.uleb128 0xf
 2175 00b7 00       		.byte	0
 2176 00b8 0B       		.uleb128 0xb
 2177 00b9 0B       		.uleb128 0xb
 2178 00ba 49       		.uleb128 0x49
 2179 00bb 13       		.uleb128 0x13
 2180 00bc 00       		.byte	0
 2181 00bd 00       		.byte	0
 2182 00be 0E       		.uleb128 0xe
 2183 00bf 2E       		.uleb128 0x2e
 2184 00c0 01       		.byte	0x1
 2185 00c1 3F       		.uleb128 0x3f
 2186 00c2 0C       		.uleb128 0xc
 2187 00c3 03       		.uleb128 0x3
 2188 00c4 0E       		.uleb128 0xe
 2189 00c5 3A       		.uleb128 0x3a
 2190 00c6 0B       		.uleb128 0xb
 2191 00c7 3B       		.uleb128 0x3b
 2192 00c8 05       		.uleb128 0x5
 2193 00c9 27       		.uleb128 0x27
 2194 00ca 0C       		.uleb128 0xc
 2195 00cb 49       		.uleb128 0x49
 2196 00cc 13       		.uleb128 0x13
 2197 00cd 11       		.uleb128 0x11
 2198 00ce 01       		.uleb128 0x1
 2199 00cf 12       		.uleb128 0x12
 2200 00d0 01       		.uleb128 0x1
 2201 00d1 40       		.uleb128 0x40
 2202 00d2 06       		.uleb128 0x6
 2203 00d3 9742     		.uleb128 0x2117
 2204 00d5 0C       		.uleb128 0xc
 2205 00d6 01       		.uleb128 0x1
 2206 00d7 13       		.uleb128 0x13
 2207 00d8 00       		.byte	0
 2208 00d9 00       		.byte	0
ARM GAS  C:\Users\embedded\AppData\Local\Temp\cckmD1Sm.s 			page 51


 2209 00da 0F       		.uleb128 0xf
 2210 00db 2E       		.uleb128 0x2e
 2211 00dc 01       		.byte	0x1
 2212 00dd 3F       		.uleb128 0x3f
 2213 00de 0C       		.uleb128 0xc
 2214 00df 03       		.uleb128 0x3
 2215 00e0 0E       		.uleb128 0xe
 2216 00e1 3A       		.uleb128 0x3a
 2217 00e2 0B       		.uleb128 0xb
 2218 00e3 3B       		.uleb128 0x3b
 2219 00e4 0B       		.uleb128 0xb
 2220 00e5 27       		.uleb128 0x27
 2221 00e6 0C       		.uleb128 0xc
 2222 00e7 49       		.uleb128 0x49
 2223 00e8 13       		.uleb128 0x13
 2224 00e9 11       		.uleb128 0x11
 2225 00ea 01       		.uleb128 0x1
 2226 00eb 12       		.uleb128 0x12
 2227 00ec 01       		.uleb128 0x1
 2228 00ed 40       		.uleb128 0x40
 2229 00ee 06       		.uleb128 0x6
 2230 00ef 9742     		.uleb128 0x2117
 2231 00f1 0C       		.uleb128 0xc
 2232 00f2 01       		.uleb128 0x1
 2233 00f3 13       		.uleb128 0x13
 2234 00f4 00       		.byte	0
 2235 00f5 00       		.byte	0
 2236 00f6 10       		.uleb128 0x10
 2237 00f7 05       		.uleb128 0x5
 2238 00f8 00       		.byte	0
 2239 00f9 03       		.uleb128 0x3
 2240 00fa 0E       		.uleb128 0xe
 2241 00fb 3A       		.uleb128 0x3a
 2242 00fc 0B       		.uleb128 0xb
 2243 00fd 3B       		.uleb128 0x3b
 2244 00fe 0B       		.uleb128 0xb
 2245 00ff 49       		.uleb128 0x49
 2246 0100 13       		.uleb128 0x13
 2247 0101 02       		.uleb128 0x2
 2248 0102 0A       		.uleb128 0xa
 2249 0103 00       		.byte	0
 2250 0104 00       		.byte	0
 2251 0105 11       		.uleb128 0x11
 2252 0106 2E       		.uleb128 0x2e
 2253 0107 00       		.byte	0
 2254 0108 3F       		.uleb128 0x3f
 2255 0109 0C       		.uleb128 0xc
 2256 010a 03       		.uleb128 0x3
 2257 010b 0E       		.uleb128 0xe
 2258 010c 3A       		.uleb128 0x3a
 2259 010d 0B       		.uleb128 0xb
 2260 010e 3B       		.uleb128 0x3b
 2261 010f 0B       		.uleb128 0xb
 2262 0110 27       		.uleb128 0x27
 2263 0111 0C       		.uleb128 0xc
 2264 0112 49       		.uleb128 0x49
 2265 0113 13       		.uleb128 0x13
ARM GAS  C:\Users\embedded\AppData\Local\Temp\cckmD1Sm.s 			page 52


 2266 0114 11       		.uleb128 0x11
 2267 0115 01       		.uleb128 0x1
 2268 0116 12       		.uleb128 0x12
 2269 0117 01       		.uleb128 0x1
 2270 0118 40       		.uleb128 0x40
 2271 0119 06       		.uleb128 0x6
 2272 011a 9742     		.uleb128 0x2117
 2273 011c 0C       		.uleb128 0xc
 2274 011d 00       		.byte	0
 2275 011e 00       		.byte	0
 2276 011f 12       		.uleb128 0x12
 2277 0120 2E       		.uleb128 0x2e
 2278 0121 01       		.byte	0x1
 2279 0122 3F       		.uleb128 0x3f
 2280 0123 0C       		.uleb128 0xc
 2281 0124 03       		.uleb128 0x3
 2282 0125 0E       		.uleb128 0xe
 2283 0126 3A       		.uleb128 0x3a
 2284 0127 0B       		.uleb128 0xb
 2285 0128 3B       		.uleb128 0x3b
 2286 0129 0B       		.uleb128 0xb
 2287 012a 27       		.uleb128 0x27
 2288 012b 0C       		.uleb128 0xc
 2289 012c 49       		.uleb128 0x49
 2290 012d 13       		.uleb128 0x13
 2291 012e 11       		.uleb128 0x11
 2292 012f 01       		.uleb128 0x1
 2293 0130 12       		.uleb128 0x12
 2294 0131 01       		.uleb128 0x1
 2295 0132 40       		.uleb128 0x40
 2296 0133 06       		.uleb128 0x6
 2297 0134 9642     		.uleb128 0x2116
 2298 0136 0C       		.uleb128 0xc
 2299 0137 01       		.uleb128 0x1
 2300 0138 13       		.uleb128 0x13
 2301 0139 00       		.byte	0
 2302 013a 00       		.byte	0
 2303 013b 13       		.uleb128 0x13
 2304 013c 34       		.uleb128 0x34
 2305 013d 00       		.byte	0
 2306 013e 03       		.uleb128 0x3
 2307 013f 0E       		.uleb128 0xe
 2308 0140 3A       		.uleb128 0x3a
 2309 0141 0B       		.uleb128 0xb
 2310 0142 3B       		.uleb128 0x3b
 2311 0143 0B       		.uleb128 0xb
 2312 0144 49       		.uleb128 0x49
 2313 0145 13       		.uleb128 0x13
 2314 0146 02       		.uleb128 0x2
 2315 0147 0A       		.uleb128 0xa
 2316 0148 00       		.byte	0
 2317 0149 00       		.byte	0
 2318 014a 14       		.uleb128 0x14
 2319 014b 2E       		.uleb128 0x2e
 2320 014c 00       		.byte	0
 2321 014d 3F       		.uleb128 0x3f
 2322 014e 0C       		.uleb128 0xc
ARM GAS  C:\Users\embedded\AppData\Local\Temp\cckmD1Sm.s 			page 53


 2323 014f 03       		.uleb128 0x3
 2324 0150 0E       		.uleb128 0xe
 2325 0151 3A       		.uleb128 0x3a
 2326 0152 0B       		.uleb128 0xb
 2327 0153 3B       		.uleb128 0x3b
 2328 0154 0B       		.uleb128 0xb
 2329 0155 27       		.uleb128 0x27
 2330 0156 0C       		.uleb128 0xc
 2331 0157 11       		.uleb128 0x11
 2332 0158 01       		.uleb128 0x1
 2333 0159 12       		.uleb128 0x12
 2334 015a 01       		.uleb128 0x1
 2335 015b 40       		.uleb128 0x40
 2336 015c 06       		.uleb128 0x6
 2337 015d 9742     		.uleb128 0x2117
 2338 015f 0C       		.uleb128 0xc
 2339 0160 00       		.byte	0
 2340 0161 00       		.byte	0
 2341 0162 15       		.uleb128 0x15
 2342 0163 2E       		.uleb128 0x2e
 2343 0164 01       		.byte	0x1
 2344 0165 3F       		.uleb128 0x3f
 2345 0166 0C       		.uleb128 0xc
 2346 0167 03       		.uleb128 0x3
 2347 0168 0E       		.uleb128 0xe
 2348 0169 3A       		.uleb128 0x3a
 2349 016a 0B       		.uleb128 0xb
 2350 016b 3B       		.uleb128 0x3b
 2351 016c 0B       		.uleb128 0xb
 2352 016d 27       		.uleb128 0x27
 2353 016e 0C       		.uleb128 0xc
 2354 016f 49       		.uleb128 0x49
 2355 0170 13       		.uleb128 0x13
 2356 0171 11       		.uleb128 0x11
 2357 0172 01       		.uleb128 0x1
 2358 0173 12       		.uleb128 0x12
 2359 0174 01       		.uleb128 0x1
 2360 0175 40       		.uleb128 0x40
 2361 0176 06       		.uleb128 0x6
 2362 0177 9742     		.uleb128 0x2117
 2363 0179 0C       		.uleb128 0xc
 2364 017a 00       		.byte	0
 2365 017b 00       		.byte	0
 2366 017c 00       		.byte	0
 2367              		.section	.debug_loc,"",%progbits
 2368              	.Ldebug_loc0:
 2369              	.LLST11:
 2370 0000 26060000 		.4byte	.LFB11-.Ltext0
 2371 0004 28060000 		.4byte	.LCFI31-.Ltext0
 2372 0008 0200     		.2byte	0x2
 2373 000a 7D       		.byte	0x7d
 2374 000b 00       		.sleb128 0
 2375 000c 28060000 		.4byte	.LCFI31-.Ltext0
 2376 0010 2A060000 		.4byte	.LCFI32-.Ltext0
 2377 0014 0200     		.2byte	0x2
 2378 0016 7D       		.byte	0x7d
 2379 0017 10       		.sleb128 16
ARM GAS  C:\Users\embedded\AppData\Local\Temp\cckmD1Sm.s 			page 54


 2380 0018 2A060000 		.4byte	.LCFI32-.Ltext0
 2381 001c 2C060000 		.4byte	.LCFI33-.Ltext0
 2382 0020 0200     		.2byte	0x2
 2383 0022 7D       		.byte	0x7d
 2384 0023 20       		.sleb128 32
 2385 0024 2C060000 		.4byte	.LCFI33-.Ltext0
 2386 0028 A4070000 		.4byte	.LFE11-.Ltext0
 2387 002c 0200     		.2byte	0x2
 2388 002e 77       		.byte	0x77
 2389 002f 20       		.sleb128 32
 2390 0030 00000000 		.4byte	0
 2391 0034 00000000 		.4byte	0
 2392              	.LLST10:
 2393 0038 56050000 		.4byte	.LFB10-.Ltext0
 2394 003c 58050000 		.4byte	.LCFI28-.Ltext0
 2395 0040 0200     		.2byte	0x2
 2396 0042 7D       		.byte	0x7d
 2397 0043 00       		.sleb128 0
 2398 0044 58050000 		.4byte	.LCFI28-.Ltext0
 2399 0048 5A050000 		.4byte	.LCFI29-.Ltext0
 2400 004c 0200     		.2byte	0x2
 2401 004e 7D       		.byte	0x7d
 2402 004f 10       		.sleb128 16
 2403 0050 5A050000 		.4byte	.LCFI29-.Ltext0
 2404 0054 5C050000 		.4byte	.LCFI30-.Ltext0
 2405 0058 0200     		.2byte	0x2
 2406 005a 7D       		.byte	0x7d
 2407 005b 20       		.sleb128 32
 2408 005c 5C050000 		.4byte	.LCFI30-.Ltext0
 2409 0060 26060000 		.4byte	.LFE10-.Ltext0
 2410 0064 0200     		.2byte	0x2
 2411 0066 77       		.byte	0x77
 2412 0067 20       		.sleb128 32
 2413 0068 00000000 		.4byte	0
 2414 006c 00000000 		.4byte	0
 2415              	.LLST9:
 2416 0070 E0040000 		.4byte	.LFB9-.Ltext0
 2417 0074 E2040000 		.4byte	.LCFI25-.Ltext0
 2418 0078 0200     		.2byte	0x2
 2419 007a 7D       		.byte	0x7d
 2420 007b 00       		.sleb128 0
 2421 007c E2040000 		.4byte	.LCFI25-.Ltext0
 2422 0080 E4040000 		.4byte	.LCFI26-.Ltext0
 2423 0084 0200     		.2byte	0x2
 2424 0086 7D       		.byte	0x7d
 2425 0087 0C       		.sleb128 12
 2426 0088 E4040000 		.4byte	.LCFI26-.Ltext0
 2427 008c E6040000 		.4byte	.LCFI27-.Ltext0
 2428 0090 0200     		.2byte	0x2
 2429 0092 7D       		.byte	0x7d
 2430 0093 20       		.sleb128 32
 2431 0094 E6040000 		.4byte	.LCFI27-.Ltext0
 2432 0098 56050000 		.4byte	.LFE9-.Ltext0
 2433 009c 0200     		.2byte	0x2
 2434 009e 77       		.byte	0x77
 2435 009f 20       		.sleb128 32
 2436 00a0 00000000 		.4byte	0
ARM GAS  C:\Users\embedded\AppData\Local\Temp\cckmD1Sm.s 			page 55


 2437 00a4 00000000 		.4byte	0
 2438              	.LLST8:
 2439 00a8 9E040000 		.4byte	.LFB8-.Ltext0
 2440 00ac A0040000 		.4byte	.LCFI22-.Ltext0
 2441 00b0 0200     		.2byte	0x2
 2442 00b2 7D       		.byte	0x7d
 2443 00b3 00       		.sleb128 0
 2444 00b4 A0040000 		.4byte	.LCFI22-.Ltext0
 2445 00b8 A2040000 		.4byte	.LCFI23-.Ltext0
 2446 00bc 0200     		.2byte	0x2
 2447 00be 7D       		.byte	0x7d
 2448 00bf 0C       		.sleb128 12
 2449 00c0 A2040000 		.4byte	.LCFI23-.Ltext0
 2450 00c4 A4040000 		.4byte	.LCFI24-.Ltext0
 2451 00c8 0200     		.2byte	0x2
 2452 00ca 7D       		.byte	0x7d
 2453 00cb 18       		.sleb128 24
 2454 00cc A4040000 		.4byte	.LCFI24-.Ltext0
 2455 00d0 E0040000 		.4byte	.LFE8-.Ltext0
 2456 00d4 0200     		.2byte	0x2
 2457 00d6 77       		.byte	0x77
 2458 00d7 18       		.sleb128 24
 2459 00d8 00000000 		.4byte	0
 2460 00dc 00000000 		.4byte	0
 2461              	.LLST7:
 2462 00e0 18030000 		.4byte	.LFB7-.Ltext0
 2463 00e4 1A030000 		.4byte	.LCFI19-.Ltext0
 2464 00e8 0200     		.2byte	0x2
 2465 00ea 7D       		.byte	0x7d
 2466 00eb 00       		.sleb128 0
 2467 00ec 1A030000 		.4byte	.LCFI19-.Ltext0
 2468 00f0 1C030000 		.4byte	.LCFI20-.Ltext0
 2469 00f4 0200     		.2byte	0x2
 2470 00f6 7D       		.byte	0x7d
 2471 00f7 10       		.sleb128 16
 2472 00f8 1C030000 		.4byte	.LCFI20-.Ltext0
 2473 00fc 1E030000 		.4byte	.LCFI21-.Ltext0
 2474 0100 0200     		.2byte	0x2
 2475 0102 7D       		.byte	0x7d
 2476 0103 20       		.sleb128 32
 2477 0104 1E030000 		.4byte	.LCFI21-.Ltext0
 2478 0108 9E040000 		.4byte	.LFE7-.Ltext0
 2479 010c 0200     		.2byte	0x2
 2480 010e 77       		.byte	0x77
 2481 010f 20       		.sleb128 32
 2482 0110 00000000 		.4byte	0
 2483 0114 00000000 		.4byte	0
 2484              	.LLST6:
 2485 0118 78020000 		.4byte	.LFB6-.Ltext0
 2486 011c 7A020000 		.4byte	.LCFI16-.Ltext0
 2487 0120 0200     		.2byte	0x2
 2488 0122 7D       		.byte	0x7d
 2489 0123 00       		.sleb128 0
 2490 0124 7A020000 		.4byte	.LCFI16-.Ltext0
 2491 0128 7C020000 		.4byte	.LCFI17-.Ltext0
 2492 012c 0200     		.2byte	0x2
 2493 012e 7D       		.byte	0x7d
ARM GAS  C:\Users\embedded\AppData\Local\Temp\cckmD1Sm.s 			page 56


 2494 012f 08       		.sleb128 8
 2495 0130 7C020000 		.4byte	.LCFI17-.Ltext0
 2496 0134 7E020000 		.4byte	.LCFI18-.Ltext0
 2497 0138 0200     		.2byte	0x2
 2498 013a 7D       		.byte	0x7d
 2499 013b 18       		.sleb128 24
 2500 013c 7E020000 		.4byte	.LCFI18-.Ltext0
 2501 0140 18030000 		.4byte	.LFE6-.Ltext0
 2502 0144 0200     		.2byte	0x2
 2503 0146 77       		.byte	0x77
 2504 0147 18       		.sleb128 24
 2505 0148 00000000 		.4byte	0
 2506 014c 00000000 		.4byte	0
 2507              	.LLST5:
 2508 0150 10020000 		.4byte	.LFB5-.Ltext0
 2509 0154 12020000 		.4byte	.LCFI13-.Ltext0
 2510 0158 0200     		.2byte	0x2
 2511 015a 7D       		.byte	0x7d
 2512 015b 00       		.sleb128 0
 2513 015c 12020000 		.4byte	.LCFI13-.Ltext0
 2514 0160 14020000 		.4byte	.LCFI14-.Ltext0
 2515 0164 0200     		.2byte	0x2
 2516 0166 7D       		.byte	0x7d
 2517 0167 08       		.sleb128 8
 2518 0168 14020000 		.4byte	.LCFI14-.Ltext0
 2519 016c 16020000 		.4byte	.LCFI15-.Ltext0
 2520 0170 0200     		.2byte	0x2
 2521 0172 7D       		.byte	0x7d
 2522 0173 18       		.sleb128 24
 2523 0174 16020000 		.4byte	.LCFI15-.Ltext0
 2524 0178 78020000 		.4byte	.LFE5-.Ltext0
 2525 017c 0200     		.2byte	0x2
 2526 017e 77       		.byte	0x77
 2527 017f 18       		.sleb128 24
 2528 0180 00000000 		.4byte	0
 2529 0184 00000000 		.4byte	0
 2530              	.LLST4:
 2531 0188 C8010000 		.4byte	.LFB4-.Ltext0
 2532 018c CA010000 		.4byte	.LCFI11-.Ltext0
 2533 0190 0200     		.2byte	0x2
 2534 0192 7D       		.byte	0x7d
 2535 0193 00       		.sleb128 0
 2536 0194 CA010000 		.4byte	.LCFI11-.Ltext0
 2537 0198 CC010000 		.4byte	.LCFI12-.Ltext0
 2538 019c 0200     		.2byte	0x2
 2539 019e 7D       		.byte	0x7d
 2540 019f 08       		.sleb128 8
 2541 01a0 CC010000 		.4byte	.LCFI12-.Ltext0
 2542 01a4 10020000 		.4byte	.LFE4-.Ltext0
 2543 01a8 0200     		.2byte	0x2
 2544 01aa 77       		.byte	0x77
 2545 01ab 08       		.sleb128 8
 2546 01ac 00000000 		.4byte	0
 2547 01b0 00000000 		.4byte	0
 2548              	.LLST3:
 2549 01b4 3C010000 		.4byte	.LFB3-.Ltext0
 2550 01b8 3E010000 		.4byte	.LCFI8-.Ltext0
ARM GAS  C:\Users\embedded\AppData\Local\Temp\cckmD1Sm.s 			page 57


 2551 01bc 0200     		.2byte	0x2
 2552 01be 7D       		.byte	0x7d
 2553 01bf 00       		.sleb128 0
 2554 01c0 3E010000 		.4byte	.LCFI8-.Ltext0
 2555 01c4 40010000 		.4byte	.LCFI9-.Ltext0
 2556 01c8 0200     		.2byte	0x2
 2557 01ca 7D       		.byte	0x7d
 2558 01cb 0C       		.sleb128 12
 2559 01cc 40010000 		.4byte	.LCFI9-.Ltext0
 2560 01d0 42010000 		.4byte	.LCFI10-.Ltext0
 2561 01d4 0200     		.2byte	0x2
 2562 01d6 7D       		.byte	0x7d
 2563 01d7 18       		.sleb128 24
 2564 01d8 42010000 		.4byte	.LCFI10-.Ltext0
 2565 01dc C8010000 		.4byte	.LFE3-.Ltext0
 2566 01e0 0200     		.2byte	0x2
 2567 01e2 77       		.byte	0x77
 2568 01e3 18       		.sleb128 24
 2569 01e4 00000000 		.4byte	0
 2570 01e8 00000000 		.4byte	0
 2571              	.LLST2:
 2572 01ec B8000000 		.4byte	.LFB2-.Ltext0
 2573 01f0 BA000000 		.4byte	.LCFI5-.Ltext0
 2574 01f4 0200     		.2byte	0x2
 2575 01f6 7D       		.byte	0x7d
 2576 01f7 00       		.sleb128 0
 2577 01f8 BA000000 		.4byte	.LCFI5-.Ltext0
 2578 01fc BC000000 		.4byte	.LCFI6-.Ltext0
 2579 0200 0200     		.2byte	0x2
 2580 0202 7D       		.byte	0x7d
 2581 0203 0C       		.sleb128 12
 2582 0204 BC000000 		.4byte	.LCFI6-.Ltext0
 2583 0208 BE000000 		.4byte	.LCFI7-.Ltext0
 2584 020c 0200     		.2byte	0x2
 2585 020e 7D       		.byte	0x7d
 2586 020f 18       		.sleb128 24
 2587 0210 BE000000 		.4byte	.LCFI7-.Ltext0
 2588 0214 3C010000 		.4byte	.LFE2-.Ltext0
 2589 0218 0200     		.2byte	0x2
 2590 021a 77       		.byte	0x77
 2591 021b 18       		.sleb128 24
 2592 021c 00000000 		.4byte	0
 2593 0220 00000000 		.4byte	0
 2594              	.LLST1:
 2595 0224 40000000 		.4byte	.LFB1-.Ltext0
 2596 0228 42000000 		.4byte	.LCFI3-.Ltext0
 2597 022c 0200     		.2byte	0x2
 2598 022e 7D       		.byte	0x7d
 2599 022f 00       		.sleb128 0
 2600 0230 42000000 		.4byte	.LCFI3-.Ltext0
 2601 0234 44000000 		.4byte	.LCFI4-.Ltext0
 2602 0238 0200     		.2byte	0x2
 2603 023a 7D       		.byte	0x7d
 2604 023b 08       		.sleb128 8
 2605 023c 44000000 		.4byte	.LCFI4-.Ltext0
 2606 0240 B8000000 		.4byte	.LFE1-.Ltext0
 2607 0244 0200     		.2byte	0x2
ARM GAS  C:\Users\embedded\AppData\Local\Temp\cckmD1Sm.s 			page 58


 2608 0246 77       		.byte	0x77
 2609 0247 08       		.sleb128 8
 2610 0248 00000000 		.4byte	0
 2611 024c 00000000 		.4byte	0
 2612              	.LLST0:
 2613 0250 00000000 		.4byte	.LFB0-.Ltext0
 2614 0254 02000000 		.4byte	.LCFI0-.Ltext0
 2615 0258 0200     		.2byte	0x2
 2616 025a 7D       		.byte	0x7d
 2617 025b 00       		.sleb128 0
 2618 025c 02000000 		.4byte	.LCFI0-.Ltext0
 2619 0260 04000000 		.4byte	.LCFI1-.Ltext0
 2620 0264 0200     		.2byte	0x2
 2621 0266 7D       		.byte	0x7d
 2622 0267 08       		.sleb128 8
 2623 0268 04000000 		.4byte	.LCFI1-.Ltext0
 2624 026c 06000000 		.4byte	.LCFI2-.Ltext0
 2625 0270 0200     		.2byte	0x2
 2626 0272 7D       		.byte	0x7d
 2627 0273 10       		.sleb128 16
 2628 0274 06000000 		.4byte	.LCFI2-.Ltext0
 2629 0278 40000000 		.4byte	.LFE0-.Ltext0
 2630 027c 0200     		.2byte	0x2
 2631 027e 77       		.byte	0x77
 2632 027f 10       		.sleb128 16
 2633 0280 00000000 		.4byte	0
 2634 0284 00000000 		.4byte	0
 2635              		.section	.debug_aranges,"",%progbits
 2636 0000 1C000000 		.4byte	0x1c
 2637 0004 0200     		.2byte	0x2
 2638 0006 00000000 		.4byte	.Ldebug_info0
 2639 000a 04       		.byte	0x4
 2640 000b 00       		.byte	0
 2641 000c 0000     		.2byte	0
 2642 000e 0000     		.2byte	0
 2643 0010 00000000 		.4byte	.Ltext0
 2644 0014 A4070000 		.4byte	.Letext0-.Ltext0
 2645 0018 00000000 		.4byte	0
 2646 001c 00000000 		.4byte	0
 2647              		.section	.debug_line,"",%progbits
 2648              	.Ldebug_line0:
 2649 0000 79010000 		.section	.debug_str,"MS",%progbits,1
 2649      02002900 
 2649      00000201 
 2649      FB0E0D00 
 2649      01010101 
 2650              	.LASF7:
 2651 0000 6C6F6E67 		.ascii	"long long int\000"
 2651      206C6F6E 
 2651      6720696E 
 2651      7400
 2652              	.LASF16:
 2653 000e 6932634D 		.ascii	"i2cMyWrite\000"
 2653      79577269 
 2653      746500
 2654              	.LASF32:
 2655 0019 69326343 		.ascii	"i2cCheckStatus\000"
ARM GAS  C:\Users\embedded\AppData\Local\Temp\cckmD1Sm.s 			page 59


 2655      6865636B 
 2655      53746174 
 2655      757300
 2656              	.LASF3:
 2657 0028 756E7369 		.ascii	"unsigned int\000"
 2657      676E6564 
 2657      20696E74 
 2657      00
 2658              	.LASF26:
 2659 0035 69326353 		.ascii	"i2cStart\000"
 2659      74617274 
 2659      00
 2660              	.LASF23:
 2661 003e 6D6F6465 		.ascii	"mode\000"
 2661      00
 2662              	.LASF22:
 2663 0043 69326347 		.ascii	"i2cGetChar\000"
 2663      65744368 
 2663      617200
 2664              	.LASF13:
 2665 004e 72657443 		.ascii	"retCode\000"
 2665      6F646500 
 2666              	.LASF24:
 2667 0056 69326350 		.ascii	"i2cPutChar\000"
 2667      75744368 
 2667      617200
 2668              	.LASF8:
 2669 0061 46414C53 		.ascii	"FALSE\000"
 2669      4500
 2670              	.LASF14:
 2671 0067 73746174 		.ascii	"status\000"
 2671      757300
 2672              	.LASF31:
 2673 006e 69326349 		.ascii	"i2cInit\000"
 2673      6E697400 
 2674              	.LASF30:
 2675 0076 69326353 		.ascii	"i2cStop\000"
 2675      746F7000 
 2676              	.LASF4:
 2677 007e 6C6F6E67 		.ascii	"long long unsigned int\000"
 2677      206C6F6E 
 2677      6720756E 
 2677      7369676E 
 2677      65642069 
 2678              	.LASF11:
 2679 0095 61646472 		.ascii	"addr\000"
 2679      00
 2680              	.LASF20:
 2681 009a 69326357 		.ascii	"i2cWaitTransmit\000"
 2681      61697454 
 2681      72616E73 
 2681      6D697400 
 2682              	.LASF12:
 2683 00aa 70427566 		.ascii	"pBuf\000"
 2683      00
 2684              	.LASF1:
 2685 00af 756E7369 		.ascii	"unsigned char\000"
ARM GAS  C:\Users\embedded\AppData\Local\Temp\cckmD1Sm.s 			page 60


 2685      676E6564 
 2685      20636861 
 2685      7200
 2686              	.LASF9:
 2687 00bd 54525545 		.ascii	"TRUE\000"
 2687      00
 2688              	.LASF19:
 2689 00c2 64617461 		.ascii	"data\000"
 2689      00
 2690              	.LASF25:
 2691 00c7 69326352 		.ascii	"i2cRepeatStart\000"
 2691      65706561 
 2691      74537461 
 2691      727400
 2692              	.LASF27:
 2693 00d6 474E5520 		.ascii	"GNU C11 7.3.1 20180622 (release) [ARM/embedded-7-br"
 2693      43313120 
 2693      372E332E 
 2693      31203230 
 2693      31383036 
 2694 0109 616E6368 		.ascii	"anch revision 261907] -mcpu=arm7tdmi -mthumb -mthum"
 2694      20726576 
 2694      6973696F 
 2694      6E203236 
 2694      31393037 
 2695 013c 622D696E 		.ascii	"b-interwork -gdwarf-2 -O0\000"
 2695      74657277 
 2695      6F726B20 
 2695      2D676477 
 2695      6172662D 
 2696              	.LASF21:
 2697 0156 69326357 		.ascii	"i2cWrite\000"
 2697      72697465 
 2697      00
 2698              	.LASF29:
 2699 015f 433A5C45 		.ascii	"C:\\Embedded\\2138MiniDemo\\2138\000"
 2699      6D626564 
 2699      6465645C 
 2699      32313338 
 2699      4D696E69 
 2700              	.LASF2:
 2701 017d 73686F72 		.ascii	"short unsigned int\000"
 2701      7420756E 
 2701      7369676E 
 2701      65642069 
 2701      6E7400
 2702              	.LASF5:
 2703 0190 7369676E 		.ascii	"signed char\000"
 2703      65642063 
 2703      68617200 
 2704              	.LASF15:
 2705 019c 69326352 		.ascii	"i2cRead\000"
 2705      65616400 
 2706              	.LASF28:
 2707 01a4 6932632E 		.ascii	"i2c.c\000"
 2707      6300
 2708              	.LASF18:
ARM GAS  C:\Users\embedded\AppData\Local\Temp\cckmD1Sm.s 			page 61


 2709 01aa 69326357 		.ascii	"i2cWriteWithWait\000"
 2709      72697465 
 2709      57697468 
 2709      57616974 
 2709      00
 2710              	.LASF0:
 2711 01bb 74553136 		.ascii	"tU16\000"
 2711      00
 2712              	.LASF10:
 2713 01c0 74426F6F 		.ascii	"tBool\000"
 2713      6C00
 2714              	.LASF6:
 2715 01c6 73686F72 		.ascii	"short int\000"
 2715      7420696E 
 2715      7400
 2716              	.LASF17:
 2717 01d0 70446174 		.ascii	"pData\000"
 2717      6100
 2718              		.ident	"GCC: (GNU Tools for Arm Embedded Processors 7-2018-q2-update) 7.3.1 20180622 (release) [AR
ARM GAS  C:\Users\embedded\AppData\Local\Temp\cckmD1Sm.s 			page 62


DEFINED SYMBOLS
                            *ABS*:00000000 i2c.c
C:\Users\embedded\AppData\Local\Temp\cckmD1Sm.s:22     .text:00000000 i2cCheckStatus
C:\Users\embedded\AppData\Local\Temp\cckmD1Sm.s:30     .text:00000000 $t
C:\Users\embedded\AppData\Local\Temp\cckmD1Sm.s:76     .text:00000038 $d
C:\Users\embedded\AppData\Local\Temp\cckmD1Sm.s:81     .text:00000040 $t
C:\Users\embedded\AppData\Local\Temp\cckmD1Sm.s:88     .text:00000040 i2cInit
C:\Users\embedded\AppData\Local\Temp\cckmD1Sm.s:159    .text:000000a0 $d
C:\Users\embedded\AppData\Local\Temp\cckmD1Sm.s:168    .text:000000b8 $t
C:\Users\embedded\AppData\Local\Temp\cckmD1Sm.s:175    .text:000000b8 i2cStart
C:\Users\embedded\AppData\Local\Temp\cckmD1Sm.s:277    .text:00000134 $d
C:\Users\embedded\AppData\Local\Temp\cckmD1Sm.s:282    .text:0000013c $t
C:\Users\embedded\AppData\Local\Temp\cckmD1Sm.s:289    .text:0000013c i2cRepeatStart
C:\Users\embedded\AppData\Local\Temp\cckmD1Sm.s:395    .text:000001c0 $d
C:\Users\embedded\AppData\Local\Temp\cckmD1Sm.s:400    .text:000001c8 $t
C:\Users\embedded\AppData\Local\Temp\cckmD1Sm.s:407    .text:000001c8 i2cStop
C:\Users\embedded\AppData\Local\Temp\cckmD1Sm.s:462    .text:00000208 $d
C:\Users\embedded\AppData\Local\Temp\cckmD1Sm.s:467    .text:00000210 $t
C:\Users\embedded\AppData\Local\Temp\cckmD1Sm.s:474    .text:00000210 i2cPutChar
C:\Users\embedded\AppData\Local\Temp\cckmD1Sm.s:548    .text:0000026c $d
C:\Users\embedded\AppData\Local\Temp\cckmD1Sm.s:554    .text:00000278 $t
C:\Users\embedded\AppData\Local\Temp\cckmD1Sm.s:561    .text:00000278 i2cGetChar
C:\Users\embedded\AppData\Local\Temp\cckmD1Sm.s:671    .text:0000030c $d
C:\Users\embedded\AppData\Local\Temp\cckmD1Sm.s:677    .text:00000318 $t
C:\Users\embedded\AppData\Local\Temp\cckmD1Sm.s:684    .text:00000318 i2cWrite
C:\Users\embedded\AppData\Local\Temp\cckmD1Sm.s:948    .text:0000049e i2cWaitTransmit
C:\Users\embedded\AppData\Local\Temp\cckmD1Sm.s:1019   .text:000004e0 i2cWriteWithWait
C:\Users\embedded\AppData\Local\Temp\cckmD1Sm.s:1114   .text:00000556 i2cMyWrite
C:\Users\embedded\AppData\Local\Temp\cckmD1Sm.s:1266   .text:00000626 i2cRead

NO UNDEFINED SYMBOLS
