ARM GAS  /cygdrive/c/Users/Anders/AppData/Local/Temp/ccAtSolr.s 			page 1


   1              		.code	16
   2              		.file	"lcd.c"
   3              		.section	.debug_abbrev,"",%progbits
   4              	.Ldebug_abbrev0:
   5              		.section	.debug_info,"",%progbits
   6              	.Ldebug_info0:
   7              		.section	.debug_line,"",%progbits
   8              	.Ldebug_line0:
   9 0000 81010000 		.text
   9      02005400 
   9      00000201 
   9      FB0E0D00 
   9      01010101 
  10              	.Ltext0:
  11              		.align	2
  12              		.global	lcdColor
  13              		.code 16
  14              		.thumb_func
  15              		.type	lcdColor, %function
  16              	lcdColor:
  17              	.LFB5:
  18              		.file 1 "lcd.c"
   1:lcd.c         **** /******************************************************************************
   2:lcd.c         ****  *
   3:lcd.c         ****  * Copyright:
   4:lcd.c         ****  *    (C) 2006 Embedded Artists AB
   5:lcd.c         ****  *
   6:lcd.c         ****  * File:
   7:lcd.c         ****  *    lcd.c
   8:lcd.c         ****  *
   9:lcd.c         ****  * Description:
  10:lcd.c         ****  *    Implements routines for the LCD.
  11:lcd.c         ****  *
  12:lcd.c         ****  *****************************************************************************/
  13:lcd.c         **** 
  14:lcd.c         **** /******************************************************************************
  15:lcd.c         ****  * Includes
  16:lcd.c         ****  *****************************************************************************/
  17:lcd.c         **** #include "../pre_emptive_os/api/general.h"
  18:lcd.c         **** #include "../pre_emptive_os/api/osapi.h"
  19:lcd.c         **** #include "lcd.h"
  20:lcd.c         **** #include "ascii.h"
  21:lcd.c         **** #include "lcd_hw.h"
  22:lcd.c         **** 
  23:lcd.c         **** 
  24:lcd.c         **** /******************************************************************************
  25:lcd.c         ****  * Typedefs and defines
  26:lcd.c         ****  *****************************************************************************/
  27:lcd.c         **** #define LCD_CMD_SWRESET   0x01
  28:lcd.c         **** #define LCD_CMD_BSTRON    0x03
  29:lcd.c         **** #define LCD_CMD_SLEEPIN   0x10
  30:lcd.c         **** #define LCD_CMD_SLEEPOUT  0x11
  31:lcd.c         **** #define LCD_CMD_INVON     0x21
  32:lcd.c         **** #define LCD_CMD_SETCON    0x25
  33:lcd.c         **** #define LCD_CMD_DISPON    0x29
  34:lcd.c         **** #define LCD_CMD_CASET     0x2A
  35:lcd.c         **** #define LCD_CMD_PASET     0x2B
ARM GAS  /cygdrive/c/Users/Anders/AppData/Local/Temp/ccAtSolr.s 			page 2


  36:lcd.c         **** #define LCD_CMD_RAMWR     0x2C
  37:lcd.c         **** #define LCD_CMD_RGBSET    0x2D
  38:lcd.c         **** #define LCD_CMD_MADCTL    0x36
  39:lcd.c         **** #define LCD_CMD_COLMOD    0x3A
  40:lcd.c         **** 
  41:lcd.c         **** #define MADCTL_HORIZ      0x48
  42:lcd.c         **** #define MADCTL_VERT       0x68
  43:lcd.c         **** 
  44:lcd.c         **** 
  45:lcd.c         **** /*****************************************************************************
  46:lcd.c         ****  * Local variables
  47:lcd.c         ****  ****************************************************************************/
  48:lcd.c         **** static tU8 lcd_x;
  49:lcd.c         **** static tU8 lcd_y;
  50:lcd.c         **** static tU8 bkgColor;
  51:lcd.c         **** static tU8 textColor;
  52:lcd.c         **** static tU8 setcolmark;
  53:lcd.c         **** 
  54:lcd.c         **** /*****************************************************************************
  55:lcd.c         ****  * Local prototypes
  56:lcd.c         ****  ****************************************************************************/
  57:lcd.c         **** static void lcdWindow1(tU8 xp, tU8 yp, tU8 xe, tU8 ye);
  58:lcd.c         **** 
  59:lcd.c         **** 
  60:lcd.c         **** /*****************************************************************************
  61:lcd.c         ****  *
  62:lcd.c         ****  * Description:
  63:lcd.c         ****  *    Initialize the LCD controller and SPI interface
  64:lcd.c         ****  *    (0,0) is top left and (129,129) is bottom right
  65:lcd.c         ****  *    8 bits Color mode uses RRRGGGBB layout
  66:lcd.c         ****  *
  67:lcd.c         ****  ****************************************************************************/
  68:lcd.c         **** void
  69:lcd.c         **** lcdInit(void)
  70:lcd.c         **** {
  71:lcd.c         ****   bkgColor  = 0;
  72:lcd.c         ****   textColor = 0;
  73:lcd.c         ****   
  74:lcd.c         ****   //init SPI interface
  75:lcd.c         ****   initSpiForLcd();
  76:lcd.c         ****   
  77:lcd.c         ****   //select controller
  78:lcd.c         ****   selectLCD(TRUE);
  79:lcd.c         **** 
  80:lcd.c         **** 	lcdWrcmd(LCD_CMD_SWRESET);
  81:lcd.c         **** 
  82:lcd.c         **** 	osSleep(1);
  83:lcd.c         **** 	lcdWrcmd(LCD_CMD_SLEEPOUT);
  84:lcd.c         **** 	lcdWrcmd(LCD_CMD_DISPON);
  85:lcd.c         **** 	lcdWrcmd(LCD_CMD_BSTRON);
  86:lcd.c         **** 	osSleep(1);
  87:lcd.c         **** 		
  88:lcd.c         **** 	lcdWrcmd(LCD_CMD_MADCTL);   //Memory data acces control
  89:lcd.c         **** 	lcdWrdata(MADCTL_HORIZ);    //X Mirror and BGR format
  90:lcd.c         **** 	lcdWrcmd(LCD_CMD_COLMOD);   //Colour mode
  91:lcd.c         **** 	lcdWrdata(0x02);            //256 colour mode select
  92:lcd.c         **** 	lcdWrcmd(LCD_CMD_INVON);    //Non Invert mode
ARM GAS  /cygdrive/c/Users/Anders/AppData/Local/Temp/ccAtSolr.s 			page 3


  93:lcd.c         **** 
  94:lcd.c         **** 	lcdWrcmd(LCD_CMD_RGBSET);   //LUT write
  95:lcd.c         ****   lcdWrdata(0);               //Red
  96:lcd.c         ****   lcdWrdata(2);
  97:lcd.c         ****   lcdWrdata(4);
  98:lcd.c         ****   lcdWrdata(6);
  99:lcd.c         ****   lcdWrdata(9);
 100:lcd.c         ****   lcdWrdata(11);
 101:lcd.c         ****   lcdWrdata(13);
 102:lcd.c         ****   lcdWrdata(15);
 103:lcd.c         ****   lcdWrdata(0);               //Green
 104:lcd.c         ****   lcdWrdata(2);
 105:lcd.c         ****   lcdWrdata(4);
 106:lcd.c         ****   lcdWrdata(6);
 107:lcd.c         ****   lcdWrdata(9);
 108:lcd.c         ****   lcdWrdata(11);
 109:lcd.c         ****   lcdWrdata(13);
 110:lcd.c         ****   lcdWrdata(15);
 111:lcd.c         ****   lcdWrdata(0);               //Blue
 112:lcd.c         ****   lcdWrdata(6);
 113:lcd.c         **** 	lcdWrdata(10);
 114:lcd.c         **** 	lcdWrdata(15);
 115:lcd.c         **** 
 116:lcd.c         ****   //deselect controller
 117:lcd.c         ****   selectLCD(FALSE);
 118:lcd.c         **** 
 119:lcd.c         **** 	lcdContrast(56);
 120:lcd.c         **** 
 121:lcd.c         **** 	lcdClrscr();
 122:lcd.c         **** }
 123:lcd.c         **** 
 124:lcd.c         **** 
 125:lcd.c         **** /*****************************************************************************
 126:lcd.c         ****  *
 127:lcd.c         ****  * Description:
 128:lcd.c         ****  *    Clear screen (with current background color)
 129:lcd.c         ****  *
 130:lcd.c         ****  ****************************************************************************/
 131:lcd.c         **** void
 132:lcd.c         **** lcdClrscr(void)
 133:lcd.c         **** {
 134:lcd.c         ****   tU32 i;
 135:lcd.c         **** 
 136:lcd.c         **** 	lcd_x = 0;
 137:lcd.c         ****   lcd_y = 0;
 138:lcd.c         **** 
 139:lcd.c         ****   //select controller
 140:lcd.c         ****   selectLCD(TRUE);   
 141:lcd.c         **** 
 142:lcd.c         ****   lcdWindow1(255,255,128,128);
 143:lcd.c         ****   
 144:lcd.c         ****   lcdWrcmd(LCD_CMD_RAMWR);    //write memory
 145:lcd.c         ****   
 146:lcd.c         ****   for(i=0; i<16900; i++)
 147:lcd.c         ****     lcdWrdata(bkgColor);
 148:lcd.c         **** 
 149:lcd.c         ****   //deselect controller
ARM GAS  /cygdrive/c/Users/Anders/AppData/Local/Temp/ccAtSolr.s 			page 4


 150:lcd.c         ****   selectLCD(FALSE);
 151:lcd.c         **** }
 152:lcd.c         **** 
 153:lcd.c         **** 
 154:lcd.c         **** /*****************************************************************************
 155:lcd.c         ****  *
 156:lcd.c         ****  * Description:
 157:lcd.c         ****  *    Shut down the LCD controller
 158:lcd.c         ****  *
 159:lcd.c         ****  ****************************************************************************/
 160:lcd.c         **** void
 161:lcd.c         **** lcdOff(void)
 162:lcd.c         **** {
 163:lcd.c         ****   lcdClrscr();
 164:lcd.c         **** 
 165:lcd.c         ****   //select controller
 166:lcd.c         ****   selectLCD(TRUE);   
 167:lcd.c         **** 
 168:lcd.c         ****   lcdWrcmd(LCD_CMD_SLEEPIN);
 169:lcd.c         **** 
 170:lcd.c         ****   //deselect controller
 171:lcd.c         ****   selectLCD(FALSE);
 172:lcd.c         **** }
 173:lcd.c         **** 
 174:lcd.c         **** 
 175:lcd.c         **** /*****************************************************************************
 176:lcd.c         ****  *
 177:lcd.c         ****  * Description:
 178:lcd.c         ****  *    Set current foreground and background color
 179:lcd.c         ****  *
 180:lcd.c         ****  ****************************************************************************/
 181:lcd.c         **** void
 182:lcd.c         **** lcdColor(tU8 bkg, tU8 text)
 183:lcd.c         **** {
  19              		.loc 1 183 0
  20              	.LVL0:
 184:lcd.c         ****   bkgColor  = bkg;
  21              		.loc 1 184 0
  22 0000 024B     		ldr	r3, .L3
  23 0002 1870     		strb	r0, [r3]
 185:lcd.c         ****   textColor = text;
  24              		.loc 1 185 0
  25 0004 024B     		ldr	r3, .L3+4
  26              		.loc 1 183 0
  27              		@ lr needed for prologue
  28              		.loc 1 185 0
  29 0006 1970     		strb	r1, [r3]
 186:lcd.c         **** }
  30              		.loc 1 186 0
  31              		@ sp needed for prologue
  32 0008 7047     		bx	lr
  33              	.L4:
  34 000a C046     		.align	2
  35              	.L3:
  36 000c 02000000 		.word	bkgColor
  37 0010 03000000 		.word	textColor
  38              	.LFE5:
ARM GAS  /cygdrive/c/Users/Anders/AppData/Local/Temp/ccAtSolr.s 			page 5


  39              		.size	lcdColor, .-lcdColor
  40              		.align	2
  41              		.global	lcdWrdata
  42              		.code 16
  43              		.thumb_func
  44              		.type	lcdWrdata, %function
  45              	lcdWrdata:
  46              	.LFB18:
 187:lcd.c         **** 
 188:lcd.c         **** 
 189:lcd.c         **** /*****************************************************************************
 190:lcd.c         ****  *
 191:lcd.c         ****  * Description:
 192:lcd.c         ****  *    Set display contrast
 193:lcd.c         ****  *
 194:lcd.c         ****  ****************************************************************************/
 195:lcd.c         **** void
 196:lcd.c         **** lcdContrast(tU8 cont) //vary between 0 - 127
 197:lcd.c         **** {
 198:lcd.c         ****   //select controller
 199:lcd.c         ****   selectLCD(TRUE);
 200:lcd.c         **** 
 201:lcd.c         ****   //set contrast cmd.
 202:lcd.c         ****   lcdWrcmd(LCD_CMD_SETCON);
 203:lcd.c         **** 	lcdWrdata(cont);
 204:lcd.c         **** 
 205:lcd.c         ****   //deselect controller
 206:lcd.c         ****   selectLCD(FALSE);
 207:lcd.c         **** }
 208:lcd.c         **** 
 209:lcd.c         **** 
 210:lcd.c         **** /*****************************************************************************
 211:lcd.c         ****  *
 212:lcd.c         ****  * Description:
 213:lcd.c         ****  *    Draw a rectangular area with specified color.
 214:lcd.c         ****  *
 215:lcd.c         ****  ****************************************************************************/
 216:lcd.c         **** void
 217:lcd.c         **** lcdRect(tU8 x, tU8 y, tU8 xLen, tU8 yLen, tU8 color)
 218:lcd.c         **** {
 219:lcd.c         ****   tU32 i;
 220:lcd.c         ****   tU32 len;
 221:lcd.c         **** 
 222:lcd.c         ****   //select controller
 223:lcd.c         ****   selectLCD(TRUE);   
 224:lcd.c         **** 
 225:lcd.c         ****   lcdWindow1(x,y,x+xLen-1,y+yLen-1);
 226:lcd.c         ****   
 227:lcd.c         ****   lcdWrcmd(LCD_CMD_RAMWR);    //write memory
 228:lcd.c         ****   
 229:lcd.c         ****   len = xLen*yLen;
 230:lcd.c         ****   for(i=0; i<len; i++)
 231:lcd.c         ****     lcdWrdata(color);
 232:lcd.c         **** 
 233:lcd.c         ****   //deselect controller
 234:lcd.c         ****   selectLCD(FALSE);
 235:lcd.c         **** }
ARM GAS  /cygdrive/c/Users/Anders/AppData/Local/Temp/ccAtSolr.s 			page 6


 236:lcd.c         **** 
 237:lcd.c         **** 
 238:lcd.c         **** /*****************************************************************************
 239:lcd.c         ****  *
 240:lcd.c         ****  * Description:
 241:lcd.c         ****  *    Draw rectangular area with different boardser colors. Currently used
 242:lcd.c         ****  *    by example game.
 243:lcd.c         ****  *
 244:lcd.c         ****  ****************************************************************************/
 245:lcd.c         **** void
 246:lcd.c         **** lcdRectBrd(tU8 x, tU8 y, tU8 xLen, tU8 yLen, tU8 color1, tU8 color2, tU8 color3)
 247:lcd.c         **** {
 248:lcd.c         ****   tU32 i,j;
 249:lcd.c         **** 
 250:lcd.c         ****   //select controller
 251:lcd.c         ****   selectLCD(TRUE);   
 252:lcd.c         **** 
 253:lcd.c         ****   lcdWindow1(x,y,x+xLen-1,y+yLen-1);
 254:lcd.c         ****   
 255:lcd.c         ****   lcdWrcmd(LCD_CMD_RAMWR);    //write memory
 256:lcd.c         ****   
 257:lcd.c         ****   for(i=0; i<xLen; i++)
 258:lcd.c         ****     lcdWrdata(color2);
 259:lcd.c         ****   for(j=1; j<(yLen-2); j++)
 260:lcd.c         ****   {
 261:lcd.c         ****     lcdWrdata(color2);
 262:lcd.c         ****     for(i=0; i<(xLen-2); i++)
 263:lcd.c         ****       lcdWrdata(color1);
 264:lcd.c         ****     lcdWrdata(color3);
 265:lcd.c         ****   }
 266:lcd.c         ****   for(i=0; i<xLen; i++)
 267:lcd.c         ****     lcdWrdata(color3);
 268:lcd.c         **** 
 269:lcd.c         ****   //deselect controller
 270:lcd.c         ****   selectLCD(FALSE);
 271:lcd.c         **** }
 272:lcd.c         **** 
 273:lcd.c         **** 
 274:lcd.c         **** /*****************************************************************************
 275:lcd.c         ****  *
 276:lcd.c         ****  * Description:
 277:lcd.c         ****  *    Draw rectangular area from bitmap. Specify xy-position and xy-length.
 278:lcd.c         ****  *    Compressed format is supported.
 279:lcd.c         ****  *
 280:lcd.c         ****  *    In uncompressed color mode, pData points to an area of xLen * yLen
 281:lcd.c         ****  *    bytes with the icon.
 282:lcd.c         ****  *    In compressed mode the escapeChar is used to denote that the next
 283:lcd.c         ****  *    two bytes contain a length and a color (run length encoding)
 284:lcd.c         ****  *    Note that is is still possible to specify the color value that
 285:lcd.c         ****  *    equals the escape value in a compressed string.
 286:lcd.c         ****  *
 287:lcd.c         ****  ****************************************************************************/
 288:lcd.c         **** void
 289:lcd.c         **** lcdIcon(tU8 x, tU8 y, tU8 xLen, tU8 yLen, tU8 compressionOn, tU8 escapeChar, const tU8* pData)
 290:lcd.c         **** {
 291:lcd.c         ****   tU32 i,j;
 292:lcd.c         ****   tS32 len;
ARM GAS  /cygdrive/c/Users/Anders/AppData/Local/Temp/ccAtSolr.s 			page 7


 293:lcd.c         **** 
 294:lcd.c         ****   //select controller
 295:lcd.c         ****   selectLCD(TRUE);   
 296:lcd.c         **** 
 297:lcd.c         ****   lcdWindow1(x,y,x+xLen-1,y+yLen-1);
 298:lcd.c         ****   
 299:lcd.c         ****   lcdWrcmd(LCD_CMD_RAMWR);    //write memory
 300:lcd.c         ****   
 301:lcd.c         ****   len = xLen*yLen;
 302:lcd.c         ****   if (compressionOn == FALSE)
 303:lcd.c         ****   {
 304:lcd.c         ****     for(i=0; i<len; i++)
 305:lcd.c         ****       lcdWrdata(*pData++);
 306:lcd.c         ****   }
 307:lcd.c         ****   else
 308:lcd.c         ****     while(len > 0)
 309:lcd.c         ****     {
 310:lcd.c         ****       if(*pData == escapeChar)
 311:lcd.c         ****       {
 312:lcd.c         ****         pData++;
 313:lcd.c         ****         j = *pData++;
 314:lcd.c         ****         for(i=0;i<j;i++)
 315:lcd.c         ****           lcdWrdata(*pData);
 316:lcd.c         ****         pData++;
 317:lcd.c         ****         len -= j;
 318:lcd.c         ****       }
 319:lcd.c         ****       else
 320:lcd.c         ****       {
 321:lcd.c         ****         lcdWrdata(*pData++);
 322:lcd.c         ****         len--;
 323:lcd.c         ****       }
 324:lcd.c         ****     }
 325:lcd.c         **** 
 326:lcd.c         ****   //deselect controller
 327:lcd.c         ****   selectLCD(FALSE);
 328:lcd.c         **** }
 329:lcd.c         **** 
 330:lcd.c         **** 
 331:lcd.c         **** /*****************************************************************************
 332:lcd.c         ****  *
 333:lcd.c         ****  * Description:
 334:lcd.c         ****  *    Update xy-position (by also creating a window).
 335:lcd.c         ****  *
 336:lcd.c         ****  ****************************************************************************/
 337:lcd.c         **** void
 338:lcd.c         **** lcdGotoxy(tU8 x, tU8 y)
 339:lcd.c         **** {
 340:lcd.c         ****   lcd_x = x;
 341:lcd.c         ****   lcd_y = y;
 342:lcd.c         ****   lcdWindow(x, y, 129, 129);
 343:lcd.c         **** }
 344:lcd.c         **** 
 345:lcd.c         **** 
 346:lcd.c         **** /*****************************************************************************
 347:lcd.c         ****  *
 348:lcd.c         ****  * Description:
 349:lcd.c         ****  *    Initialize LCD controller for a window (to write in).
ARM GAS  /cygdrive/c/Users/Anders/AppData/Local/Temp/ccAtSolr.s 			page 8


 350:lcd.c         ****  *    Set start xy-position and xy-length.
 351:lcd.c         ****  *    Selects/deselects LCD controller.
 352:lcd.c         ****  *
 353:lcd.c         ****  ****************************************************************************/
 354:lcd.c         **** void
 355:lcd.c         **** lcdWindow(tU8 xp, tU8 yp, tU8 xe, tU8 ye)
 356:lcd.c         **** {
 357:lcd.c         ****   //select controller
 358:lcd.c         ****   selectLCD(TRUE);
 359:lcd.c         **** 
 360:lcd.c         **** 	lcdWindow1(xp, yp, xe, ye);
 361:lcd.c         **** 
 362:lcd.c         ****   //deselect controller
 363:lcd.c         ****   selectLCD(FALSE);
 364:lcd.c         **** }
 365:lcd.c         **** 
 366:lcd.c         **** 
 367:lcd.c         **** /*****************************************************************************
 368:lcd.c         ****  *
 369:lcd.c         ****  * Description:
 370:lcd.c         ****  *    Initialize LCD controller for a window (to write in).
 371:lcd.c         ****  *    Set start xy-position and xy-length
 372:lcd.c         ****  *    No select/deselect of LCD controller.
 373:lcd.c         ****  *
 374:lcd.c         ****  ****************************************************************************/
 375:lcd.c         **** static void
 376:lcd.c         **** lcdWindow1(tU8 xp, tU8 yp, tU8 xe, tU8 ye)
 377:lcd.c         **** {
 378:lcd.c         ****   lcdWrcmd(LCD_CMD_CASET);    //set X
 379:lcd.c         ****   lcdWrdata(xp+2);
 380:lcd.c         **** 	lcdWrdata(xe+2);
 381:lcd.c         **** 
 382:lcd.c         **** 	lcdWrcmd(LCD_CMD_PASET);    //set Y
 383:lcd.c         **** 	lcdWrdata(yp+2);
 384:lcd.c         **** 	lcdWrdata(ye+2);
 385:lcd.c         **** }
 386:lcd.c         **** 
 387:lcd.c         **** 
 388:lcd.c         **** /*****************************************************************************
 389:lcd.c         ****  *
 390:lcd.c         ****  * Description:
 391:lcd.c         ****  *    Update xy-position for newline situation.
 392:lcd.c         ****  *
 393:lcd.c         ****  ****************************************************************************/
 394:lcd.c         **** static void
 395:lcd.c         **** lcdNewline(void)
 396:lcd.c         **** {
 397:lcd.c         ****   lcd_x  = 0;
 398:lcd.c         ****   lcd_y	+= 14;
 399:lcd.c         ****   if (lcd_y >= 126)
 400:lcd.c         ****     lcd_y = 126;
 401:lcd.c         **** }
 402:lcd.c         **** 
 403:lcd.c         **** 
 404:lcd.c         **** /*****************************************************************************
 405:lcd.c         ****  *
 406:lcd.c         ****  * Description:
ARM GAS  /cygdrive/c/Users/Anders/AppData/Local/Temp/ccAtSolr.s 			page 9


 407:lcd.c         ****  *    Draw one character withc current foreground and background color
 408:lcd.c         ****  *    at current xy position on display. Update x-position (+8).
 409:lcd.c         ****  *
 410:lcd.c         ****  ****************************************************************************/
 411:lcd.c         **** void
 412:lcd.c         **** lcdData(tU8 data)
 413:lcd.c         **** {
 414:lcd.c         ****   //select controller
 415:lcd.c         ****   selectLCD(TRUE);
 416:lcd.c         ****   
 417:lcd.c         ****   if (data <= 127)
 418:lcd.c         ****   {
 419:lcd.c         ****     tU32 mapOffset;
 420:lcd.c         ****     tU8 i,j,byteToShift;
 421:lcd.c         **** 
 422:lcd.c         ****     data -= 30;
 423:lcd.c         ****     mapOffset = 14*data;
 424:lcd.c         **** 
 425:lcd.c         ****     lcdWrcmd(LCD_CMD_CASET);
 426:lcd.c         ****     lcdWrdata(lcd_x+2);
 427:lcd.c         ****     lcdWrdata(lcd_x+9);
 428:lcd.c         ****     lcdWrcmd(LCD_CMD_PASET);
 429:lcd.c         ****     lcdWrdata(lcd_y+2);
 430:lcd.c         ****     lcdWrdata(lcd_y+15);
 431:lcd.c         ****     lcdWrcmd(LCD_CMD_RAMWR);
 432:lcd.c         ****     
 433:lcd.c         ****     for(i=0; i<14; i++)
 434:lcd.c         ****     {
 435:lcd.c         ****       byteToShift = charMap[mapOffset++];
 436:lcd.c         ****       for(j=0; j<8; j++)
 437:lcd.c         ****       {
 438:lcd.c         ****         if (byteToShift & 0x80)
 439:lcd.c         ****           lcdWrdata(textColor);
 440:lcd.c         ****         else
 441:lcd.c         ****           lcdWrdata(bkgColor);
 442:lcd.c         ****         byteToShift <<= 1;
 443:lcd.c         ****       }
 444:lcd.c         ****     }
 445:lcd.c         ****   }
 446:lcd.c         **** 
 447:lcd.c         ****   //deselect controller
 448:lcd.c         ****   selectLCD(FALSE);
 449:lcd.c         **** 
 450:lcd.c         ****   lcd_x += 8;
 451:lcd.c         **** }
 452:lcd.c         **** 
 453:lcd.c         **** 
 454:lcd.c         **** /*****************************************************************************
 455:lcd.c         ****  *
 456:lcd.c         ****  * Description:
 457:lcd.c         ****  *    Write/draw one character at current xy-position.
 458:lcd.c         ****  *    The xy-position is updated afterwards
 459:lcd.c         ****  *
 460:lcd.c         ****  ****************************************************************************/
 461:lcd.c         **** void
 462:lcd.c         **** lcdPutchar(tU8 data)
 463:lcd.c         **** {
ARM GAS  /cygdrive/c/Users/Anders/AppData/Local/Temp/ccAtSolr.s 			page 10


 464:lcd.c         ****   if (data == '\n')
 465:lcd.c         ****     lcdNewline();
 466:lcd.c         ****   else if (data != '\r')
 467:lcd.c         ****   {
 468:lcd.c         ****     if (setcolmark == TRUE)
 469:lcd.c         ****     {
 470:lcd.c         ****       textColor = data;
 471:lcd.c         ****       setcolmark = FALSE;
 472:lcd.c         ****     }
 473:lcd.c         ****     else if (data == 0xff)
 474:lcd.c         ****       setcolmark = TRUE;
 475:lcd.c         ****     else if (lcd_x <= 124)
 476:lcd.c         ****     {
 477:lcd.c         ****       lcdData(data);
 478:lcd.c         ****     }
 479:lcd.c         ****   }
 480:lcd.c         **** }
 481:lcd.c         **** 
 482:lcd.c         **** /*****************************************************************************
 483:lcd.c         ****  *
 484:lcd.c         ****  * Description:
 485:lcd.c         ****  *    Write/draw (null-terminated) string of character at current xy-position
 486:lcd.c         ****  *
 487:lcd.c         ****  ****************************************************************************/
 488:lcd.c         **** void
 489:lcd.c         **** lcdPuts(char *s)
 490:lcd.c         **** {
 491:lcd.c         ****   while(*s != '\0')
 492:lcd.c         ****     lcdPutchar(*s++);
 493:lcd.c         **** }
 494:lcd.c         **** 
 495:lcd.c         **** 
 496:lcd.c         **** /*****************************************************************************
 497:lcd.c         ****  *
 498:lcd.c         ****  * Description:
 499:lcd.c         ****  *    Send command data to LCD controller
 500:lcd.c         ****  *
 501:lcd.c         ****  ****************************************************************************/
 502:lcd.c         **** void
 503:lcd.c         **** lcdWrcmd(tU8 data)
 504:lcd.c         **** {
 505:lcd.c         ****   sendToLCD(0, data);
 506:lcd.c         **** }
 507:lcd.c         **** 
 508:lcd.c         **** 
 509:lcd.c         **** /*****************************************************************************
 510:lcd.c         ****  *
 511:lcd.c         ****  * Description:
 512:lcd.c         ****  *    Send data byte to LCD controller
 513:lcd.c         ****  *
 514:lcd.c         ****  ****************************************************************************/
 515:lcd.c         **** void
 516:lcd.c         **** lcdWrdata(tU8 data)
 517:lcd.c         **** {
  47              		.loc 1 517 0
  48 0014 00B5     		push	{lr}
  49              	.LCFI0:
ARM GAS  /cygdrive/c/Users/Anders/AppData/Local/Temp/ccAtSolr.s 			page 11


  50              	.LVL1:
  51              		.loc 1 517 0
  52 0016 0106     		lsl	r1, r0, #24
  53 0018 090E     		lsr	r1, r1, #24
  54              	.LVL2:
 518:lcd.c         ****   sendToLCD(1, data);
  55              		.loc 1 518 0
  56 001a 0120     		mov	r0, #1
  57 001c FFF7FEFF 		bl	sendToLCD
  58              	.LVL3:
 519:lcd.c         **** }
  59              		.loc 1 519 0
  60              		@ sp needed for prologue
  61 0020 01BC     		pop	{r0}
  62 0022 0047     		bx	r0
  63              	.LFE18:
  64              		.size	lcdWrdata, .-lcdWrdata
  65              		.align	2
  66              		.global	lcdWrcmd
  67              		.code 16
  68              		.thumb_func
  69              		.type	lcdWrcmd, %function
  70              	lcdWrcmd:
  71              	.LFB17:
  72              		.loc 1 504 0
  73 0024 00B5     		push	{lr}
  74              	.LCFI1:
  75              	.LVL4:
  76              		.loc 1 504 0
  77 0026 0106     		lsl	r1, r0, #24
  78 0028 090E     		lsr	r1, r1, #24
  79              	.LVL5:
  80              		.loc 1 505 0
  81 002a 0020     		mov	r0, #0
  82 002c FFF7FEFF 		bl	sendToLCD
  83              	.LVL6:
  84              		.loc 1 506 0
  85              		@ sp needed for prologue
  86 0030 01BC     		pop	{r0}
  87 0032 0047     		bx	r0
  88              	.LFE17:
  89              		.size	lcdWrcmd, .-lcdWrcmd
  90              		.align	2
  91              		.code 16
  92              		.thumb_func
  93              		.type	lcdWindow1, %function
  94              	lcdWindow1:
  95              	.LFB12:
  96              		.loc 1 377 0
  97 0034 F0B5     		push	{r4, r5, r6, r7, lr}
  98              	.LCFI2:
  99              	.LVL7:
 100              		.loc 1 377 0
 101 0036 0406     		lsl	r4, r0, #24
 102 0038 1506     		lsl	r5, r2, #24
 103 003a 240E     		lsr	r4, r4, #24
 104              	.LVL8:
ARM GAS  /cygdrive/c/Users/Anders/AppData/Local/Temp/ccAtSolr.s 			page 12


 105 003c 2D0E     		lsr	r5, r5, #24
 106              	.LVL9:
 107              		.loc 1 379 0
 108 003e 0234     		add	r4, r4, #2
 109              	.LVL10:
 110              		.loc 1 377 0
 111 0040 0E06     		lsl	r6, r1, #24
 112              		.loc 1 379 0
 113 0042 2406     		lsl	r4, r4, #24
 114              		.loc 1 380 0
 115 0044 0235     		add	r5, r5, #2
 116              	.LVL11:
 117              		.loc 1 377 0
 118 0046 1B06     		lsl	r3, r3, #24
 119              	.LVL12:
 120              		.loc 1 378 0
 121 0048 2A20     		mov	r0, #42
 122              		.loc 1 379 0
 123 004a 240E     		lsr	r4, r4, #24
 124              		.loc 1 377 0
 125 004c 360E     		lsr	r6, r6, #24
 126              	.LVL13:
 127              		.loc 1 380 0
 128 004e 2D06     		lsl	r5, r5, #24
 129              		.loc 1 377 0
 130 0050 1F0E     		lsr	r7, r3, #24
 131              	.LVL14:
 132              		.loc 1 380 0
 133 0052 2D0E     		lsr	r5, r5, #24
 134              		.loc 1 378 0
 135 0054 FFF7FEFF 		bl	lcdWrcmd
 136              		.loc 1 383 0
 137 0058 0236     		add	r6, r6, #2
 138              	.LVL15:
 139              		.loc 1 379 0
 140 005a 201C     		mov	r0, r4
 141 005c FFF7FEFF 		bl	lcdWrdata
 142              		.loc 1 383 0
 143 0060 3606     		lsl	r6, r6, #24
 144              		.loc 1 380 0
 145 0062 281C     		mov	r0, r5
 146 0064 FFF7FEFF 		bl	lcdWrdata
 147              		.loc 1 383 0
 148 0068 360E     		lsr	r6, r6, #24
 149              		.loc 1 382 0
 150 006a 2B20     		mov	r0, #43
 151 006c FFF7FEFF 		bl	lcdWrcmd
 152              		.loc 1 383 0
 153 0070 301C     		mov	r0, r6
 154 0072 FFF7FEFF 		bl	lcdWrdata
 155              		.loc 1 384 0
 156 0076 BB1C     		add	r3, r7, #2
 157 0078 1806     		lsl	r0, r3, #24
 158 007a 000E     		lsr	r0, r0, #24
 159 007c FFF7FEFF 		bl	lcdWrdata
 160              		.loc 1 385 0
 161              		@ sp needed for prologue
ARM GAS  /cygdrive/c/Users/Anders/AppData/Local/Temp/ccAtSolr.s 			page 13


 162              	.LVL16:
 163 0080 F0BC     		pop	{r4, r5, r6, r7}
 164 0082 01BC     		pop	{r0}
 165 0084 0047     		bx	r0
 166              	.LFE12:
 167              		.size	lcdWindow1, .-lcdWindow1
 168 0086 C046     		.align	2
 169              		.global	lcdData
 170              		.code 16
 171              		.thumb_func
 172              		.type	lcdData, %function
 173              	lcdData:
 174              	.LFB14:
 175              		.loc 1 413 0
 176 0088 F0B5     		push	{r4, r5, r6, r7, lr}
 177              	.LCFI3:
 178              	.LVL17:
 179              		.loc 1 413 0
 180 008a 0006     		lsl	r0, r0, #24
 181              	.LVL18:
 182 008c 040E     		lsr	r4, r0, #24
 183              	.LVL19:
 184              		.loc 1 415 0
 185 008e 0120     		mov	r0, #1
 186 0090 FFF7FEFF 		bl	selectLCD
 187              		.loc 1 417 0
 188 0094 2306     		lsl	r3, r4, #24
 189 0096 002B     		cmp	r3, #0
 190 0098 43DB     		blt	.L12
 191              	.LBB2:
 192              		.loc 1 423 0
 193 009a 231C     		mov	r3, r4
 194 009c 1E3B     		sub	r3, r3, #30
 195 009e 1B06     		lsl	r3, r3, #24
 196 00a0 1B0E     		lsr	r3, r3, #24
 197 00a2 DD00     		lsl	r5, r3, #3
 198              		.loc 1 425 0
 199 00a4 2A20     		mov	r0, #42
 200              		.loc 1 423 0
 201 00a6 ED1A     		sub	r5, r5, r3
 202              		.loc 1 425 0
 203 00a8 FFF7FEFF 		bl	lcdWrcmd
 204              		.loc 1 426 0
 205 00ac 224C     		ldr	r4, .L24
 206              	.LVL20:
 207 00ae 2078     		ldrb	r0, [r4]
 208 00b0 0230     		add	r0, r0, #2
 209 00b2 0006     		lsl	r0, r0, #24
 210 00b4 000E     		lsr	r0, r0, #24
 211 00b6 FFF7FEFF 		bl	lcdWrdata
 212              		.loc 1 427 0
 213 00ba 2078     		ldrb	r0, [r4]
 214 00bc 0930     		add	r0, r0, #9
 215 00be 0006     		lsl	r0, r0, #24
 216 00c0 000E     		lsr	r0, r0, #24
 217 00c2 FFF7FEFF 		bl	lcdWrdata
 218              		.loc 1 428 0
ARM GAS  /cygdrive/c/Users/Anders/AppData/Local/Temp/ccAtSolr.s 			page 14


 219 00c6 2B20     		mov	r0, #43
 220 00c8 FFF7FEFF 		bl	lcdWrcmd
 221              		.loc 1 429 0
 222 00cc 1B4C     		ldr	r4, .L24+4
 223 00ce 2078     		ldrb	r0, [r4]
 224 00d0 0230     		add	r0, r0, #2
 225 00d2 0006     		lsl	r0, r0, #24
 226 00d4 000E     		lsr	r0, r0, #24
 227 00d6 FFF7FEFF 		bl	lcdWrdata
 228              		.loc 1 430 0
 229 00da 2078     		ldrb	r0, [r4]
 230 00dc 0F30     		add	r0, r0, #15
 231 00de 0006     		lsl	r0, r0, #24
 232 00e0 000E     		lsr	r0, r0, #24
 233 00e2 FFF7FEFF 		bl	lcdWrdata
 234              		.loc 1 431 0
 235 00e6 2C20     		mov	r0, #44
 236 00e8 FFF7FEFF 		bl	lcdWrcmd
 237 00ec 144B     		ldr	r3, .L24+8
 238              		.loc 1 423 0
 239 00ee 6D00     		lsl	r5, r5, #1
 240              		.loc 1 431 0
 241 00f0 EE18     		add	r6, r5, r3
 242              		.loc 1 433 0
 243 00f2 0E33     		add	r3, r3, #14
 244 00f4 EF18     		add	r7, r5, r3
 245              	.LVL21:
 246              	.L14:
 247              		.loc 1 435 0
 248 00f6 3478     		ldrb	r4, [r6]
 249 00f8 0025     		mov	r5, #0
 250              	.L15:
 251              		.loc 1 438 0
 252 00fa 2306     		lsl	r3, r4, #24
 253 00fc 002B     		cmp	r3, #0
 254 00fe 01DA     		bge	.L16
 255              		.loc 1 439 0
 256 0100 104B     		ldr	r3, .L24+12
 257 0102 00E0     		b	.L23
 258              	.L16:
 259              		.loc 1 441 0
 260 0104 104B     		ldr	r3, .L24+16
 261              	.L23:
 262 0106 1878     		ldrb	r0, [r3]
 263 0108 FFF7FEFF 		bl	lcdWrdata
 264              		.loc 1 436 0
 265 010c 6B1C     		add	r3, r5, #1
 266 010e 1B06     		lsl	r3, r3, #24
 267 0110 1D0E     		lsr	r5, r3, #24
 268 0112 082D     		cmp	r5, #8
 269 0114 02D0     		beq	.L19
 270              		.loc 1 442 0
 271 0116 6306     		lsl	r3, r4, #25
 272 0118 1C0E     		lsr	r4, r3, #24
 273 011a EEE7     		b	.L15
 274              	.L19:
 275 011c 0136     		add	r6, r6, #1
ARM GAS  /cygdrive/c/Users/Anders/AppData/Local/Temp/ccAtSolr.s 			page 15


 276              		.loc 1 433 0
 277 011e BE42     		cmp	r6, r7
 278 0120 E9D1     		bne	.L14
 279              	.LVL22:
 280              	.L12:
 281              	.LBE2:
 282              		.loc 1 448 0
 283 0122 0020     		mov	r0, #0
 284 0124 FFF7FEFF 		bl	selectLCD
 285              		.loc 1 450 0
 286 0128 034A     		ldr	r2, .L24
 287 012a 1378     		ldrb	r3, [r2]
 288 012c 0833     		add	r3, r3, #8
 289 012e 1370     		strb	r3, [r2]
 290              		.loc 1 451 0
 291              		@ sp needed for prologue
 292              	.LVL23:
 293              	.LVL24:
 294 0130 F0BC     		pop	{r4, r5, r6, r7}
 295 0132 01BC     		pop	{r0}
 296 0134 0047     		bx	r0
 297              	.L25:
 298 0136 C046     		.align	2
 299              	.L24:
 300 0138 00000000 		.word	lcd_x
 301 013c 01000000 		.word	lcd_y
 302 0140 00000000 		.word	charMap
 303 0144 03000000 		.word	textColor
 304 0148 02000000 		.word	bkgColor
 305              	.LFE14:
 306              		.size	lcdData, .-lcdData
 307              		.align	2
 308              		.global	lcdPutchar
 309              		.code 16
 310              		.thumb_func
 311              		.type	lcdPutchar, %function
 312              	lcdPutchar:
 313              	.LFB15:
 314              		.loc 1 463 0
 315 014c 00B5     		push	{lr}
 316              	.LCFI4:
 317              	.LVL25:
 318              		.loc 1 463 0
 319 014e 0006     		lsl	r0, r0, #24
 320              	.LVL26:
 321 0150 000E     		lsr	r0, r0, #24
 322              	.LVL27:
 323              		.loc 1 464 0
 324 0152 0A28     		cmp	r0, #10
 325 0154 0CD1     		bne	.L27
 326              	.LBB5:
 327              	.LBB6:
 328              		.loc 1 397 0
 329 0156 124A     		ldr	r2, .L39
 330 0158 0023     		mov	r3, #0
 331 015a 1370     		strb	r3, [r2]
 332              		.loc 1 398 0
ARM GAS  /cygdrive/c/Users/Anders/AppData/Local/Temp/ccAtSolr.s 			page 16


 333 015c 114A     		ldr	r2, .L39+4
 334 015e 1378     		ldrb	r3, [r2]
 335 0160 0E33     		add	r3, r3, #14
 336 0162 1B06     		lsl	r3, r3, #24
 337 0164 1B0E     		lsr	r3, r3, #24
 338 0166 1370     		strb	r3, [r2]
 339              		.loc 1 399 0
 340 0168 7D2B     		cmp	r3, #125
 341 016a 16D9     		bls	.L37
 342              		.loc 1 400 0
 343 016c 7E23     		mov	r3, #126
 344 016e 08E0     		b	.L38
 345              	.L27:
 346              	.LBE6:
 347              	.LBE5:
 348              		.loc 1 466 0
 349 0170 0D28     		cmp	r0, #13
 350 0172 12D0     		beq	.L37
 351              		.loc 1 468 0
 352 0174 0C4A     		ldr	r2, .L39+8
 353 0176 1378     		ldrb	r3, [r2]
 354 0178 012B     		cmp	r3, #1
 355 017a 04D1     		bne	.L32
 356              		.loc 1 470 0
 357 017c 0B4B     		ldr	r3, .L39+12
 358 017e 1870     		strb	r0, [r3]
 359              		.loc 1 471 0
 360 0180 0023     		mov	r3, #0
 361              	.L38:
 362 0182 1370     		strb	r3, [r2]
 363 0184 09E0     		b	.L37
 364              	.L32:
 365              		.loc 1 473 0
 366 0186 FF28     		cmp	r0, #255
 367 0188 01D1     		bne	.L34
 368              		.loc 1 474 0
 369 018a 0123     		mov	r3, #1
 370 018c F9E7     		b	.L38
 371              	.L34:
 372              		.loc 1 475 0
 373 018e 044B     		ldr	r3, .L39
 374 0190 1B78     		ldrb	r3, [r3]
 375 0192 7C2B     		cmp	r3, #124
 376 0194 01D8     		bhi	.L37
 377              		.loc 1 477 0
 378 0196 FFF7FEFF 		bl	lcdData
 379              	.LVL28:
 380              	.LVL29:
 381              	.L37:
 382              		.loc 1 480 0
 383              		@ sp needed for prologue
 384 019a 01BC     		pop	{r0}
 385 019c 0047     		bx	r0
 386              	.L40:
 387 019e C046     		.align	2
 388              	.L39:
 389 01a0 00000000 		.word	lcd_x
ARM GAS  /cygdrive/c/Users/Anders/AppData/Local/Temp/ccAtSolr.s 			page 17


 390 01a4 01000000 		.word	lcd_y
 391 01a8 04000000 		.word	setcolmark
 392 01ac 03000000 		.word	textColor
 393              	.LFE15:
 394              		.size	lcdPutchar, .-lcdPutchar
 395              		.align	2
 396              		.global	lcdPuts
 397              		.code 16
 398              		.thumb_func
 399              		.type	lcdPuts, %function
 400              	lcdPuts:
 401              	.LFB16:
 402              		.loc 1 490 0
 403 01b0 10B5     		push	{r4, lr}
 404              	.LCFI5:
 405              	.LVL30:
 406              		.loc 1 490 0
 407 01b2 041C     		mov	r4, r0
 408 01b4 02E0     		b	.L42
 409              	.LVL31:
 410              	.L43:
 411              		.loc 1 492 0
 412 01b6 0134     		add	r4, r4, #1
 413 01b8 FFF7FEFF 		bl	lcdPutchar
 414              	.LVL32:
 415              	.L42:
 416              		.loc 1 491 0
 417 01bc 2078     		ldrb	r0, [r4]
 418 01be 0028     		cmp	r0, #0
 419 01c0 F9D1     		bne	.L43
 420              		.loc 1 493 0
 421              		@ sp needed for prologue
 422              	.LVL33:
 423 01c2 10BC     		pop	{r4}
 424 01c4 01BC     		pop	{r0}
 425 01c6 0047     		bx	r0
 426              	.LFE16:
 427              		.size	lcdPuts, .-lcdPuts
 428              		.align	2
 429              		.global	lcdWindow
 430              		.code 16
 431              		.thumb_func
 432              		.type	lcdWindow, %function
 433              	lcdWindow:
 434              	.LFB11:
 435              		.loc 1 356 0
 436 01c8 F0B5     		push	{r4, r5, r6, r7, lr}
 437              	.LCFI6:
 438              	.LVL34:
 439              		.loc 1 356 0
 440 01ca 0D06     		lsl	r5, r1, #24
 441 01cc 1606     		lsl	r6, r2, #24
 442 01ce 1B06     		lsl	r3, r3, #24
 443              	.LVL35:
 444 01d0 0406     		lsl	r4, r0, #24
 445 01d2 1F0E     		lsr	r7, r3, #24
 446              	.LVL36:
ARM GAS  /cygdrive/c/Users/Anders/AppData/Local/Temp/ccAtSolr.s 			page 18


 447 01d4 2D0E     		lsr	r5, r5, #24
 448              	.LVL37:
 449 01d6 360E     		lsr	r6, r6, #24
 450              	.LVL38:
 451 01d8 240E     		lsr	r4, r4, #24
 452              	.LVL39:
 453              		.loc 1 358 0
 454 01da 0120     		mov	r0, #1
 455 01dc FFF7FEFF 		bl	selectLCD
 456              		.loc 1 360 0
 457 01e0 291C     		mov	r1, r5
 458 01e2 321C     		mov	r2, r6
 459 01e4 3B1C     		mov	r3, r7
 460 01e6 201C     		mov	r0, r4
 461 01e8 FFF724FF 		bl	lcdWindow1
 462              		.loc 1 363 0
 463 01ec 0020     		mov	r0, #0
 464 01ee FFF7FEFF 		bl	selectLCD
 465              		.loc 1 364 0
 466              		@ sp needed for prologue
 467              	.LVL40:
 468              	.LVL41:
 469              	.LVL42:
 470              	.LVL43:
 471 01f2 F0BC     		pop	{r4, r5, r6, r7}
 472 01f4 01BC     		pop	{r0}
 473 01f6 0047     		bx	r0
 474              	.LFE11:
 475              		.size	lcdWindow, .-lcdWindow
 476              		.align	2
 477              		.global	lcdGotoxy
 478              		.code 16
 479              		.thumb_func
 480              		.type	lcdGotoxy, %function
 481              	lcdGotoxy:
 482              	.LFB10:
 483              		.loc 1 339 0
 484 01f8 00B5     		push	{lr}
 485              	.LCFI7:
 486              	.LVL44:
 487              		.loc 1 340 0
 488 01fa 074B     		ldr	r3, .L50
 489              		.loc 1 339 0
 490 01fc 0006     		lsl	r0, r0, #24
 491              	.LVL45:
 492 01fe 000E     		lsr	r0, r0, #24
 493              	.LVL46:
 494              		.loc 1 340 0
 495 0200 1870     		strb	r0, [r3]
 496              		.loc 1 339 0
 497 0202 0906     		lsl	r1, r1, #24
 498              	.LVL47:
 499              		.loc 1 341 0
 500 0204 054B     		ldr	r3, .L50+4
 501              		.loc 1 339 0
 502 0206 090E     		lsr	r1, r1, #24
 503              	.LVL48:
ARM GAS  /cygdrive/c/Users/Anders/AppData/Local/Temp/ccAtSolr.s 			page 19


 504              		.loc 1 341 0
 505 0208 1970     		strb	r1, [r3]
 506              		.loc 1 342 0
 507 020a 8122     		mov	r2, #129
 508 020c 8123     		mov	r3, #129
 509 020e FFF7FEFF 		bl	lcdWindow
 510              	.LVL49:
 511              		.loc 1 343 0
 512              		@ sp needed for prologue
 513 0212 01BC     		pop	{r0}
 514 0214 0047     		bx	r0
 515              	.L51:
 516 0216 C046     		.align	2
 517              	.L50:
 518 0218 00000000 		.word	lcd_x
 519 021c 01000000 		.word	lcd_y
 520              	.LFE10:
 521              		.size	lcdGotoxy, .-lcdGotoxy
 522              		.align	2
 523              		.global	lcdIcon
 524              		.code 16
 525              		.thumb_func
 526              		.type	lcdIcon, %function
 527              	lcdIcon:
 528              	.LFB9:
 529              		.loc 1 290 0
 530 0220 F0B5     		push	{r4, r5, r6, r7, lr}
 531              	.LCFI8:
 532              	.LVL50:
 533 0222 84B0     		sub	sp, sp, #16
 534              	.LCFI9:
 535              		.loc 1 290 0
 536 0224 0D1C     		mov	r5, r1
 537 0226 1E1C     		mov	r6, r3
 538 0228 0999     		ldr	r1, [sp, #36]
 539              	.LVL51:
 540 022a 0A9B     		ldr	r3, [sp, #40]
 541              	.LVL52:
 542 022c 1206     		lsl	r2, r2, #24
 543              	.LVL53:
 544 022e 120E     		lsr	r2, r2, #24
 545 0230 0292     		str	r2, [sp, #8]
 546              	.LVL54:
 547 0232 1B06     		lsl	r3, r3, #24
 548 0234 0A06     		lsl	r2, r1, #24
 549 0236 120E     		lsr	r2, r2, #24
 550 0238 1B0E     		lsr	r3, r3, #24
 551 023a 0406     		lsl	r4, r0, #24
 552              		.loc 1 295 0
 553 023c 0120     		mov	r0, #1
 554              	.LVL55:
 555              		.loc 1 290 0
 556 023e 240E     		lsr	r4, r4, #24
 557              	.LVL56:
 558 0240 0192     		str	r2, [sp, #4]
 559              	.LVL57:
 560 0242 0093     		str	r3, [sp]
ARM GAS  /cygdrive/c/Users/Anders/AppData/Local/Temp/ccAtSolr.s 			page 20


 561              	.LVL58:
 562 0244 0B9F     		ldr	r7, [sp, #44]
 563 0246 2D06     		lsl	r5, r5, #24
 564              	.LVL59:
 565              		.loc 1 295 0
 566 0248 FFF7FEFF 		bl	selectLCD
 567              		.loc 1 297 0
 568 024c 029B     		ldr	r3, [sp, #8]
 569              		.loc 1 290 0
 570 024e 2D0E     		lsr	r5, r5, #24
 571              	.LVL60:
 572 0250 3606     		lsl	r6, r6, #24
 573              	.LVL61:
 574              		.loc 1 297 0
 575 0252 621E     		sub	r2, r4, #1
 576              		.loc 1 290 0
 577 0254 360E     		lsr	r6, r6, #24
 578              	.LVL62:
 579              		.loc 1 297 0
 580 0256 9A18     		add	r2, r3, r2
 581 0258 6B1E     		sub	r3, r5, #1
 582 025a F318     		add	r3, r6, r3
 583 025c 1206     		lsl	r2, r2, #24
 584 025e 1B06     		lsl	r3, r3, #24
 585 0260 120E     		lsr	r2, r2, #24
 586 0262 1B0E     		lsr	r3, r3, #24
 587 0264 291C     		mov	r1, r5
 588 0266 201C     		mov	r0, r4
 589 0268 FFF7E4FE 		bl	lcdWindow1
 590              		.loc 1 299 0
 591 026c 2C20     		mov	r0, #44
 592 026e FFF7FEFF 		bl	lcdWrcmd
 593              		.loc 1 301 0
 594 0272 029A     		ldr	r2, [sp, #8]
 595              		.loc 1 302 0
 596 0274 019B     		ldr	r3, [sp, #4]
 597              		.loc 1 301 0
 598 0276 151C     		mov	r5, r2
 599 0278 7543     		mul	r5, r6
 600              	.LVL63:
 601              		.loc 1 302 0
 602 027a 002B     		cmp	r3, #0
 603 027c 20D1     		bne	.L69
 604              	.LVL64:
 605 027e 0024     		mov	r4, #0
 606              	.LVL65:
 607 0280 03E0     		b	.L55
 608              	.L56:
 609              		.loc 1 305 0
 610 0282 E05D     		ldrb	r0, [r4, r7]
 611 0284 FFF7FEFF 		bl	lcdWrdata
 612              		.loc 1 304 0
 613 0288 0134     		add	r4, r4, #1
 614              	.L55:
 615 028a AC42     		cmp	r4, r5
 616 028c F9D1     		bne	.L56
 617 028e 19E0     		b	.L57
ARM GAS  /cygdrive/c/Users/Anders/AppData/Local/Temp/ccAtSolr.s 			page 21


 618              	.LVL66:
 619              	.L58:
 620              		.loc 1 310 0
 621 0290 3878     		ldrb	r0, [r7]
 622 0292 009A     		ldr	r2, [sp]
 623 0294 7B1C     		add	r3, r7, #1
 624 0296 9042     		cmp	r0, r2
 625 0298 0ED1     		bne	.L59
 626              		.loc 1 313 0
 627 029a 7F78     		ldrb	r7, [r7, #1]
 628              	.LVL67:
 629 029c 5E1C     		add	r6, r3, #1
 630              	.LVL68:
 631 029e 0024     		mov	r4, #0
 632              	.LVL69:
 633 02a0 0397     		str	r7, [sp, #12]
 634              	.LVL70:
 635 02a2 03E0     		b	.L61
 636              	.L62:
 637              		.loc 1 315 0
 638 02a4 3078     		ldrb	r0, [r6]
 639 02a6 FFF7FEFF 		bl	lcdWrdata
 640              		.loc 1 314 0
 641 02aa 0134     		add	r4, r4, #1
 642              	.L61:
 643 02ac 039B     		ldr	r3, [sp, #12]
 644 02ae 9C42     		cmp	r4, r3
 645 02b0 F8D1     		bne	.L62
 646              		.loc 1 316 0
 647 02b2 771C     		add	r7, r6, #1
 648              	.LVL71:
 649              		.loc 1 317 0
 650 02b4 ED1A     		sub	r5, r5, r3
 651 02b6 03E0     		b	.L69
 652              	.LVL72:
 653              	.L59:
 654              		.loc 1 321 0
 655 02b8 1F1C     		mov	r7, r3
 656 02ba FFF7FEFF 		bl	lcdWrdata
 657              		.loc 1 322 0
 658 02be 013D     		sub	r5, r5, #1
 659              	.LVL73:
 660              	.L69:
 661              		.loc 1 308 0
 662 02c0 002D     		cmp	r5, #0
 663 02c2 E5DC     		bgt	.L58
 664              	.L57:
 665              		.loc 1 327 0
 666 02c4 0020     		mov	r0, #0
 667 02c6 FFF7FEFF 		bl	selectLCD
 668              		.loc 1 328 0
 669 02ca 04B0     		add	sp, sp, #16
 670              		@ sp needed for prologue
 671              	.LVL74:
 672              	.LVL75:
 673              	.LVL76:
 674              	.LVL77:
ARM GAS  /cygdrive/c/Users/Anders/AppData/Local/Temp/ccAtSolr.s 			page 22


 675 02cc F0BC     		pop	{r4, r5, r6, r7}
 676 02ce 01BC     		pop	{r0}
 677 02d0 0047     		bx	r0
 678              	.LFE9:
 679              		.size	lcdIcon, .-lcdIcon
 680 02d2 C046     		.align	2
 681              		.global	lcdRectBrd
 682              		.code 16
 683              		.thumb_func
 684              		.type	lcdRectBrd, %function
 685              	lcdRectBrd:
 686              	.LFB8:
 687              		.loc 1 247 0
 688 02d4 F0B5     		push	{r4, r5, r6, r7, lr}
 689              	.LCFI10:
 690              	.LVL78:
 691 02d6 84B0     		sub	sp, sp, #16
 692              	.LCFI11:
 693              		.loc 1 247 0
 694 02d8 051C     		mov	r5, r0
 695 02da 0A98     		ldr	r0, [sp, #40]
 696              	.LVL79:
 697 02dc 0E1C     		mov	r6, r1
 698 02de 0B9C     		ldr	r4, [sp, #44]
 699 02e0 0999     		ldr	r1, [sp, #36]
 700              	.LVL80:
 701 02e2 0006     		lsl	r0, r0, #24
 702 02e4 000E     		lsr	r0, r0, #24
 703 02e6 1B06     		lsl	r3, r3, #24
 704              	.LVL81:
 705 02e8 0906     		lsl	r1, r1, #24
 706 02ea 2406     		lsl	r4, r4, #24
 707 02ec 1206     		lsl	r2, r2, #24
 708              	.LVL82:
 709 02ee 1B0E     		lsr	r3, r3, #24
 710 02f0 090E     		lsr	r1, r1, #24
 711 02f2 0190     		str	r0, [sp, #4]
 712              	.LVL83:
 713 02f4 240E     		lsr	r4, r4, #24
 714              		.loc 1 251 0
 715 02f6 0120     		mov	r0, #1
 716              		.loc 1 247 0
 717 02f8 2D06     		lsl	r5, r5, #24
 718              	.LVL84:
 719 02fa 3606     		lsl	r6, r6, #24
 720              	.LVL85:
 721 02fc 170E     		lsr	r7, r2, #24
 722              	.LVL86:
 723 02fe 2D0E     		lsr	r5, r5, #24
 724              	.LVL87:
 725 0300 360E     		lsr	r6, r6, #24
 726              	.LVL88:
 727 0302 0393     		str	r3, [sp, #12]
 728              	.LVL89:
 729 0304 0291     		str	r1, [sp, #8]
 730              	.LVL90:
 731 0306 0094     		str	r4, [sp]
ARM GAS  /cygdrive/c/Users/Anders/AppData/Local/Temp/ccAtSolr.s 			page 23


 732              	.LVL91:
 733              		.loc 1 251 0
 734 0308 FFF7FEFF 		bl	selectLCD
 735              		.loc 1 253 0
 736 030c 0399     		ldr	r1, [sp, #12]
 737 030e 6A1E     		sub	r2, r5, #1
 738 0310 731E     		sub	r3, r6, #1
 739 0312 CB18     		add	r3, r1, r3
 740 0314 BA18     		add	r2, r7, r2
 741 0316 1206     		lsl	r2, r2, #24
 742 0318 1B06     		lsl	r3, r3, #24
 743 031a 120E     		lsr	r2, r2, #24
 744 031c 1B0E     		lsr	r3, r3, #24
 745 031e 281C     		mov	r0, r5
 746 0320 311C     		mov	r1, r6
 747 0322 FFF787FE 		bl	lcdWindow1
 748              		.loc 1 255 0
 749 0326 2C20     		mov	r0, #44
 750 0328 FFF7FEFF 		bl	lcdWrcmd
 751 032c 0024     		mov	r4, #0
 752              	.LVL92:
 753 032e 03E0     		b	.L71
 754              	.L72:
 755              		.loc 1 258 0
 756 0330 0198     		ldr	r0, [sp, #4]
 757 0332 FFF7FEFF 		bl	lcdWrdata
 758              		.loc 1 257 0
 759 0336 0134     		add	r4, r4, #1
 760              	.L71:
 761 0338 BC42     		cmp	r4, r7
 762 033a F9D1     		bne	.L72
 763 033c 0126     		mov	r6, #1
 764              	.LVL93:
 765 033e 0FE0     		b	.L74
 766              	.LVL94:
 767              	.L75:
 768              		.loc 1 261 0
 769 0340 0198     		ldr	r0, [sp, #4]
 770 0342 FFF7FEFF 		bl	lcdWrdata
 771 0346 0025     		mov	r5, #0
 772              	.LVL95:
 773 0348 03E0     		b	.L76
 774              	.LVL96:
 775              	.L77:
 776              		.loc 1 263 0
 777 034a 0298     		ldr	r0, [sp, #8]
 778 034c FFF7FEFF 		bl	lcdWrdata
 779              		.loc 1 262 0
 780 0350 0135     		add	r5, r5, #1
 781              	.L76:
 782 0352 A31E     		sub	r3, r4, #2
 783 0354 9D42     		cmp	r5, r3
 784 0356 F8D1     		bne	.L77
 785              		.loc 1 264 0
 786 0358 0098     		ldr	r0, [sp]
 787 035a FFF7FEFF 		bl	lcdWrdata
 788              		.loc 1 259 0
ARM GAS  /cygdrive/c/Users/Anders/AppData/Local/Temp/ccAtSolr.s 			page 24


 789 035e 0136     		add	r6, r6, #1
 790              	.LVL97:
 791              	.L74:
 792 0360 039B     		ldr	r3, [sp, #12]
 793 0362 023B     		sub	r3, r3, #2
 794 0364 9E42     		cmp	r6, r3
 795 0366 EBD3     		bcc	.L75
 796 0368 0025     		mov	r5, #0
 797              	.LVL98:
 798 036a 03E0     		b	.L80
 799              	.L81:
 800              		.loc 1 267 0
 801 036c 0098     		ldr	r0, [sp]
 802 036e FFF7FEFF 		bl	lcdWrdata
 803              		.loc 1 266 0
 804 0372 0135     		add	r5, r5, #1
 805              	.L80:
 806 0374 BD42     		cmp	r5, r7
 807 0376 F9D1     		bne	.L81
 808              		.loc 1 270 0
 809 0378 0020     		mov	r0, #0
 810 037a FFF7FEFF 		bl	selectLCD
 811              		.loc 1 271 0
 812 037e 04B0     		add	sp, sp, #16
 813              		@ sp needed for prologue
 814              	.LVL99:
 815              	.LVL100:
 816              	.LVL101:
 817 0380 F0BC     		pop	{r4, r5, r6, r7}
 818 0382 01BC     		pop	{r0}
 819 0384 0047     		bx	r0
 820              	.LFE8:
 821              		.size	lcdRectBrd, .-lcdRectBrd
 822 0386 C046     		.align	2
 823              		.global	lcdRect
 824              		.code 16
 825              		.thumb_func
 826              		.type	lcdRect, %function
 827              	lcdRect:
 828              	.LFB7:
 829              		.loc 1 218 0
 830 0388 F0B5     		push	{r4, r5, r6, r7, lr}
 831              	.LCFI12:
 832              	.LVL102:
 833 038a 81B0     		sub	sp, sp, #4
 834              	.LCFI13:
 835              		.loc 1 218 0
 836 038c 1E1C     		mov	r6, r3
 837 038e 069B     		ldr	r3, [sp, #24]
 838              	.LVL103:
 839 0390 0D06     		lsl	r5, r1, #24
 840 0392 0406     		lsl	r4, r0, #24
 841 0394 1B06     		lsl	r3, r3, #24
 842 0396 240E     		lsr	r4, r4, #24
 843              	.LVL104:
 844 0398 2D0E     		lsr	r5, r5, #24
 845              	.LVL105:
ARM GAS  /cygdrive/c/Users/Anders/AppData/Local/Temp/ccAtSolr.s 			page 25


 846 039a 1206     		lsl	r2, r2, #24
 847              	.LVL106:
 848 039c 1B0E     		lsr	r3, r3, #24
 849              		.loc 1 223 0
 850 039e 0120     		mov	r0, #1
 851              		.loc 1 218 0
 852 03a0 3606     		lsl	r6, r6, #24
 853              	.LVL107:
 854 03a2 170E     		lsr	r7, r2, #24
 855              	.LVL108:
 856 03a4 360E     		lsr	r6, r6, #24
 857              	.LVL109:
 858 03a6 0093     		str	r3, [sp]
 859              	.LVL110:
 860              		.loc 1 223 0
 861 03a8 FFF7FEFF 		bl	selectLCD
 862              		.loc 1 225 0
 863 03ac 621E     		sub	r2, r4, #1
 864 03ae 6B1E     		sub	r3, r5, #1
 865 03b0 BA18     		add	r2, r7, r2
 866 03b2 F318     		add	r3, r6, r3
 867 03b4 1206     		lsl	r2, r2, #24
 868 03b6 1B06     		lsl	r3, r3, #24
 869 03b8 201C     		mov	r0, r4
 870 03ba 291C     		mov	r1, r5
 871 03bc 120E     		lsr	r2, r2, #24
 872 03be 1B0E     		lsr	r3, r3, #24
 873 03c0 FFF738FE 		bl	lcdWindow1
 874              		.loc 1 227 0
 875 03c4 2C20     		mov	r0, #44
 876 03c6 FFF7FEFF 		bl	lcdWrcmd
 877              		.loc 1 229 0
 878 03ca 3D1C     		mov	r5, r7
 879 03cc 7543     		mul	r5, r6
 880              	.LVL111:
 881 03ce 0024     		mov	r4, #0
 882              	.LVL112:
 883 03d0 03E0     		b	.L85
 884              	.L86:
 885              		.loc 1 231 0
 886 03d2 0098     		ldr	r0, [sp]
 887 03d4 FFF7FEFF 		bl	lcdWrdata
 888              		.loc 1 230 0
 889 03d8 0134     		add	r4, r4, #1
 890              	.L85:
 891 03da AC42     		cmp	r4, r5
 892 03dc F9D1     		bne	.L86
 893              		.loc 1 234 0
 894 03de 0020     		mov	r0, #0
 895 03e0 FFF7FEFF 		bl	selectLCD
 896              		.loc 1 235 0
 897 03e4 01B0     		add	sp, sp, #4
 898              		@ sp needed for prologue
 899              	.LVL113:
 900              	.LVL114:
 901              	.LVL115:
 902              	.LVL116:
ARM GAS  /cygdrive/c/Users/Anders/AppData/Local/Temp/ccAtSolr.s 			page 26


 903 03e6 F0BC     		pop	{r4, r5, r6, r7}
 904 03e8 01BC     		pop	{r0}
 905 03ea 0047     		bx	r0
 906              	.LFE7:
 907              		.size	lcdRect, .-lcdRect
 908              		.align	2
 909              		.global	lcdContrast
 910              		.code 16
 911              		.thumb_func
 912              		.type	lcdContrast, %function
 913              	lcdContrast:
 914              	.LFB6:
 915              		.loc 1 197 0
 916 03ec 10B5     		push	{r4, lr}
 917              	.LCFI14:
 918              	.LVL117:
 919              		.loc 1 197 0
 920 03ee 0406     		lsl	r4, r0, #24
 921              		.loc 1 199 0
 922 03f0 0120     		mov	r0, #1
 923              	.LVL118:
 924 03f2 FFF7FEFF 		bl	selectLCD
 925              		.loc 1 197 0
 926 03f6 240E     		lsr	r4, r4, #24
 927              	.LVL119:
 928              		.loc 1 202 0
 929 03f8 2520     		mov	r0, #37
 930 03fa FFF7FEFF 		bl	lcdWrcmd
 931              		.loc 1 203 0
 932 03fe 201C     		mov	r0, r4
 933 0400 FFF7FEFF 		bl	lcdWrdata
 934              		.loc 1 206 0
 935 0404 0020     		mov	r0, #0
 936 0406 FFF7FEFF 		bl	selectLCD
 937              		.loc 1 207 0
 938              		@ sp needed for prologue
 939              	.LVL120:
 940 040a 10BC     		pop	{r4}
 941 040c 01BC     		pop	{r0}
 942 040e 0047     		bx	r0
 943              	.LFE6:
 944              		.size	lcdContrast, .-lcdContrast
 945              		.align	2
 946              		.global	lcdClrscr
 947              		.code 16
 948              		.thumb_func
 949              		.type	lcdClrscr, %function
 950              	lcdClrscr:
 951              	.LFB3:
 952              		.loc 1 133 0
 953 0410 10B5     		push	{r4, lr}
 954              	.LCFI15:
 955              		.loc 1 136 0
 956 0412 104B     		ldr	r3, .L97
 957 0414 0022     		mov	r2, #0
 958 0416 1A70     		strb	r2, [r3]
 959              		.loc 1 137 0
ARM GAS  /cygdrive/c/Users/Anders/AppData/Local/Temp/ccAtSolr.s 			page 27


 960 0418 0F4B     		ldr	r3, .L97+4
 961              		.loc 1 140 0
 962 041a 0120     		mov	r0, #1
 963              		.loc 1 137 0
 964 041c 1A70     		strb	r2, [r3]
 965              		.loc 1 140 0
 966 041e FFF7FEFF 		bl	selectLCD
 967              		.loc 1 142 0
 968 0422 FF20     		mov	r0, #255
 969 0424 FF21     		mov	r1, #255
 970 0426 8022     		mov	r2, #128
 971 0428 8023     		mov	r3, #128
 972 042a FFF703FE 		bl	lcdWindow1
 973              		.loc 1 144 0
 974 042e 2C20     		mov	r0, #44
 975 0430 FFF7FEFF 		bl	lcdWrcmd
 976 0434 0024     		mov	r4, #0
 977              	.LVL121:
 978              	.L92:
 979              		.loc 1 147 0
 980 0436 094B     		ldr	r3, .L97+8
 981 0438 1878     		ldrb	r0, [r3]
 982 043a FFF7FEFF 		bl	lcdWrdata
 983              		.loc 1 146 0
 984 043e 084B     		ldr	r3, .L97+12
 985 0440 0134     		add	r4, r4, #1
 986 0442 9C42     		cmp	r4, r3
 987 0444 F7D1     		bne	.L92
 988              		.loc 1 150 0
 989 0446 0020     		mov	r0, #0
 990 0448 FFF7FEFF 		bl	selectLCD
 991              		.loc 1 151 0
 992              		@ sp needed for prologue
 993              	.LVL122:
 994 044c 10BC     		pop	{r4}
 995 044e 01BC     		pop	{r0}
 996 0450 0047     		bx	r0
 997              	.L98:
 998 0452 C046     		.align	2
 999              	.L97:
 1000 0454 00000000 		.word	lcd_x
 1001 0458 01000000 		.word	lcd_y
 1002 045c 02000000 		.word	bkgColor
 1003 0460 04420000 		.word	16900
 1004              	.LFE3:
 1005              		.size	lcdClrscr, .-lcdClrscr
 1006              		.align	2
 1007              		.global	lcdOff
 1008              		.code 16
 1009              		.thumb_func
 1010              		.type	lcdOff, %function
 1011              	lcdOff:
 1012              	.LFB4:
 1013              		.loc 1 162 0
 1014 0464 00B5     		push	{lr}
 1015              	.LCFI16:
 1016              		.loc 1 163 0
ARM GAS  /cygdrive/c/Users/Anders/AppData/Local/Temp/ccAtSolr.s 			page 28


 1017 0466 FFF7FEFF 		bl	lcdClrscr
 1018              		.loc 1 166 0
 1019 046a 0120     		mov	r0, #1
 1020 046c FFF7FEFF 		bl	selectLCD
 1021              		.loc 1 168 0
 1022 0470 1020     		mov	r0, #16
 1023 0472 FFF7FEFF 		bl	lcdWrcmd
 1024              		.loc 1 171 0
 1025 0476 0020     		mov	r0, #0
 1026 0478 FFF7FEFF 		bl	selectLCD
 1027              		.loc 1 172 0
 1028              		@ sp needed for prologue
 1029 047c 01BC     		pop	{r0}
 1030 047e 0047     		bx	r0
 1031              	.LFE4:
 1032              		.size	lcdOff, .-lcdOff
 1033              		.align	2
 1034              		.global	lcdInit
 1035              		.code 16
 1036              		.thumb_func
 1037              		.type	lcdInit, %function
 1038              	lcdInit:
 1039              	.LFB2:
 1040              		.loc 1 70 0
 1041 0480 00B5     		push	{lr}
 1042              	.LCFI17:
 1043              		.loc 1 71 0
 1044 0482 3A4B     		ldr	r3, .L103
 1045 0484 0022     		mov	r2, #0
 1046 0486 1A70     		strb	r2, [r3]
 1047              		.loc 1 72 0
 1048 0488 394B     		ldr	r3, .L103+4
 1049 048a 1A70     		strb	r2, [r3]
 1050              		.loc 1 75 0
 1051 048c FFF7FEFF 		bl	initSpiForLcd
 1052              		.loc 1 78 0
 1053 0490 0120     		mov	r0, #1
 1054 0492 FFF7FEFF 		bl	selectLCD
 1055              		.loc 1 80 0
 1056 0496 0120     		mov	r0, #1
 1057 0498 FFF7FEFF 		bl	lcdWrcmd
 1058              		.loc 1 82 0
 1059 049c 0120     		mov	r0, #1
 1060 049e FFF7FEFF 		bl	osSleep
 1061              		.loc 1 83 0
 1062 04a2 1120     		mov	r0, #17
 1063 04a4 FFF7FEFF 		bl	lcdWrcmd
 1064              		.loc 1 84 0
 1065 04a8 2920     		mov	r0, #41
 1066 04aa FFF7FEFF 		bl	lcdWrcmd
 1067              		.loc 1 85 0
 1068 04ae 0320     		mov	r0, #3
 1069 04b0 FFF7FEFF 		bl	lcdWrcmd
 1070              		.loc 1 86 0
 1071 04b4 0120     		mov	r0, #1
 1072 04b6 FFF7FEFF 		bl	osSleep
 1073              		.loc 1 88 0
ARM GAS  /cygdrive/c/Users/Anders/AppData/Local/Temp/ccAtSolr.s 			page 29


 1074 04ba 3620     		mov	r0, #54
 1075 04bc FFF7FEFF 		bl	lcdWrcmd
 1076              		.loc 1 89 0
 1077 04c0 4820     		mov	r0, #72
 1078 04c2 FFF7FEFF 		bl	lcdWrdata
 1079              		.loc 1 90 0
 1080 04c6 3A20     		mov	r0, #58
 1081 04c8 FFF7FEFF 		bl	lcdWrcmd
 1082              		.loc 1 91 0
 1083 04cc 0220     		mov	r0, #2
 1084 04ce FFF7FEFF 		bl	lcdWrdata
 1085              		.loc 1 92 0
 1086 04d2 2120     		mov	r0, #33
 1087 04d4 FFF7FEFF 		bl	lcdWrcmd
 1088              		.loc 1 94 0
 1089 04d8 2D20     		mov	r0, #45
 1090 04da FFF7FEFF 		bl	lcdWrcmd
 1091              		.loc 1 95 0
 1092 04de 0020     		mov	r0, #0
 1093 04e0 FFF7FEFF 		bl	lcdWrdata
 1094              		.loc 1 96 0
 1095 04e4 0220     		mov	r0, #2
 1096 04e6 FFF7FEFF 		bl	lcdWrdata
 1097              		.loc 1 97 0
 1098 04ea 0420     		mov	r0, #4
 1099 04ec FFF7FEFF 		bl	lcdWrdata
 1100              		.loc 1 98 0
 1101 04f0 0620     		mov	r0, #6
 1102 04f2 FFF7FEFF 		bl	lcdWrdata
 1103              		.loc 1 99 0
 1104 04f6 0920     		mov	r0, #9
 1105 04f8 FFF7FEFF 		bl	lcdWrdata
 1106              		.loc 1 100 0
 1107 04fc 0B20     		mov	r0, #11
 1108 04fe FFF7FEFF 		bl	lcdWrdata
 1109              		.loc 1 101 0
 1110 0502 0D20     		mov	r0, #13
 1111 0504 FFF7FEFF 		bl	lcdWrdata
 1112              		.loc 1 102 0
 1113 0508 0F20     		mov	r0, #15
 1114 050a FFF7FEFF 		bl	lcdWrdata
 1115              		.loc 1 103 0
 1116 050e 0020     		mov	r0, #0
 1117 0510 FFF7FEFF 		bl	lcdWrdata
 1118              		.loc 1 104 0
 1119 0514 0220     		mov	r0, #2
 1120 0516 FFF7FEFF 		bl	lcdWrdata
 1121              		.loc 1 105 0
 1122 051a 0420     		mov	r0, #4
 1123 051c FFF7FEFF 		bl	lcdWrdata
 1124              		.loc 1 106 0
 1125 0520 0620     		mov	r0, #6
 1126 0522 FFF7FEFF 		bl	lcdWrdata
 1127              		.loc 1 107 0
 1128 0526 0920     		mov	r0, #9
 1129 0528 FFF7FEFF 		bl	lcdWrdata
 1130              		.loc 1 108 0
ARM GAS  /cygdrive/c/Users/Anders/AppData/Local/Temp/ccAtSolr.s 			page 30


 1131 052c 0B20     		mov	r0, #11
 1132 052e FFF7FEFF 		bl	lcdWrdata
 1133              		.loc 1 109 0
 1134 0532 0D20     		mov	r0, #13
 1135 0534 FFF7FEFF 		bl	lcdWrdata
 1136              		.loc 1 110 0
 1137 0538 0F20     		mov	r0, #15
 1138 053a FFF7FEFF 		bl	lcdWrdata
 1139              		.loc 1 111 0
 1140 053e 0020     		mov	r0, #0
 1141 0540 FFF7FEFF 		bl	lcdWrdata
 1142              		.loc 1 112 0
 1143 0544 0620     		mov	r0, #6
 1144 0546 FFF7FEFF 		bl	lcdWrdata
 1145              		.loc 1 113 0
 1146 054a 0A20     		mov	r0, #10
 1147 054c FFF7FEFF 		bl	lcdWrdata
 1148              		.loc 1 114 0
 1149 0550 0F20     		mov	r0, #15
 1150 0552 FFF7FEFF 		bl	lcdWrdata
 1151              		.loc 1 117 0
 1152 0556 0020     		mov	r0, #0
 1153 0558 FFF7FEFF 		bl	selectLCD
 1154              		.loc 1 119 0
 1155 055c 3820     		mov	r0, #56
 1156 055e FFF7FEFF 		bl	lcdContrast
 1157              		.loc 1 121 0
 1158 0562 FFF7FEFF 		bl	lcdClrscr
 1159              		.loc 1 122 0
 1160              		@ sp needed for prologue
 1161 0566 01BC     		pop	{r0}
 1162 0568 0047     		bx	r0
 1163              	.L104:
 1164 056a C046     		.align	2
 1165              	.L103:
 1166 056c 02000000 		.word	bkgColor
 1167 0570 03000000 		.word	textColor
 1168              	.LFE2:
 1169              		.size	lcdInit, .-lcdInit
 1170              		.global	charMap
 1171              		.section	.rodata
 1172              		.type	charMap, %object
 1173              		.size	charMap, 1372
 1174              	charMap:
 1175 0000 00       		.byte	0
 1176 0001 00       		.byte	0
 1177 0002 00       		.byte	0
 1178 0003 80       		.byte	-128
 1179 0004 C0       		.byte	-64
 1180 0005 E0       		.byte	-32
 1181 0006 F8       		.byte	-8
 1182 0007 FE       		.byte	-2
 1183 0008 F8       		.byte	-8
 1184 0009 E0       		.byte	-32
 1185 000a C0       		.byte	-64
 1186 000b 80       		.byte	-128
 1187 000c 00       		.byte	0
ARM GAS  /cygdrive/c/Users/Anders/AppData/Local/Temp/ccAtSolr.s 			page 31


 1188 000d 00       		.byte	0
 1189 000e 00       		.byte	0
 1190 000f 00       		.byte	0
 1191 0010 00       		.byte	0
 1192 0011 02       		.byte	2
 1193 0012 06       		.byte	6
 1194 0013 0E       		.byte	14
 1195 0014 3E       		.byte	62
 1196 0015 FE       		.byte	-2
 1197 0016 3E       		.byte	62
 1198 0017 0E       		.byte	14
 1199 0018 06       		.byte	6
 1200 0019 02       		.byte	2
 1201 001a 00       		.byte	0
 1202 001b 00       		.byte	0
 1203 001c 00       		.byte	0
 1204 001d 00       		.byte	0
 1205 001e 00       		.byte	0
 1206 001f 00       		.byte	0
 1207 0020 00       		.byte	0
 1208 0021 00       		.byte	0
 1209 0022 00       		.byte	0
 1210 0023 00       		.byte	0
 1211 0024 00       		.byte	0
 1212 0025 00       		.byte	0
 1213 0026 00       		.byte	0
 1214 0027 00       		.byte	0
 1215 0028 00       		.byte	0
 1216 0029 00       		.byte	0
 1217 002a 00       		.byte	0
 1218 002b 00       		.byte	0
 1219 002c 00       		.byte	0
 1220 002d 18       		.byte	24
 1221 002e 3C       		.byte	60
 1222 002f 3C       		.byte	60
 1223 0030 3C       		.byte	60
 1224 0031 18       		.byte	24
 1225 0032 18       		.byte	24
 1226 0033 00       		.byte	0
 1227 0034 18       		.byte	24
 1228 0035 18       		.byte	24
 1229 0036 00       		.byte	0
 1230 0037 00       		.byte	0
 1231 0038 00       		.byte	0
 1232 0039 66       		.byte	102
 1233 003a 66       		.byte	102
 1234 003b 66       		.byte	102
 1235 003c 24       		.byte	36
 1236 003d 00       		.byte	0
 1237 003e 00       		.byte	0
 1238 003f 00       		.byte	0
 1239 0040 00       		.byte	0
 1240 0041 00       		.byte	0
 1241 0042 00       		.byte	0
 1242 0043 00       		.byte	0
 1243 0044 00       		.byte	0
 1244 0045 00       		.byte	0
ARM GAS  /cygdrive/c/Users/Anders/AppData/Local/Temp/ccAtSolr.s 			page 32


 1245 0046 00       		.byte	0
 1246 0047 00       		.byte	0
 1247 0048 00       		.byte	0
 1248 0049 6C       		.byte	108
 1249 004a 6C       		.byte	108
 1250 004b FE       		.byte	-2
 1251 004c 6C       		.byte	108
 1252 004d 6C       		.byte	108
 1253 004e 6C       		.byte	108
 1254 004f FE       		.byte	-2
 1255 0050 6C       		.byte	108
 1256 0051 6C       		.byte	108
 1257 0052 00       		.byte	0
 1258 0053 00       		.byte	0
 1259 0054 00       		.byte	0
 1260 0055 18       		.byte	24
 1261 0056 18       		.byte	24
 1262 0057 7C       		.byte	124
 1263 0058 C6       		.byte	-58
 1264 0059 C2       		.byte	-62
 1265 005a C0       		.byte	-64
 1266 005b 7C       		.byte	124
 1267 005c 06       		.byte	6
 1268 005d 86       		.byte	-122
 1269 005e C6       		.byte	-58
 1270 005f 7C       		.byte	124
 1271 0060 18       		.byte	24
 1272 0061 18       		.byte	24
 1273 0062 00       		.byte	0
 1274 0063 00       		.byte	0
 1275 0064 00       		.byte	0
 1276 0065 00       		.byte	0
 1277 0066 00       		.byte	0
 1278 0067 C2       		.byte	-62
 1279 0068 C6       		.byte	-58
 1280 0069 0C       		.byte	12
 1281 006a 18       		.byte	24
 1282 006b 30       		.byte	48
 1283 006c 66       		.byte	102
 1284 006d C6       		.byte	-58
 1285 006e 00       		.byte	0
 1286 006f 00       		.byte	0
 1287 0070 00       		.byte	0
 1288 0071 00       		.byte	0
 1289 0072 00       		.byte	0
 1290 0073 38       		.byte	56
 1291 0074 6C       		.byte	108
 1292 0075 6C       		.byte	108
 1293 0076 38       		.byte	56
 1294 0077 76       		.byte	118
 1295 0078 DC       		.byte	-36
 1296 0079 CC       		.byte	-52
 1297 007a CC       		.byte	-52
 1298 007b 76       		.byte	118
 1299 007c 00       		.byte	0
 1300 007d 00       		.byte	0
 1301 007e 00       		.byte	0
ARM GAS  /cygdrive/c/Users/Anders/AppData/Local/Temp/ccAtSolr.s 			page 33


 1302 007f 18       		.byte	24
 1303 0080 18       		.byte	24
 1304 0081 18       		.byte	24
 1305 0082 30       		.byte	48
 1306 0083 00       		.byte	0
 1307 0084 00       		.byte	0
 1308 0085 00       		.byte	0
 1309 0086 00       		.byte	0
 1310 0087 00       		.byte	0
 1311 0088 00       		.byte	0
 1312 0089 00       		.byte	0
 1313 008a 00       		.byte	0
 1314 008b 00       		.byte	0
 1315 008c 00       		.byte	0
 1316 008d 00       		.byte	0
 1317 008e 00       		.byte	0
 1318 008f 0C       		.byte	12
 1319 0090 18       		.byte	24
 1320 0091 30       		.byte	48
 1321 0092 30       		.byte	48
 1322 0093 30       		.byte	48
 1323 0094 30       		.byte	48
 1324 0095 30       		.byte	48
 1325 0096 18       		.byte	24
 1326 0097 0C       		.byte	12
 1327 0098 00       		.byte	0
 1328 0099 00       		.byte	0
 1329 009a 00       		.byte	0
 1330 009b 00       		.byte	0
 1331 009c 00       		.byte	0
 1332 009d 30       		.byte	48
 1333 009e 18       		.byte	24
 1334 009f 0C       		.byte	12
 1335 00a0 0C       		.byte	12
 1336 00a1 0C       		.byte	12
 1337 00a2 0C       		.byte	12
 1338 00a3 0C       		.byte	12
 1339 00a4 18       		.byte	24
 1340 00a5 30       		.byte	48
 1341 00a6 00       		.byte	0
 1342 00a7 00       		.byte	0
 1343 00a8 00       		.byte	0
 1344 00a9 00       		.byte	0
 1345 00aa 00       		.byte	0
 1346 00ab 00       		.byte	0
 1347 00ac 00       		.byte	0
 1348 00ad 66       		.byte	102
 1349 00ae 3C       		.byte	60
 1350 00af FF       		.byte	-1
 1351 00b0 3C       		.byte	60
 1352 00b1 66       		.byte	102
 1353 00b2 00       		.byte	0
 1354 00b3 00       		.byte	0
 1355 00b4 00       		.byte	0
 1356 00b5 00       		.byte	0
 1357 00b6 00       		.byte	0
 1358 00b7 00       		.byte	0
ARM GAS  /cygdrive/c/Users/Anders/AppData/Local/Temp/ccAtSolr.s 			page 34


 1359 00b8 00       		.byte	0
 1360 00b9 00       		.byte	0
 1361 00ba 00       		.byte	0
 1362 00bb 18       		.byte	24
 1363 00bc 18       		.byte	24
 1364 00bd 7E       		.byte	126
 1365 00be 18       		.byte	24
 1366 00bf 18       		.byte	24
 1367 00c0 00       		.byte	0
 1368 00c1 00       		.byte	0
 1369 00c2 00       		.byte	0
 1370 00c3 00       		.byte	0
 1371 00c4 00       		.byte	0
 1372 00c5 00       		.byte	0
 1373 00c6 00       		.byte	0
 1374 00c7 00       		.byte	0
 1375 00c8 00       		.byte	0
 1376 00c9 00       		.byte	0
 1377 00ca 00       		.byte	0
 1378 00cb 00       		.byte	0
 1379 00cc 00       		.byte	0
 1380 00cd 18       		.byte	24
 1381 00ce 18       		.byte	24
 1382 00cf 18       		.byte	24
 1383 00d0 30       		.byte	48
 1384 00d1 00       		.byte	0
 1385 00d2 00       		.byte	0
 1386 00d3 00       		.byte	0
 1387 00d4 00       		.byte	0
 1388 00d5 00       		.byte	0
 1389 00d6 00       		.byte	0
 1390 00d7 00       		.byte	0
 1391 00d8 00       		.byte	0
 1392 00d9 FE       		.byte	-2
 1393 00da 00       		.byte	0
 1394 00db 00       		.byte	0
 1395 00dc 00       		.byte	0
 1396 00dd 00       		.byte	0
 1397 00de 00       		.byte	0
 1398 00df 00       		.byte	0
 1399 00e0 00       		.byte	0
 1400 00e1 00       		.byte	0
 1401 00e2 00       		.byte	0
 1402 00e3 00       		.byte	0
 1403 00e4 00       		.byte	0
 1404 00e5 00       		.byte	0
 1405 00e6 00       		.byte	0
 1406 00e7 00       		.byte	0
 1407 00e8 00       		.byte	0
 1408 00e9 00       		.byte	0
 1409 00ea 18       		.byte	24
 1410 00eb 18       		.byte	24
 1411 00ec 00       		.byte	0
 1412 00ed 00       		.byte	0
 1413 00ee 00       		.byte	0
 1414 00ef 00       		.byte	0
 1415 00f0 00       		.byte	0
ARM GAS  /cygdrive/c/Users/Anders/AppData/Local/Temp/ccAtSolr.s 			page 35


 1416 00f1 02       		.byte	2
 1417 00f2 06       		.byte	6
 1418 00f3 0C       		.byte	12
 1419 00f4 18       		.byte	24
 1420 00f5 30       		.byte	48
 1421 00f6 60       		.byte	96
 1422 00f7 C0       		.byte	-64
 1423 00f8 80       		.byte	-128
 1424 00f9 00       		.byte	0
 1425 00fa 00       		.byte	0
 1426 00fb 00       		.byte	0
 1427 00fc 00       		.byte	0
 1428 00fd 00       		.byte	0
 1429 00fe 00       		.byte	0
 1430 00ff 38       		.byte	56
 1431 0100 6C       		.byte	108
 1432 0101 C6       		.byte	-58
 1433 0102 C6       		.byte	-58
 1434 0103 D6       		.byte	-42
 1435 0104 C6       		.byte	-58
 1436 0105 C6       		.byte	-58
 1437 0106 6C       		.byte	108
 1438 0107 38       		.byte	56
 1439 0108 00       		.byte	0
 1440 0109 00       		.byte	0
 1441 010a 00       		.byte	0
 1442 010b 00       		.byte	0
 1443 010c 00       		.byte	0
 1444 010d 18       		.byte	24
 1445 010e 38       		.byte	56
 1446 010f 78       		.byte	120
 1447 0110 18       		.byte	24
 1448 0111 18       		.byte	24
 1449 0112 18       		.byte	24
 1450 0113 18       		.byte	24
 1451 0114 18       		.byte	24
 1452 0115 7E       		.byte	126
 1453 0116 00       		.byte	0
 1454 0117 00       		.byte	0
 1455 0118 00       		.byte	0
 1456 0119 00       		.byte	0
 1457 011a 00       		.byte	0
 1458 011b 7C       		.byte	124
 1459 011c C6       		.byte	-58
 1460 011d 06       		.byte	6
 1461 011e 0C       		.byte	12
 1462 011f 18       		.byte	24
 1463 0120 30       		.byte	48
 1464 0121 60       		.byte	96
 1465 0122 C6       		.byte	-58
 1466 0123 FE       		.byte	-2
 1467 0124 00       		.byte	0
 1468 0125 00       		.byte	0
 1469 0126 00       		.byte	0
 1470 0127 00       		.byte	0
 1471 0128 00       		.byte	0
 1472 0129 7C       		.byte	124
ARM GAS  /cygdrive/c/Users/Anders/AppData/Local/Temp/ccAtSolr.s 			page 36


 1473 012a C6       		.byte	-58
 1474 012b 06       		.byte	6
 1475 012c 06       		.byte	6
 1476 012d 3C       		.byte	60
 1477 012e 06       		.byte	6
 1478 012f 06       		.byte	6
 1479 0130 C6       		.byte	-58
 1480 0131 7C       		.byte	124
 1481 0132 00       		.byte	0
 1482 0133 00       		.byte	0
 1483 0134 00       		.byte	0
 1484 0135 00       		.byte	0
 1485 0136 00       		.byte	0
 1486 0137 0C       		.byte	12
 1487 0138 1C       		.byte	28
 1488 0139 3C       		.byte	60
 1489 013a 6C       		.byte	108
 1490 013b CC       		.byte	-52
 1491 013c FE       		.byte	-2
 1492 013d 0C       		.byte	12
 1493 013e 0C       		.byte	12
 1494 013f 1E       		.byte	30
 1495 0140 00       		.byte	0
 1496 0141 00       		.byte	0
 1497 0142 00       		.byte	0
 1498 0143 00       		.byte	0
 1499 0144 00       		.byte	0
 1500 0145 FE       		.byte	-2
 1501 0146 C0       		.byte	-64
 1502 0147 C0       		.byte	-64
 1503 0148 C0       		.byte	-64
 1504 0149 FC       		.byte	-4
 1505 014a 06       		.byte	6
 1506 014b 06       		.byte	6
 1507 014c C6       		.byte	-58
 1508 014d 7C       		.byte	124
 1509 014e 00       		.byte	0
 1510 014f 00       		.byte	0
 1511 0150 00       		.byte	0
 1512 0151 00       		.byte	0
 1513 0152 00       		.byte	0
 1514 0153 38       		.byte	56
 1515 0154 60       		.byte	96
 1516 0155 C0       		.byte	-64
 1517 0156 C0       		.byte	-64
 1518 0157 FC       		.byte	-4
 1519 0158 C6       		.byte	-58
 1520 0159 C6       		.byte	-58
 1521 015a C6       		.byte	-58
 1522 015b 7C       		.byte	124
 1523 015c 00       		.byte	0
 1524 015d 00       		.byte	0
 1525 015e 00       		.byte	0
 1526 015f 00       		.byte	0
 1527 0160 00       		.byte	0
 1528 0161 FE       		.byte	-2
 1529 0162 C6       		.byte	-58
ARM GAS  /cygdrive/c/Users/Anders/AppData/Local/Temp/ccAtSolr.s 			page 37


 1530 0163 06       		.byte	6
 1531 0164 0C       		.byte	12
 1532 0165 18       		.byte	24
 1533 0166 30       		.byte	48
 1534 0167 30       		.byte	48
 1535 0168 30       		.byte	48
 1536 0169 30       		.byte	48
 1537 016a 00       		.byte	0
 1538 016b 00       		.byte	0
 1539 016c 00       		.byte	0
 1540 016d 00       		.byte	0
 1541 016e 00       		.byte	0
 1542 016f 7C       		.byte	124
 1543 0170 C6       		.byte	-58
 1544 0171 C6       		.byte	-58
 1545 0172 C6       		.byte	-58
 1546 0173 7C       		.byte	124
 1547 0174 C6       		.byte	-58
 1548 0175 C6       		.byte	-58
 1549 0176 C6       		.byte	-58
 1550 0177 7C       		.byte	124
 1551 0178 00       		.byte	0
 1552 0179 00       		.byte	0
 1553 017a 00       		.byte	0
 1554 017b 00       		.byte	0
 1555 017c 00       		.byte	0
 1556 017d 7C       		.byte	124
 1557 017e C6       		.byte	-58
 1558 017f C6       		.byte	-58
 1559 0180 C6       		.byte	-58
 1560 0181 7E       		.byte	126
 1561 0182 06       		.byte	6
 1562 0183 06       		.byte	6
 1563 0184 0C       		.byte	12
 1564 0185 78       		.byte	120
 1565 0186 00       		.byte	0
 1566 0187 00       		.byte	0
 1567 0188 00       		.byte	0
 1568 0189 00       		.byte	0
 1569 018a 00       		.byte	0
 1570 018b 00       		.byte	0
 1571 018c 18       		.byte	24
 1572 018d 18       		.byte	24
 1573 018e 00       		.byte	0
 1574 018f 00       		.byte	0
 1575 0190 00       		.byte	0
 1576 0191 18       		.byte	24
 1577 0192 18       		.byte	24
 1578 0193 00       		.byte	0
 1579 0194 00       		.byte	0
 1580 0195 00       		.byte	0
 1581 0196 00       		.byte	0
 1582 0197 00       		.byte	0
 1583 0198 00       		.byte	0
 1584 0199 00       		.byte	0
 1585 019a 18       		.byte	24
 1586 019b 18       		.byte	24
ARM GAS  /cygdrive/c/Users/Anders/AppData/Local/Temp/ccAtSolr.s 			page 38


 1587 019c 00       		.byte	0
 1588 019d 00       		.byte	0
 1589 019e 00       		.byte	0
 1590 019f 18       		.byte	24
 1591 01a0 18       		.byte	24
 1592 01a1 30       		.byte	48
 1593 01a2 00       		.byte	0
 1594 01a3 00       		.byte	0
 1595 01a4 00       		.byte	0
 1596 01a5 00       		.byte	0
 1597 01a6 00       		.byte	0
 1598 01a7 0C       		.byte	12
 1599 01a8 18       		.byte	24
 1600 01a9 30       		.byte	48
 1601 01aa 60       		.byte	96
 1602 01ab C0       		.byte	-64
 1603 01ac 60       		.byte	96
 1604 01ad 30       		.byte	48
 1605 01ae 18       		.byte	24
 1606 01af 0C       		.byte	12
 1607 01b0 00       		.byte	0
 1608 01b1 00       		.byte	0
 1609 01b2 00       		.byte	0
 1610 01b3 00       		.byte	0
 1611 01b4 00       		.byte	0
 1612 01b5 00       		.byte	0
 1613 01b6 00       		.byte	0
 1614 01b7 00       		.byte	0
 1615 01b8 7E       		.byte	126
 1616 01b9 00       		.byte	0
 1617 01ba 00       		.byte	0
 1618 01bb 7E       		.byte	126
 1619 01bc 00       		.byte	0
 1620 01bd 00       		.byte	0
 1621 01be 00       		.byte	0
 1622 01bf 00       		.byte	0
 1623 01c0 00       		.byte	0
 1624 01c1 00       		.byte	0
 1625 01c2 00       		.byte	0
 1626 01c3 60       		.byte	96
 1627 01c4 30       		.byte	48
 1628 01c5 18       		.byte	24
 1629 01c6 0C       		.byte	12
 1630 01c7 06       		.byte	6
 1631 01c8 0C       		.byte	12
 1632 01c9 18       		.byte	24
 1633 01ca 30       		.byte	48
 1634 01cb 60       		.byte	96
 1635 01cc 00       		.byte	0
 1636 01cd 00       		.byte	0
 1637 01ce 00       		.byte	0
 1638 01cf 00       		.byte	0
 1639 01d0 00       		.byte	0
 1640 01d1 7C       		.byte	124
 1641 01d2 C6       		.byte	-58
 1642 01d3 C6       		.byte	-58
 1643 01d4 0C       		.byte	12
ARM GAS  /cygdrive/c/Users/Anders/AppData/Local/Temp/ccAtSolr.s 			page 39


 1644 01d5 18       		.byte	24
 1645 01d6 18       		.byte	24
 1646 01d7 00       		.byte	0
 1647 01d8 18       		.byte	24
 1648 01d9 18       		.byte	24
 1649 01da 00       		.byte	0
 1650 01db 00       		.byte	0
 1651 01dc 00       		.byte	0
 1652 01dd 00       		.byte	0
 1653 01de 00       		.byte	0
 1654 01df 7C       		.byte	124
 1655 01e0 C6       		.byte	-58
 1656 01e1 C6       		.byte	-58
 1657 01e2 DE       		.byte	-34
 1658 01e3 DE       		.byte	-34
 1659 01e4 DE       		.byte	-34
 1660 01e5 DC       		.byte	-36
 1661 01e6 C0       		.byte	-64
 1662 01e7 7C       		.byte	124
 1663 01e8 00       		.byte	0
 1664 01e9 00       		.byte	0
 1665 01ea 00       		.byte	0
 1666 01eb 00       		.byte	0
 1667 01ec 00       		.byte	0
 1668 01ed 10       		.byte	16
 1669 01ee 38       		.byte	56
 1670 01ef 6C       		.byte	108
 1671 01f0 C6       		.byte	-58
 1672 01f1 C6       		.byte	-58
 1673 01f2 FE       		.byte	-2
 1674 01f3 C6       		.byte	-58
 1675 01f4 C6       		.byte	-58
 1676 01f5 C6       		.byte	-58
 1677 01f6 00       		.byte	0
 1678 01f7 00       		.byte	0
 1679 01f8 00       		.byte	0
 1680 01f9 00       		.byte	0
 1681 01fa 00       		.byte	0
 1682 01fb FC       		.byte	-4
 1683 01fc 66       		.byte	102
 1684 01fd 66       		.byte	102
 1685 01fe 66       		.byte	102
 1686 01ff 7C       		.byte	124
 1687 0200 66       		.byte	102
 1688 0201 66       		.byte	102
 1689 0202 66       		.byte	102
 1690 0203 FC       		.byte	-4
 1691 0204 00       		.byte	0
 1692 0205 00       		.byte	0
 1693 0206 00       		.byte	0
 1694 0207 00       		.byte	0
 1695 0208 00       		.byte	0
 1696 0209 3C       		.byte	60
 1697 020a 66       		.byte	102
 1698 020b C2       		.byte	-62
 1699 020c C0       		.byte	-64
 1700 020d C0       		.byte	-64
ARM GAS  /cygdrive/c/Users/Anders/AppData/Local/Temp/ccAtSolr.s 			page 40


 1701 020e C0       		.byte	-64
 1702 020f C2       		.byte	-62
 1703 0210 66       		.byte	102
 1704 0211 3C       		.byte	60
 1705 0212 00       		.byte	0
 1706 0213 00       		.byte	0
 1707 0214 00       		.byte	0
 1708 0215 00       		.byte	0
 1709 0216 00       		.byte	0
 1710 0217 F8       		.byte	-8
 1711 0218 6C       		.byte	108
 1712 0219 66       		.byte	102
 1713 021a 66       		.byte	102
 1714 021b 66       		.byte	102
 1715 021c 66       		.byte	102
 1716 021d 66       		.byte	102
 1717 021e 6C       		.byte	108
 1718 021f F8       		.byte	-8
 1719 0220 00       		.byte	0
 1720 0221 00       		.byte	0
 1721 0222 00       		.byte	0
 1722 0223 00       		.byte	0
 1723 0224 00       		.byte	0
 1724 0225 FE       		.byte	-2
 1725 0226 66       		.byte	102
 1726 0227 62       		.byte	98
 1727 0228 68       		.byte	104
 1728 0229 78       		.byte	120
 1729 022a 68       		.byte	104
 1730 022b 62       		.byte	98
 1731 022c 66       		.byte	102
 1732 022d FE       		.byte	-2
 1733 022e 00       		.byte	0
 1734 022f 00       		.byte	0
 1735 0230 00       		.byte	0
 1736 0231 00       		.byte	0
 1737 0232 00       		.byte	0
 1738 0233 FE       		.byte	-2
 1739 0234 66       		.byte	102
 1740 0235 62       		.byte	98
 1741 0236 68       		.byte	104
 1742 0237 78       		.byte	120
 1743 0238 68       		.byte	104
 1744 0239 60       		.byte	96
 1745 023a 60       		.byte	96
 1746 023b F0       		.byte	-16
 1747 023c 00       		.byte	0
 1748 023d 00       		.byte	0
 1749 023e 00       		.byte	0
 1750 023f 00       		.byte	0
 1751 0240 00       		.byte	0
 1752 0241 3C       		.byte	60
 1753 0242 66       		.byte	102
 1754 0243 C2       		.byte	-62
 1755 0244 C0       		.byte	-64
 1756 0245 C0       		.byte	-64
 1757 0246 DE       		.byte	-34
ARM GAS  /cygdrive/c/Users/Anders/AppData/Local/Temp/ccAtSolr.s 			page 41


 1758 0247 C6       		.byte	-58
 1759 0248 66       		.byte	102
 1760 0249 3A       		.byte	58
 1761 024a 00       		.byte	0
 1762 024b 00       		.byte	0
 1763 024c 00       		.byte	0
 1764 024d 00       		.byte	0
 1765 024e 00       		.byte	0
 1766 024f C6       		.byte	-58
 1767 0250 C6       		.byte	-58
 1768 0251 C6       		.byte	-58
 1769 0252 C6       		.byte	-58
 1770 0253 FE       		.byte	-2
 1771 0254 C6       		.byte	-58
 1772 0255 C6       		.byte	-58
 1773 0256 C6       		.byte	-58
 1774 0257 C6       		.byte	-58
 1775 0258 00       		.byte	0
 1776 0259 00       		.byte	0
 1777 025a 00       		.byte	0
 1778 025b 00       		.byte	0
 1779 025c 00       		.byte	0
 1780 025d 3C       		.byte	60
 1781 025e 18       		.byte	24
 1782 025f 18       		.byte	24
 1783 0260 18       		.byte	24
 1784 0261 18       		.byte	24
 1785 0262 18       		.byte	24
 1786 0263 18       		.byte	24
 1787 0264 18       		.byte	24
 1788 0265 3C       		.byte	60
 1789 0266 00       		.byte	0
 1790 0267 00       		.byte	0
 1791 0268 00       		.byte	0
 1792 0269 00       		.byte	0
 1793 026a 00       		.byte	0
 1794 026b 1E       		.byte	30
 1795 026c 0C       		.byte	12
 1796 026d 0C       		.byte	12
 1797 026e 0C       		.byte	12
 1798 026f 0C       		.byte	12
 1799 0270 0C       		.byte	12
 1800 0271 CC       		.byte	-52
 1801 0272 CC       		.byte	-52
 1802 0273 78       		.byte	120
 1803 0274 00       		.byte	0
 1804 0275 00       		.byte	0
 1805 0276 00       		.byte	0
 1806 0277 00       		.byte	0
 1807 0278 00       		.byte	0
 1808 0279 E6       		.byte	-26
 1809 027a 66       		.byte	102
 1810 027b 6C       		.byte	108
 1811 027c 6C       		.byte	108
 1812 027d 78       		.byte	120
 1813 027e 6C       		.byte	108
 1814 027f 6C       		.byte	108
ARM GAS  /cygdrive/c/Users/Anders/AppData/Local/Temp/ccAtSolr.s 			page 42


 1815 0280 66       		.byte	102
 1816 0281 E6       		.byte	-26
 1817 0282 00       		.byte	0
 1818 0283 00       		.byte	0
 1819 0284 00       		.byte	0
 1820 0285 00       		.byte	0
 1821 0286 00       		.byte	0
 1822 0287 F0       		.byte	-16
 1823 0288 60       		.byte	96
 1824 0289 60       		.byte	96
 1825 028a 60       		.byte	96
 1826 028b 60       		.byte	96
 1827 028c 60       		.byte	96
 1828 028d 62       		.byte	98
 1829 028e 66       		.byte	102
 1830 028f FE       		.byte	-2
 1831 0290 00       		.byte	0
 1832 0291 00       		.byte	0
 1833 0292 00       		.byte	0
 1834 0293 00       		.byte	0
 1835 0294 00       		.byte	0
 1836 0295 C6       		.byte	-58
 1837 0296 EE       		.byte	-18
 1838 0297 FE       		.byte	-2
 1839 0298 D6       		.byte	-42
 1840 0299 C6       		.byte	-58
 1841 029a C6       		.byte	-58
 1842 029b C6       		.byte	-58
 1843 029c C6       		.byte	-58
 1844 029d C6       		.byte	-58
 1845 029e 00       		.byte	0
 1846 029f 00       		.byte	0
 1847 02a0 00       		.byte	0
 1848 02a1 00       		.byte	0
 1849 02a2 00       		.byte	0
 1850 02a3 C6       		.byte	-58
 1851 02a4 E6       		.byte	-26
 1852 02a5 F6       		.byte	-10
 1853 02a6 FE       		.byte	-2
 1854 02a7 DE       		.byte	-34
 1855 02a8 CE       		.byte	-50
 1856 02a9 C6       		.byte	-58
 1857 02aa C6       		.byte	-58
 1858 02ab C6       		.byte	-58
 1859 02ac 00       		.byte	0
 1860 02ad 00       		.byte	0
 1861 02ae 00       		.byte	0
 1862 02af 00       		.byte	0
 1863 02b0 00       		.byte	0
 1864 02b1 7C       		.byte	124
 1865 02b2 C6       		.byte	-58
 1866 02b3 C6       		.byte	-58
 1867 02b4 C6       		.byte	-58
 1868 02b5 C6       		.byte	-58
 1869 02b6 C6       		.byte	-58
 1870 02b7 C6       		.byte	-58
 1871 02b8 C6       		.byte	-58
ARM GAS  /cygdrive/c/Users/Anders/AppData/Local/Temp/ccAtSolr.s 			page 43


 1872 02b9 7C       		.byte	124
 1873 02ba 00       		.byte	0
 1874 02bb 00       		.byte	0
 1875 02bc 00       		.byte	0
 1876 02bd 00       		.byte	0
 1877 02be 00       		.byte	0
 1878 02bf FC       		.byte	-4
 1879 02c0 66       		.byte	102
 1880 02c1 66       		.byte	102
 1881 02c2 66       		.byte	102
 1882 02c3 7C       		.byte	124
 1883 02c4 60       		.byte	96
 1884 02c5 60       		.byte	96
 1885 02c6 60       		.byte	96
 1886 02c7 F0       		.byte	-16
 1887 02c8 00       		.byte	0
 1888 02c9 00       		.byte	0
 1889 02ca 00       		.byte	0
 1890 02cb 00       		.byte	0
 1891 02cc 00       		.byte	0
 1892 02cd 7C       		.byte	124
 1893 02ce C6       		.byte	-58
 1894 02cf C6       		.byte	-58
 1895 02d0 C6       		.byte	-58
 1896 02d1 C6       		.byte	-58
 1897 02d2 C6       		.byte	-58
 1898 02d3 D6       		.byte	-42
 1899 02d4 DE       		.byte	-34
 1900 02d5 7C       		.byte	124
 1901 02d6 0E       		.byte	14
 1902 02d7 00       		.byte	0
 1903 02d8 00       		.byte	0
 1904 02d9 00       		.byte	0
 1905 02da 00       		.byte	0
 1906 02db FC       		.byte	-4
 1907 02dc 66       		.byte	102
 1908 02dd 66       		.byte	102
 1909 02de 66       		.byte	102
 1910 02df 7C       		.byte	124
 1911 02e0 6C       		.byte	108
 1912 02e1 66       		.byte	102
 1913 02e2 66       		.byte	102
 1914 02e3 E6       		.byte	-26
 1915 02e4 00       		.byte	0
 1916 02e5 00       		.byte	0
 1917 02e6 00       		.byte	0
 1918 02e7 00       		.byte	0
 1919 02e8 00       		.byte	0
 1920 02e9 7C       		.byte	124
 1921 02ea C6       		.byte	-58
 1922 02eb C6       		.byte	-58
 1923 02ec 60       		.byte	96
 1924 02ed 38       		.byte	56
 1925 02ee 0C       		.byte	12
 1926 02ef C6       		.byte	-58
 1927 02f0 C6       		.byte	-58
 1928 02f1 7C       		.byte	124
ARM GAS  /cygdrive/c/Users/Anders/AppData/Local/Temp/ccAtSolr.s 			page 44


 1929 02f2 00       		.byte	0
 1930 02f3 00       		.byte	0
 1931 02f4 00       		.byte	0
 1932 02f5 00       		.byte	0
 1933 02f6 00       		.byte	0
 1934 02f7 7E       		.byte	126
 1935 02f8 7E       		.byte	126
 1936 02f9 5A       		.byte	90
 1937 02fa 18       		.byte	24
 1938 02fb 18       		.byte	24
 1939 02fc 18       		.byte	24
 1940 02fd 18       		.byte	24
 1941 02fe 18       		.byte	24
 1942 02ff 3C       		.byte	60
 1943 0300 00       		.byte	0
 1944 0301 00       		.byte	0
 1945 0302 00       		.byte	0
 1946 0303 00       		.byte	0
 1947 0304 00       		.byte	0
 1948 0305 C6       		.byte	-58
 1949 0306 C6       		.byte	-58
 1950 0307 C6       		.byte	-58
 1951 0308 C6       		.byte	-58
 1952 0309 C6       		.byte	-58
 1953 030a C6       		.byte	-58
 1954 030b C6       		.byte	-58
 1955 030c C6       		.byte	-58
 1956 030d 7C       		.byte	124
 1957 030e 00       		.byte	0
 1958 030f 00       		.byte	0
 1959 0310 00       		.byte	0
 1960 0311 00       		.byte	0
 1961 0312 00       		.byte	0
 1962 0313 C6       		.byte	-58
 1963 0314 C6       		.byte	-58
 1964 0315 C6       		.byte	-58
 1965 0316 C6       		.byte	-58
 1966 0317 C6       		.byte	-58
 1967 0318 C6       		.byte	-58
 1968 0319 6C       		.byte	108
 1969 031a 38       		.byte	56
 1970 031b 10       		.byte	16
 1971 031c 00       		.byte	0
 1972 031d 00       		.byte	0
 1973 031e 00       		.byte	0
 1974 031f 00       		.byte	0
 1975 0320 00       		.byte	0
 1976 0321 C6       		.byte	-58
 1977 0322 C6       		.byte	-58
 1978 0323 C6       		.byte	-58
 1979 0324 C6       		.byte	-58
 1980 0325 D6       		.byte	-42
 1981 0326 D6       		.byte	-42
 1982 0327 FE       		.byte	-2
 1983 0328 6C       		.byte	108
 1984 0329 6C       		.byte	108
 1985 032a 00       		.byte	0
ARM GAS  /cygdrive/c/Users/Anders/AppData/Local/Temp/ccAtSolr.s 			page 45


 1986 032b 00       		.byte	0
 1987 032c 00       		.byte	0
 1988 032d 00       		.byte	0
 1989 032e 00       		.byte	0
 1990 032f C6       		.byte	-58
 1991 0330 C6       		.byte	-58
 1992 0331 C6       		.byte	-58
 1993 0332 7C       		.byte	124
 1994 0333 38       		.byte	56
 1995 0334 7C       		.byte	124
 1996 0335 C6       		.byte	-58
 1997 0336 C6       		.byte	-58
 1998 0337 C6       		.byte	-58
 1999 0338 00       		.byte	0
 2000 0339 00       		.byte	0
 2001 033a 00       		.byte	0
 2002 033b 00       		.byte	0
 2003 033c 00       		.byte	0
 2004 033d 66       		.byte	102
 2005 033e 66       		.byte	102
 2006 033f 66       		.byte	102
 2007 0340 66       		.byte	102
 2008 0341 3C       		.byte	60
 2009 0342 18       		.byte	24
 2010 0343 18       		.byte	24
 2011 0344 18       		.byte	24
 2012 0345 3C       		.byte	60
 2013 0346 00       		.byte	0
 2014 0347 00       		.byte	0
 2015 0348 00       		.byte	0
 2016 0349 00       		.byte	0
 2017 034a 00       		.byte	0
 2018 034b FE       		.byte	-2
 2019 034c C6       		.byte	-58
 2020 034d 8C       		.byte	-116
 2021 034e 18       		.byte	24
 2022 034f 30       		.byte	48
 2023 0350 60       		.byte	96
 2024 0351 C2       		.byte	-62
 2025 0352 C6       		.byte	-58
 2026 0353 FE       		.byte	-2
 2027 0354 00       		.byte	0
 2028 0355 00       		.byte	0
 2029 0356 00       		.byte	0
 2030 0357 00       		.byte	0
 2031 0358 00       		.byte	0
 2032 0359 3C       		.byte	60
 2033 035a 30       		.byte	48
 2034 035b 30       		.byte	48
 2035 035c 30       		.byte	48
 2036 035d 30       		.byte	48
 2037 035e 30       		.byte	48
 2038 035f 30       		.byte	48
 2039 0360 30       		.byte	48
 2040 0361 3C       		.byte	60
 2041 0362 00       		.byte	0
 2042 0363 00       		.byte	0
ARM GAS  /cygdrive/c/Users/Anders/AppData/Local/Temp/ccAtSolr.s 			page 46


 2043 0364 00       		.byte	0
 2044 0365 00       		.byte	0
 2045 0366 00       		.byte	0
 2046 0367 80       		.byte	-128
 2047 0368 C0       		.byte	-64
 2048 0369 E0       		.byte	-32
 2049 036a 70       		.byte	112
 2050 036b 38       		.byte	56
 2051 036c 1C       		.byte	28
 2052 036d 0E       		.byte	14
 2053 036e 06       		.byte	6
 2054 036f 02       		.byte	2
 2055 0370 00       		.byte	0
 2056 0371 00       		.byte	0
 2057 0372 00       		.byte	0
 2058 0373 00       		.byte	0
 2059 0374 00       		.byte	0
 2060 0375 3C       		.byte	60
 2061 0376 0C       		.byte	12
 2062 0377 0C       		.byte	12
 2063 0378 0C       		.byte	12
 2064 0379 0C       		.byte	12
 2065 037a 0C       		.byte	12
 2066 037b 0C       		.byte	12
 2067 037c 0C       		.byte	12
 2068 037d 3C       		.byte	60
 2069 037e 00       		.byte	0
 2070 037f 00       		.byte	0
 2071 0380 10       		.byte	16
 2072 0381 38       		.byte	56
 2073 0382 6C       		.byte	108
 2074 0383 C6       		.byte	-58
 2075 0384 00       		.byte	0
 2076 0385 00       		.byte	0
 2077 0386 00       		.byte	0
 2078 0387 00       		.byte	0
 2079 0388 00       		.byte	0
 2080 0389 00       		.byte	0
 2081 038a 00       		.byte	0
 2082 038b 00       		.byte	0
 2083 038c 00       		.byte	0
 2084 038d 00       		.byte	0
 2085 038e 00       		.byte	0
 2086 038f 00       		.byte	0
 2087 0390 00       		.byte	0
 2088 0391 00       		.byte	0
 2089 0392 00       		.byte	0
 2090 0393 00       		.byte	0
 2091 0394 00       		.byte	0
 2092 0395 00       		.byte	0
 2093 0396 00       		.byte	0
 2094 0397 00       		.byte	0
 2095 0398 00       		.byte	0
 2096 0399 00       		.byte	0
 2097 039a 00       		.byte	0
 2098 039b FF       		.byte	-1
 2099 039c 00       		.byte	0
ARM GAS  /cygdrive/c/Users/Anders/AppData/Local/Temp/ccAtSolr.s 			page 47


 2100 039d 30       		.byte	48
 2101 039e 18       		.byte	24
 2102 039f 0C       		.byte	12
 2103 03a0 00       		.byte	0
 2104 03a1 00       		.byte	0
 2105 03a2 00       		.byte	0
 2106 03a3 00       		.byte	0
 2107 03a4 00       		.byte	0
 2108 03a5 00       		.byte	0
 2109 03a6 00       		.byte	0
 2110 03a7 00       		.byte	0
 2111 03a8 00       		.byte	0
 2112 03a9 00       		.byte	0
 2113 03aa 00       		.byte	0
 2114 03ab 00       		.byte	0
 2115 03ac 00       		.byte	0
 2116 03ad 00       		.byte	0
 2117 03ae 00       		.byte	0
 2118 03af 00       		.byte	0
 2119 03b0 78       		.byte	120
 2120 03b1 0C       		.byte	12
 2121 03b2 7C       		.byte	124
 2122 03b3 CC       		.byte	-52
 2123 03b4 CC       		.byte	-52
 2124 03b5 76       		.byte	118
 2125 03b6 00       		.byte	0
 2126 03b7 00       		.byte	0
 2127 03b8 00       		.byte	0
 2128 03b9 00       		.byte	0
 2129 03ba 00       		.byte	0
 2130 03bb E0       		.byte	-32
 2131 03bc 60       		.byte	96
 2132 03bd 60       		.byte	96
 2133 03be 78       		.byte	120
 2134 03bf 6C       		.byte	108
 2135 03c0 66       		.byte	102
 2136 03c1 66       		.byte	102
 2137 03c2 66       		.byte	102
 2138 03c3 7C       		.byte	124
 2139 03c4 00       		.byte	0
 2140 03c5 00       		.byte	0
 2141 03c6 00       		.byte	0
 2142 03c7 00       		.byte	0
 2143 03c8 00       		.byte	0
 2144 03c9 00       		.byte	0
 2145 03ca 00       		.byte	0
 2146 03cb 00       		.byte	0
 2147 03cc 7C       		.byte	124
 2148 03cd C6       		.byte	-58
 2149 03ce C0       		.byte	-64
 2150 03cf C0       		.byte	-64
 2151 03d0 C6       		.byte	-58
 2152 03d1 7C       		.byte	124
 2153 03d2 00       		.byte	0
 2154 03d3 00       		.byte	0
 2155 03d4 00       		.byte	0
 2156 03d5 00       		.byte	0
ARM GAS  /cygdrive/c/Users/Anders/AppData/Local/Temp/ccAtSolr.s 			page 48


 2157 03d6 00       		.byte	0
 2158 03d7 1C       		.byte	28
 2159 03d8 0C       		.byte	12
 2160 03d9 0C       		.byte	12
 2161 03da 3C       		.byte	60
 2162 03db 6C       		.byte	108
 2163 03dc CC       		.byte	-52
 2164 03dd CC       		.byte	-52
 2165 03de CC       		.byte	-52
 2166 03df 76       		.byte	118
 2167 03e0 00       		.byte	0
 2168 03e1 00       		.byte	0
 2169 03e2 00       		.byte	0
 2170 03e3 00       		.byte	0
 2171 03e4 00       		.byte	0
 2172 03e5 00       		.byte	0
 2173 03e6 00       		.byte	0
 2174 03e7 00       		.byte	0
 2175 03e8 7C       		.byte	124
 2176 03e9 C6       		.byte	-58
 2177 03ea FE       		.byte	-2
 2178 03eb C0       		.byte	-64
 2179 03ec C6       		.byte	-58
 2180 03ed 7C       		.byte	124
 2181 03ee 00       		.byte	0
 2182 03ef 00       		.byte	0
 2183 03f0 00       		.byte	0
 2184 03f1 00       		.byte	0
 2185 03f2 00       		.byte	0
 2186 03f3 1C       		.byte	28
 2187 03f4 36       		.byte	54
 2188 03f5 32       		.byte	50
 2189 03f6 30       		.byte	48
 2190 03f7 7C       		.byte	124
 2191 03f8 30       		.byte	48
 2192 03f9 30       		.byte	48
 2193 03fa 30       		.byte	48
 2194 03fb 78       		.byte	120
 2195 03fc 00       		.byte	0
 2196 03fd 00       		.byte	0
 2197 03fe 00       		.byte	0
 2198 03ff 00       		.byte	0
 2199 0400 00       		.byte	0
 2200 0401 00       		.byte	0
 2201 0402 00       		.byte	0
 2202 0403 00       		.byte	0
 2203 0404 76       		.byte	118
 2204 0405 CC       		.byte	-52
 2205 0406 CC       		.byte	-52
 2206 0407 CC       		.byte	-52
 2207 0408 7C       		.byte	124
 2208 0409 0C       		.byte	12
 2209 040a CC       		.byte	-52
 2210 040b 78       		.byte	120
 2211 040c 00       		.byte	0
 2212 040d 00       		.byte	0
 2213 040e 00       		.byte	0
ARM GAS  /cygdrive/c/Users/Anders/AppData/Local/Temp/ccAtSolr.s 			page 49


 2214 040f E0       		.byte	-32
 2215 0410 60       		.byte	96
 2216 0411 60       		.byte	96
 2217 0412 6C       		.byte	108
 2218 0413 76       		.byte	118
 2219 0414 66       		.byte	102
 2220 0415 66       		.byte	102
 2221 0416 66       		.byte	102
 2222 0417 E6       		.byte	-26
 2223 0418 00       		.byte	0
 2224 0419 00       		.byte	0
 2225 041a 00       		.byte	0
 2226 041b 00       		.byte	0
 2227 041c 00       		.byte	0
 2228 041d 18       		.byte	24
 2229 041e 18       		.byte	24
 2230 041f 00       		.byte	0
 2231 0420 38       		.byte	56
 2232 0421 18       		.byte	24
 2233 0422 18       		.byte	24
 2234 0423 18       		.byte	24
 2235 0424 18       		.byte	24
 2236 0425 3C       		.byte	60
 2237 0426 00       		.byte	0
 2238 0427 00       		.byte	0
 2239 0428 00       		.byte	0
 2240 0429 00       		.byte	0
 2241 042a 00       		.byte	0
 2242 042b 06       		.byte	6
 2243 042c 06       		.byte	6
 2244 042d 00       		.byte	0
 2245 042e 0E       		.byte	14
 2246 042f 06       		.byte	6
 2247 0430 06       		.byte	6
 2248 0431 06       		.byte	6
 2249 0432 06       		.byte	6
 2250 0433 66       		.byte	102
 2251 0434 66       		.byte	102
 2252 0435 3C       		.byte	60
 2253 0436 00       		.byte	0
 2254 0437 00       		.byte	0
 2255 0438 00       		.byte	0
 2256 0439 E0       		.byte	-32
 2257 043a 60       		.byte	96
 2258 043b 60       		.byte	96
 2259 043c 66       		.byte	102
 2260 043d 6C       		.byte	108
 2261 043e 78       		.byte	120
 2262 043f 6C       		.byte	108
 2263 0440 66       		.byte	102
 2264 0441 E6       		.byte	-26
 2265 0442 00       		.byte	0
 2266 0443 00       		.byte	0
 2267 0444 00       		.byte	0
 2268 0445 00       		.byte	0
 2269 0446 00       		.byte	0
 2270 0447 38       		.byte	56
ARM GAS  /cygdrive/c/Users/Anders/AppData/Local/Temp/ccAtSolr.s 			page 50


 2271 0448 18       		.byte	24
 2272 0449 18       		.byte	24
 2273 044a 18       		.byte	24
 2274 044b 18       		.byte	24
 2275 044c 18       		.byte	24
 2276 044d 18       		.byte	24
 2277 044e 18       		.byte	24
 2278 044f 3C       		.byte	60
 2279 0450 00       		.byte	0
 2280 0451 00       		.byte	0
 2281 0452 00       		.byte	0
 2282 0453 00       		.byte	0
 2283 0454 00       		.byte	0
 2284 0455 00       		.byte	0
 2285 0456 00       		.byte	0
 2286 0457 00       		.byte	0
 2287 0458 EC       		.byte	-20
 2288 0459 FE       		.byte	-2
 2289 045a D6       		.byte	-42
 2290 045b D6       		.byte	-42
 2291 045c D6       		.byte	-42
 2292 045d D6       		.byte	-42
 2293 045e 00       		.byte	0
 2294 045f 00       		.byte	0
 2295 0460 00       		.byte	0
 2296 0461 00       		.byte	0
 2297 0462 00       		.byte	0
 2298 0463 00       		.byte	0
 2299 0464 00       		.byte	0
 2300 0465 00       		.byte	0
 2301 0466 DC       		.byte	-36
 2302 0467 66       		.byte	102
 2303 0468 66       		.byte	102
 2304 0469 66       		.byte	102
 2305 046a 66       		.byte	102
 2306 046b 66       		.byte	102
 2307 046c 00       		.byte	0
 2308 046d 00       		.byte	0
 2309 046e 00       		.byte	0
 2310 046f 00       		.byte	0
 2311 0470 00       		.byte	0
 2312 0471 00       		.byte	0
 2313 0472 00       		.byte	0
 2314 0473 00       		.byte	0
 2315 0474 7C       		.byte	124
 2316 0475 C6       		.byte	-58
 2317 0476 C6       		.byte	-58
 2318 0477 C6       		.byte	-58
 2319 0478 C6       		.byte	-58
 2320 0479 7C       		.byte	124
 2321 047a 00       		.byte	0
 2322 047b 00       		.byte	0
 2323 047c 00       		.byte	0
 2324 047d 00       		.byte	0
 2325 047e 00       		.byte	0
 2326 047f 00       		.byte	0
 2327 0480 00       		.byte	0
ARM GAS  /cygdrive/c/Users/Anders/AppData/Local/Temp/ccAtSolr.s 			page 51


 2328 0481 00       		.byte	0
 2329 0482 DC       		.byte	-36
 2330 0483 66       		.byte	102
 2331 0484 66       		.byte	102
 2332 0485 66       		.byte	102
 2333 0486 7C       		.byte	124
 2334 0487 60       		.byte	96
 2335 0488 60       		.byte	96
 2336 0489 F0       		.byte	-16
 2337 048a 00       		.byte	0
 2338 048b 00       		.byte	0
 2339 048c 00       		.byte	0
 2340 048d 00       		.byte	0
 2341 048e 00       		.byte	0
 2342 048f 00       		.byte	0
 2343 0490 76       		.byte	118
 2344 0491 CC       		.byte	-52
 2345 0492 CC       		.byte	-52
 2346 0493 CC       		.byte	-52
 2347 0494 7C       		.byte	124
 2348 0495 0C       		.byte	12
 2349 0496 0C       		.byte	12
 2350 0497 1E       		.byte	30
 2351 0498 00       		.byte	0
 2352 0499 00       		.byte	0
 2353 049a 00       		.byte	0
 2354 049b 00       		.byte	0
 2355 049c 00       		.byte	0
 2356 049d 00       		.byte	0
 2357 049e DC       		.byte	-36
 2358 049f 76       		.byte	118
 2359 04a0 66       		.byte	102
 2360 04a1 60       		.byte	96
 2361 04a2 60       		.byte	96
 2362 04a3 F0       		.byte	-16
 2363 04a4 00       		.byte	0
 2364 04a5 00       		.byte	0
 2365 04a6 00       		.byte	0
 2366 04a7 00       		.byte	0
 2367 04a8 00       		.byte	0
 2368 04a9 00       		.byte	0
 2369 04aa 00       		.byte	0
 2370 04ab 00       		.byte	0
 2371 04ac 7C       		.byte	124
 2372 04ad C6       		.byte	-58
 2373 04ae 70       		.byte	112
 2374 04af 1C       		.byte	28
 2375 04b0 C6       		.byte	-58
 2376 04b1 7C       		.byte	124
 2377 04b2 00       		.byte	0
 2378 04b3 00       		.byte	0
 2379 04b4 00       		.byte	0
 2380 04b5 00       		.byte	0
 2381 04b6 00       		.byte	0
 2382 04b7 10       		.byte	16
 2383 04b8 30       		.byte	48
 2384 04b9 30       		.byte	48
ARM GAS  /cygdrive/c/Users/Anders/AppData/Local/Temp/ccAtSolr.s 			page 52


 2385 04ba FC       		.byte	-4
 2386 04bb 30       		.byte	48
 2387 04bc 30       		.byte	48
 2388 04bd 30       		.byte	48
 2389 04be 36       		.byte	54
 2390 04bf 1C       		.byte	28
 2391 04c0 00       		.byte	0
 2392 04c1 00       		.byte	0
 2393 04c2 00       		.byte	0
 2394 04c3 00       		.byte	0
 2395 04c4 00       		.byte	0
 2396 04c5 00       		.byte	0
 2397 04c6 00       		.byte	0
 2398 04c7 00       		.byte	0
 2399 04c8 CC       		.byte	-52
 2400 04c9 CC       		.byte	-52
 2401 04ca CC       		.byte	-52
 2402 04cb CC       		.byte	-52
 2403 04cc CC       		.byte	-52
 2404 04cd 76       		.byte	118
 2405 04ce 00       		.byte	0
 2406 04cf 00       		.byte	0
 2407 04d0 00       		.byte	0
 2408 04d1 00       		.byte	0
 2409 04d2 00       		.byte	0
 2410 04d3 00       		.byte	0
 2411 04d4 00       		.byte	0
 2412 04d5 00       		.byte	0
 2413 04d6 C6       		.byte	-58
 2414 04d7 C6       		.byte	-58
 2415 04d8 C6       		.byte	-58
 2416 04d9 6C       		.byte	108
 2417 04da 38       		.byte	56
 2418 04db 10       		.byte	16
 2419 04dc 00       		.byte	0
 2420 04dd 00       		.byte	0
 2421 04de 00       		.byte	0
 2422 04df 00       		.byte	0
 2423 04e0 00       		.byte	0
 2424 04e1 00       		.byte	0
 2425 04e2 00       		.byte	0
 2426 04e3 00       		.byte	0
 2427 04e4 C6       		.byte	-58
 2428 04e5 C6       		.byte	-58
 2429 04e6 D6       		.byte	-42
 2430 04e7 D6       		.byte	-42
 2431 04e8 FE       		.byte	-2
 2432 04e9 6C       		.byte	108
 2433 04ea 00       		.byte	0
 2434 04eb 00       		.byte	0
 2435 04ec 00       		.byte	0
 2436 04ed 00       		.byte	0
 2437 04ee 00       		.byte	0
 2438 04ef 00       		.byte	0
 2439 04f0 00       		.byte	0
 2440 04f1 00       		.byte	0
 2441 04f2 C6       		.byte	-58
ARM GAS  /cygdrive/c/Users/Anders/AppData/Local/Temp/ccAtSolr.s 			page 53


 2442 04f3 6C       		.byte	108
 2443 04f4 38       		.byte	56
 2444 04f5 38       		.byte	56
 2445 04f6 6C       		.byte	108
 2446 04f7 C6       		.byte	-58
 2447 04f8 00       		.byte	0
 2448 04f9 00       		.byte	0
 2449 04fa 00       		.byte	0
 2450 04fb 00       		.byte	0
 2451 04fc 00       		.byte	0
 2452 04fd 00       		.byte	0
 2453 04fe 00       		.byte	0
 2454 04ff 00       		.byte	0
 2455 0500 C6       		.byte	-58
 2456 0501 C6       		.byte	-58
 2457 0502 C6       		.byte	-58
 2458 0503 C6       		.byte	-58
 2459 0504 7E       		.byte	126
 2460 0505 06       		.byte	6
 2461 0506 0C       		.byte	12
 2462 0507 78       		.byte	120
 2463 0508 00       		.byte	0
 2464 0509 00       		.byte	0
 2465 050a 00       		.byte	0
 2466 050b 00       		.byte	0
 2467 050c 00       		.byte	0
 2468 050d 00       		.byte	0
 2469 050e FE       		.byte	-2
 2470 050f CC       		.byte	-52
 2471 0510 18       		.byte	24
 2472 0511 30       		.byte	48
 2473 0512 66       		.byte	102
 2474 0513 FE       		.byte	-2
 2475 0514 00       		.byte	0
 2476 0515 00       		.byte	0
 2477 0516 00       		.byte	0
 2478 0517 00       		.byte	0
 2479 0518 00       		.byte	0
 2480 0519 0E       		.byte	14
 2481 051a 18       		.byte	24
 2482 051b 18       		.byte	24
 2483 051c 18       		.byte	24
 2484 051d 70       		.byte	112
 2485 051e 18       		.byte	24
 2486 051f 18       		.byte	24
 2487 0520 18       		.byte	24
 2488 0521 0E       		.byte	14
 2489 0522 00       		.byte	0
 2490 0523 00       		.byte	0
 2491 0524 00       		.byte	0
 2492 0525 00       		.byte	0
 2493 0526 00       		.byte	0
 2494 0527 18       		.byte	24
 2495 0528 18       		.byte	24
 2496 0529 18       		.byte	24
 2497 052a 18       		.byte	24
 2498 052b 18       		.byte	24
ARM GAS  /cygdrive/c/Users/Anders/AppData/Local/Temp/ccAtSolr.s 			page 54


 2499 052c 18       		.byte	24
 2500 052d 18       		.byte	24
 2501 052e 18       		.byte	24
 2502 052f 18       		.byte	24
 2503 0530 00       		.byte	0
 2504 0531 00       		.byte	0
 2505 0532 00       		.byte	0
 2506 0533 00       		.byte	0
 2507 0534 00       		.byte	0
 2508 0535 70       		.byte	112
 2509 0536 18       		.byte	24
 2510 0537 18       		.byte	24
 2511 0538 18       		.byte	24
 2512 0539 0E       		.byte	14
 2513 053a 18       		.byte	24
 2514 053b 18       		.byte	24
 2515 053c 18       		.byte	24
 2516 053d 70       		.byte	112
 2517 053e 00       		.byte	0
 2518 053f 00       		.byte	0
 2519 0540 00       		.byte	0
 2520 0541 76       		.byte	118
 2521 0542 DC       		.byte	-36
 2522 0543 00       		.byte	0
 2523 0544 00       		.byte	0
 2524 0545 00       		.byte	0
 2525 0546 00       		.byte	0
 2526 0547 00       		.byte	0
 2527 0548 00       		.byte	0
 2528 0549 00       		.byte	0
 2529 054a 00       		.byte	0
 2530 054b 00       		.byte	0
 2531 054c 00       		.byte	0
 2532 054d 00       		.byte	0
 2533 054e 00       		.byte	0
 2534 054f 00       		.byte	0
 2535 0550 00       		.byte	0
 2536 0551 00       		.byte	0
 2537 0552 00       		.byte	0
 2538 0553 10       		.byte	16
 2539 0554 38       		.byte	56
 2540 0555 6C       		.byte	108
 2541 0556 C6       		.byte	-58
 2542 0557 C6       		.byte	-58
 2543 0558 FE       		.byte	-2
 2544 0559 00       		.byte	0
 2545 055a 00       		.byte	0
 2546 055b 00       		.byte	0
 2547              		.bss
 2548              	lcd_x:
 2549 0000 00       		.space	1
 2550              	lcd_y:
 2551 0001 00       		.space	1
 2552              	bkgColor:
 2553 0002 00       		.space	1
 2554              	textColor:
 2555 0003 00       		.space	1
ARM GAS  /cygdrive/c/Users/Anders/AppData/Local/Temp/ccAtSolr.s 			page 55


 2556              	setcolmark:
 2557 0004 00       		.space	1
 2558              		.section	.debug_frame,"",%progbits
 2559              	.Lframe0:
 2560 0000 0C000000 		.4byte	.LECIE0-.LSCIE0
 2561              	.LSCIE0:
 2562 0004 FFFFFFFF 		.4byte	0xffffffff
 2563 0008 01       		.byte	0x1
 2564 0009 00       		.ascii	"\000"
 2565 000a 01       		.uleb128 0x1
 2566 000b 7C       		.sleb128 -4
 2567 000c 0E       		.byte	0xe
 2568 000d 0C       		.byte	0xc
 2569 000e 0D       		.uleb128 0xd
 2570 000f 00       		.uleb128 0x0
 2571              		.align	2
 2572              	.LECIE0:
 2573              	.LSFDE0:
 2574 0010 0C000000 		.4byte	.LEFDE0-.LASFDE0
 2575              	.LASFDE0:
 2576 0014 00000000 		.4byte	.Lframe0
 2577 0018 00000000 		.4byte	.LFB5
 2578 001c 14000000 		.4byte	.LFE5-.LFB5
 2579              		.align	2
 2580              	.LEFDE0:
 2581              	.LSFDE2:
 2582 0020 14000000 		.4byte	.LEFDE2-.LASFDE2
 2583              	.LASFDE2:
 2584 0024 00000000 		.4byte	.Lframe0
 2585 0028 14000000 		.4byte	.LFB18
 2586 002c 10000000 		.4byte	.LFE18-.LFB18
 2587 0030 42       		.byte	0x4
 2588              		.4byte	.LCFI0-.LFB18
 2589 0031 0E       		.byte	0xe
 2590 0032 04       		.uleb128 0x4
 2591 0033 8E       		.byte	0x8e
 2592 0034 01       		.uleb128 0x1
 2593 0035 000000   		.align	2
 2594              	.LEFDE2:
 2595              	.LSFDE4:
 2596 0038 14000000 		.4byte	.LEFDE4-.LASFDE4
 2597              	.LASFDE4:
 2598 003c 00000000 		.4byte	.Lframe0
 2599 0040 24000000 		.4byte	.LFB17
 2600 0044 10000000 		.4byte	.LFE17-.LFB17
 2601 0048 42       		.byte	0x4
 2602              		.4byte	.LCFI1-.LFB17
 2603 0049 0E       		.byte	0xe
 2604 004a 04       		.uleb128 0x4
 2605 004b 8E       		.byte	0x8e
 2606 004c 01       		.uleb128 0x1
 2607 004d 000000   		.align	2
 2608              	.LEFDE4:
 2609              	.LSFDE6:
 2610 0050 1C000000 		.4byte	.LEFDE6-.LASFDE6
 2611              	.LASFDE6:
 2612 0054 00000000 		.4byte	.Lframe0
ARM GAS  /cygdrive/c/Users/Anders/AppData/Local/Temp/ccAtSolr.s 			page 56


 2613 0058 34000000 		.4byte	.LFB12
 2614 005c 52000000 		.4byte	.LFE12-.LFB12
 2615 0060 42       		.byte	0x4
 2616              		.4byte	.LCFI2-.LFB12
 2617 0061 0E       		.byte	0xe
 2618 0062 14       		.uleb128 0x14
 2619 0063 84       		.byte	0x84
 2620 0064 05       		.uleb128 0x5
 2621 0065 85       		.byte	0x85
 2622 0066 04       		.uleb128 0x4
 2623 0067 86       		.byte	0x86
 2624 0068 03       		.uleb128 0x3
 2625 0069 87       		.byte	0x87
 2626 006a 02       		.uleb128 0x2
 2627 006b 8E       		.byte	0x8e
 2628 006c 01       		.uleb128 0x1
 2629 006d 000000   		.align	2
 2630              	.LEFDE6:
 2631              	.LSFDE8:
 2632 0070 1C000000 		.4byte	.LEFDE8-.LASFDE8
 2633              	.LASFDE8:
 2634 0074 00000000 		.4byte	.Lframe0
 2635 0078 88000000 		.4byte	.LFB14
 2636 007c C4000000 		.4byte	.LFE14-.LFB14
 2637 0080 42       		.byte	0x4
 2638              		.4byte	.LCFI3-.LFB14
 2639 0081 0E       		.byte	0xe
 2640 0082 14       		.uleb128 0x14
 2641 0083 84       		.byte	0x84
 2642 0084 05       		.uleb128 0x5
 2643 0085 85       		.byte	0x85
 2644 0086 04       		.uleb128 0x4
 2645 0087 86       		.byte	0x86
 2646 0088 03       		.uleb128 0x3
 2647 0089 87       		.byte	0x87
 2648 008a 02       		.uleb128 0x2
 2649 008b 8E       		.byte	0x8e
 2650 008c 01       		.uleb128 0x1
 2651 008d 000000   		.align	2
 2652              	.LEFDE8:
 2653              	.LSFDE10:
 2654 0090 14000000 		.4byte	.LEFDE10-.LASFDE10
 2655              	.LASFDE10:
 2656 0094 00000000 		.4byte	.Lframe0
 2657 0098 4C010000 		.4byte	.LFB15
 2658 009c 64000000 		.4byte	.LFE15-.LFB15
 2659 00a0 42       		.byte	0x4
 2660              		.4byte	.LCFI4-.LFB15
 2661 00a1 0E       		.byte	0xe
 2662 00a2 04       		.uleb128 0x4
 2663 00a3 8E       		.byte	0x8e
 2664 00a4 01       		.uleb128 0x1
 2665 00a5 000000   		.align	2
 2666              	.LEFDE10:
 2667              	.LSFDE12:
 2668 00a8 14000000 		.4byte	.LEFDE12-.LASFDE12
 2669              	.LASFDE12:
ARM GAS  /cygdrive/c/Users/Anders/AppData/Local/Temp/ccAtSolr.s 			page 57


 2670 00ac 00000000 		.4byte	.Lframe0
 2671 00b0 B0010000 		.4byte	.LFB16
 2672 00b4 18000000 		.4byte	.LFE16-.LFB16
 2673 00b8 42       		.byte	0x4
 2674              		.4byte	.LCFI5-.LFB16
 2675 00b9 0E       		.byte	0xe
 2676 00ba 08       		.uleb128 0x8
 2677 00bb 84       		.byte	0x84
 2678 00bc 02       		.uleb128 0x2
 2679 00bd 8E       		.byte	0x8e
 2680 00be 01       		.uleb128 0x1
 2681 00bf 00       		.align	2
 2682              	.LEFDE12:
 2683              	.LSFDE14:
 2684 00c0 1C000000 		.4byte	.LEFDE14-.LASFDE14
 2685              	.LASFDE14:
 2686 00c4 00000000 		.4byte	.Lframe0
 2687 00c8 C8010000 		.4byte	.LFB11
 2688 00cc 30000000 		.4byte	.LFE11-.LFB11
 2689 00d0 42       		.byte	0x4
 2690              		.4byte	.LCFI6-.LFB11
 2691 00d1 0E       		.byte	0xe
 2692 00d2 14       		.uleb128 0x14
 2693 00d3 84       		.byte	0x84
 2694 00d4 05       		.uleb128 0x5
 2695 00d5 85       		.byte	0x85
 2696 00d6 04       		.uleb128 0x4
 2697 00d7 86       		.byte	0x86
 2698 00d8 03       		.uleb128 0x3
 2699 00d9 87       		.byte	0x87
 2700 00da 02       		.uleb128 0x2
 2701 00db 8E       		.byte	0x8e
 2702 00dc 01       		.uleb128 0x1
 2703 00dd 000000   		.align	2
 2704              	.LEFDE14:
 2705              	.LSFDE16:
 2706 00e0 14000000 		.4byte	.LEFDE16-.LASFDE16
 2707              	.LASFDE16:
 2708 00e4 00000000 		.4byte	.Lframe0
 2709 00e8 F8010000 		.4byte	.LFB10
 2710 00ec 28000000 		.4byte	.LFE10-.LFB10
 2711 00f0 42       		.byte	0x4
 2712              		.4byte	.LCFI7-.LFB10
 2713 00f1 0E       		.byte	0xe
 2714 00f2 04       		.uleb128 0x4
 2715 00f3 8E       		.byte	0x8e
 2716 00f4 01       		.uleb128 0x1
 2717 00f5 000000   		.align	2
 2718              	.LEFDE16:
 2719              	.LSFDE18:
 2720 00f8 1C000000 		.4byte	.LEFDE18-.LASFDE18
 2721              	.LASFDE18:
 2722 00fc 00000000 		.4byte	.Lframe0
 2723 0100 20020000 		.4byte	.LFB9
 2724 0104 B2000000 		.4byte	.LFE9-.LFB9
 2725 0108 42       		.byte	0x4
 2726              		.4byte	.LCFI8-.LFB9
ARM GAS  /cygdrive/c/Users/Anders/AppData/Local/Temp/ccAtSolr.s 			page 58


 2727 0109 0E       		.byte	0xe
 2728 010a 14       		.uleb128 0x14
 2729 010b 84       		.byte	0x84
 2730 010c 05       		.uleb128 0x5
 2731 010d 85       		.byte	0x85
 2732 010e 04       		.uleb128 0x4
 2733 010f 86       		.byte	0x86
 2734 0110 03       		.uleb128 0x3
 2735 0111 87       		.byte	0x87
 2736 0112 02       		.uleb128 0x2
 2737 0113 8E       		.byte	0x8e
 2738 0114 01       		.uleb128 0x1
 2739 0115 42       		.byte	0x4
 2740              		.4byte	.LCFI9-.LCFI8
 2741 0116 0E       		.byte	0xe
 2742 0117 24       		.uleb128 0x24
 2743              		.align	2
 2744              	.LEFDE18:
 2745              	.LSFDE20:
 2746 0118 1C000000 		.4byte	.LEFDE20-.LASFDE20
 2747              	.LASFDE20:
 2748 011c 00000000 		.4byte	.Lframe0
 2749 0120 D4020000 		.4byte	.LFB8
 2750 0124 B2000000 		.4byte	.LFE8-.LFB8
 2751 0128 42       		.byte	0x4
 2752              		.4byte	.LCFI10-.LFB8
 2753 0129 0E       		.byte	0xe
 2754 012a 14       		.uleb128 0x14
 2755 012b 84       		.byte	0x84
 2756 012c 05       		.uleb128 0x5
 2757 012d 85       		.byte	0x85
 2758 012e 04       		.uleb128 0x4
 2759 012f 86       		.byte	0x86
 2760 0130 03       		.uleb128 0x3
 2761 0131 87       		.byte	0x87
 2762 0132 02       		.uleb128 0x2
 2763 0133 8E       		.byte	0x8e
 2764 0134 01       		.uleb128 0x1
 2765 0135 42       		.byte	0x4
 2766              		.4byte	.LCFI11-.LCFI10
 2767 0136 0E       		.byte	0xe
 2768 0137 24       		.uleb128 0x24
 2769              		.align	2
 2770              	.LEFDE20:
 2771              	.LSFDE22:
 2772 0138 1C000000 		.4byte	.LEFDE22-.LASFDE22
 2773              	.LASFDE22:
 2774 013c 00000000 		.4byte	.Lframe0
 2775 0140 88030000 		.4byte	.LFB7
 2776 0144 64000000 		.4byte	.LFE7-.LFB7
 2777 0148 42       		.byte	0x4
 2778              		.4byte	.LCFI12-.LFB7
 2779 0149 0E       		.byte	0xe
 2780 014a 14       		.uleb128 0x14
 2781 014b 84       		.byte	0x84
 2782 014c 05       		.uleb128 0x5
 2783 014d 85       		.byte	0x85
ARM GAS  /cygdrive/c/Users/Anders/AppData/Local/Temp/ccAtSolr.s 			page 59


 2784 014e 04       		.uleb128 0x4
 2785 014f 86       		.byte	0x86
 2786 0150 03       		.uleb128 0x3
 2787 0151 87       		.byte	0x87
 2788 0152 02       		.uleb128 0x2
 2789 0153 8E       		.byte	0x8e
 2790 0154 01       		.uleb128 0x1
 2791 0155 42       		.byte	0x4
 2792              		.4byte	.LCFI13-.LCFI12
 2793 0156 0E       		.byte	0xe
 2794 0157 18       		.uleb128 0x18
 2795              		.align	2
 2796              	.LEFDE22:
 2797              	.LSFDE24:
 2798 0158 14000000 		.4byte	.LEFDE24-.LASFDE24
 2799              	.LASFDE24:
 2800 015c 00000000 		.4byte	.Lframe0
 2801 0160 EC030000 		.4byte	.LFB6
 2802 0164 24000000 		.4byte	.LFE6-.LFB6
 2803 0168 42       		.byte	0x4
 2804              		.4byte	.LCFI14-.LFB6
 2805 0169 0E       		.byte	0xe
 2806 016a 08       		.uleb128 0x8
 2807 016b 84       		.byte	0x84
 2808 016c 02       		.uleb128 0x2
 2809 016d 8E       		.byte	0x8e
 2810 016e 01       		.uleb128 0x1
 2811 016f 00       		.align	2
 2812              	.LEFDE24:
 2813              	.LSFDE26:
 2814 0170 14000000 		.4byte	.LEFDE26-.LASFDE26
 2815              	.LASFDE26:
 2816 0174 00000000 		.4byte	.Lframe0
 2817 0178 10040000 		.4byte	.LFB3
 2818 017c 54000000 		.4byte	.LFE3-.LFB3
 2819 0180 42       		.byte	0x4
 2820              		.4byte	.LCFI15-.LFB3
 2821 0181 0E       		.byte	0xe
 2822 0182 08       		.uleb128 0x8
 2823 0183 84       		.byte	0x84
 2824 0184 02       		.uleb128 0x2
 2825 0185 8E       		.byte	0x8e
 2826 0186 01       		.uleb128 0x1
 2827 0187 00       		.align	2
 2828              	.LEFDE26:
 2829              	.LSFDE28:
 2830 0188 14000000 		.4byte	.LEFDE28-.LASFDE28
 2831              	.LASFDE28:
 2832 018c 00000000 		.4byte	.Lframe0
 2833 0190 64040000 		.4byte	.LFB4
 2834 0194 1C000000 		.4byte	.LFE4-.LFB4
 2835 0198 42       		.byte	0x4
 2836              		.4byte	.LCFI16-.LFB4
 2837 0199 0E       		.byte	0xe
 2838 019a 04       		.uleb128 0x4
 2839 019b 8E       		.byte	0x8e
 2840 019c 01       		.uleb128 0x1
ARM GAS  /cygdrive/c/Users/Anders/AppData/Local/Temp/ccAtSolr.s 			page 60


 2841 019d 000000   		.align	2
 2842              	.LEFDE28:
 2843              	.LSFDE30:
 2844 01a0 14000000 		.4byte	.LEFDE30-.LASFDE30
 2845              	.LASFDE30:
 2846 01a4 00000000 		.4byte	.Lframe0
 2847 01a8 80040000 		.4byte	.LFB2
 2848 01ac F4000000 		.4byte	.LFE2-.LFB2
 2849 01b0 42       		.byte	0x4
 2850              		.4byte	.LCFI17-.LFB2
 2851 01b1 0E       		.byte	0xe
 2852 01b2 04       		.uleb128 0x4
 2853 01b3 8E       		.byte	0x8e
 2854 01b4 01       		.uleb128 0x1
 2855 01b5 000000   		.align	2
 2856              	.LEFDE30:
 2857              		.text
 2858              	.Letext0:
 2859              		.section	.debug_loc,"",%progbits
 2860              	.Ldebug_loc0:
 2861              	.LLST1:
 2862 0000 14000000 		.4byte	.LFB18-.Ltext0
 2863 0004 16000000 		.4byte	.LCFI0-.Ltext0
 2864 0008 0100     		.2byte	0x1
 2865 000a 5D       		.byte	0x5d
 2866 000b 16000000 		.4byte	.LCFI0-.Ltext0
 2867 000f 24000000 		.4byte	.LFE18-.Ltext0
 2868 0013 0200     		.2byte	0x2
 2869 0015 7D       		.byte	0x7d
 2870 0016 04       		.sleb128 4
 2871 0017 00000000 		.4byte	0x0
 2872 001b 00000000 		.4byte	0x0
 2873              	.LLST2:
 2874 001f 16000000 		.4byte	.LVL1-.Ltext0
 2875 0023 1A000000 		.4byte	.LVL2-.Ltext0
 2876 0027 0100     		.2byte	0x1
 2877 0029 50       		.byte	0x50
 2878 002a 1A000000 		.4byte	.LVL2-.Ltext0
 2879 002e 20000000 		.4byte	.LVL3-.Ltext0
 2880 0032 0100     		.2byte	0x1
 2881 0034 51       		.byte	0x51
 2882 0035 00000000 		.4byte	0x0
 2883 0039 00000000 		.4byte	0x0
 2884              	.LLST3:
 2885 003d 24000000 		.4byte	.LFB17-.Ltext0
 2886 0041 26000000 		.4byte	.LCFI1-.Ltext0
 2887 0045 0100     		.2byte	0x1
 2888 0047 5D       		.byte	0x5d
 2889 0048 26000000 		.4byte	.LCFI1-.Ltext0
 2890 004c 34000000 		.4byte	.LFE17-.Ltext0
 2891 0050 0200     		.2byte	0x2
 2892 0052 7D       		.byte	0x7d
 2893 0053 04       		.sleb128 4
 2894 0054 00000000 		.4byte	0x0
 2895 0058 00000000 		.4byte	0x0
 2896              	.LLST4:
 2897 005c 26000000 		.4byte	.LVL4-.Ltext0
ARM GAS  /cygdrive/c/Users/Anders/AppData/Local/Temp/ccAtSolr.s 			page 61


 2898 0060 2A000000 		.4byte	.LVL5-.Ltext0
 2899 0064 0100     		.2byte	0x1
 2900 0066 50       		.byte	0x50
 2901 0067 2A000000 		.4byte	.LVL5-.Ltext0
 2902 006b 30000000 		.4byte	.LVL6-.Ltext0
 2903 006f 0100     		.2byte	0x1
 2904 0071 51       		.byte	0x51
 2905 0072 00000000 		.4byte	0x0
 2906 0076 00000000 		.4byte	0x0
 2907              	.LLST5:
 2908 007a 34000000 		.4byte	.LFB12-.Ltext0
 2909 007e 36000000 		.4byte	.LCFI2-.Ltext0
 2910 0082 0100     		.2byte	0x1
 2911 0084 5D       		.byte	0x5d
 2912 0085 36000000 		.4byte	.LCFI2-.Ltext0
 2913 0089 86000000 		.4byte	.LFE12-.Ltext0
 2914 008d 0200     		.2byte	0x2
 2915 008f 7D       		.byte	0x7d
 2916 0090 14       		.sleb128 20
 2917 0091 00000000 		.4byte	0x0
 2918 0095 00000000 		.4byte	0x0
 2919              	.LLST6:
 2920 0099 36000000 		.4byte	.LVL7-.Ltext0
 2921 009d 3C000000 		.4byte	.LVL8-.Ltext0
 2922 00a1 0100     		.2byte	0x1
 2923 00a3 50       		.byte	0x50
 2924 00a4 3C000000 		.4byte	.LVL8-.Ltext0
 2925 00a8 40000000 		.4byte	.LVL10-.Ltext0
 2926 00ac 0100     		.2byte	0x1
 2927 00ae 54       		.byte	0x54
 2928 00af 00000000 		.4byte	0x0
 2929 00b3 00000000 		.4byte	0x0
 2930              	.LLST7:
 2931 00b7 36000000 		.4byte	.LVL7-.Ltext0
 2932 00bb 4E000000 		.4byte	.LVL13-.Ltext0
 2933 00bf 0100     		.2byte	0x1
 2934 00c1 51       		.byte	0x51
 2935 00c2 4E000000 		.4byte	.LVL13-.Ltext0
 2936 00c6 5A000000 		.4byte	.LVL15-.Ltext0
 2937 00ca 0100     		.2byte	0x1
 2938 00cc 56       		.byte	0x56
 2939 00cd 00000000 		.4byte	0x0
 2940 00d1 00000000 		.4byte	0x0
 2941              	.LLST8:
 2942 00d5 36000000 		.4byte	.LVL7-.Ltext0
 2943 00d9 3E000000 		.4byte	.LVL9-.Ltext0
 2944 00dd 0100     		.2byte	0x1
 2945 00df 52       		.byte	0x52
 2946 00e0 3E000000 		.4byte	.LVL9-.Ltext0
 2947 00e4 46000000 		.4byte	.LVL11-.Ltext0
 2948 00e8 0100     		.2byte	0x1
 2949 00ea 55       		.byte	0x55
 2950 00eb 00000000 		.4byte	0x0
 2951 00ef 00000000 		.4byte	0x0
 2952              	.LLST9:
 2953 00f3 36000000 		.4byte	.LVL7-.Ltext0
 2954 00f7 48000000 		.4byte	.LVL12-.Ltext0
ARM GAS  /cygdrive/c/Users/Anders/AppData/Local/Temp/ccAtSolr.s 			page 62


 2955 00fb 0100     		.2byte	0x1
 2956 00fd 53       		.byte	0x53
 2957 00fe 52000000 		.4byte	.LVL14-.Ltext0
 2958 0102 80000000 		.4byte	.LVL16-.Ltext0
 2959 0106 0100     		.2byte	0x1
 2960 0108 57       		.byte	0x57
 2961 0109 00000000 		.4byte	0x0
 2962 010d 00000000 		.4byte	0x0
 2963              	.LLST10:
 2964 0111 88000000 		.4byte	.LFB14-.Ltext0
 2965 0115 8A000000 		.4byte	.LCFI3-.Ltext0
 2966 0119 0100     		.2byte	0x1
 2967 011b 5D       		.byte	0x5d
 2968 011c 8A000000 		.4byte	.LCFI3-.Ltext0
 2969 0120 4C010000 		.4byte	.LFE14-.Ltext0
 2970 0124 0200     		.2byte	0x2
 2971 0126 7D       		.byte	0x7d
 2972 0127 14       		.sleb128 20
 2973 0128 00000000 		.4byte	0x0
 2974 012c 00000000 		.4byte	0x0
 2975              	.LLST11:
 2976 0130 8A000000 		.4byte	.LVL17-.Ltext0
 2977 0134 8C000000 		.4byte	.LVL18-.Ltext0
 2978 0138 0100     		.2byte	0x1
 2979 013a 50       		.byte	0x50
 2980 013b 8E000000 		.4byte	.LVL19-.Ltext0
 2981 013f AE000000 		.4byte	.LVL20-.Ltext0
 2982 0143 0100     		.2byte	0x1
 2983 0145 54       		.byte	0x54
 2984 0146 22010000 		.4byte	.LVL22-.Ltext0
 2985 014a 30010000 		.4byte	.LVL23-.Ltext0
 2986 014e 0100     		.2byte	0x1
 2987 0150 54       		.byte	0x54
 2988 0151 00000000 		.4byte	0x0
 2989 0155 00000000 		.4byte	0x0
 2990              	.LLST12:
 2991 0159 F6000000 		.4byte	.LVL21-.Ltext0
 2992 015d 30010000 		.4byte	.LVL24-.Ltext0
 2993 0161 0100     		.2byte	0x1
 2994 0163 55       		.byte	0x55
 2995 0164 00000000 		.4byte	0x0
 2996 0168 00000000 		.4byte	0x0
 2997              	.LLST13:
 2998 016c F6000000 		.4byte	.LVL21-.Ltext0
 2999 0170 30010000 		.4byte	.LVL23-.Ltext0
 3000 0174 0100     		.2byte	0x1
 3001 0176 54       		.byte	0x54
 3002 0177 00000000 		.4byte	0x0
 3003 017b 00000000 		.4byte	0x0
 3004              	.LLST14:
 3005 017f 4C010000 		.4byte	.LFB15-.Ltext0
 3006 0183 4E010000 		.4byte	.LCFI4-.Ltext0
 3007 0187 0100     		.2byte	0x1
 3008 0189 5D       		.byte	0x5d
 3009 018a 4E010000 		.4byte	.LCFI4-.Ltext0
 3010 018e B0010000 		.4byte	.LFE15-.Ltext0
 3011 0192 0200     		.2byte	0x2
ARM GAS  /cygdrive/c/Users/Anders/AppData/Local/Temp/ccAtSolr.s 			page 63


 3012 0194 7D       		.byte	0x7d
 3013 0195 04       		.sleb128 4
 3014 0196 00000000 		.4byte	0x0
 3015 019a 00000000 		.4byte	0x0
 3016              	.LLST15:
 3017 019e 4E010000 		.4byte	.LVL25-.Ltext0
 3018 01a2 50010000 		.4byte	.LVL26-.Ltext0
 3019 01a6 0100     		.2byte	0x1
 3020 01a8 50       		.byte	0x50
 3021 01a9 52010000 		.4byte	.LVL27-.Ltext0
 3022 01ad 9A010000 		.4byte	.LVL28-.Ltext0
 3023 01b1 0100     		.2byte	0x1
 3024 01b3 50       		.byte	0x50
 3025 01b4 9A010000 		.4byte	.LVL29-.Ltext0
 3026 01b8 B0010000 		.4byte	.LFE15-.Ltext0
 3027 01bc 0100     		.2byte	0x1
 3028 01be 50       		.byte	0x50
 3029 01bf 00000000 		.4byte	0x0
 3030 01c3 00000000 		.4byte	0x0
 3031              	.LLST16:
 3032 01c7 B0010000 		.4byte	.LFB16-.Ltext0
 3033 01cb B2010000 		.4byte	.LCFI5-.Ltext0
 3034 01cf 0100     		.2byte	0x1
 3035 01d1 5D       		.byte	0x5d
 3036 01d2 B2010000 		.4byte	.LCFI5-.Ltext0
 3037 01d6 C8010000 		.4byte	.LFE16-.Ltext0
 3038 01da 0200     		.2byte	0x2
 3039 01dc 7D       		.byte	0x7d
 3040 01dd 08       		.sleb128 8
 3041 01de 00000000 		.4byte	0x0
 3042 01e2 00000000 		.4byte	0x0
 3043              	.LLST17:
 3044 01e6 B2010000 		.4byte	.LVL30-.Ltext0
 3045 01ea B6010000 		.4byte	.LVL31-.Ltext0
 3046 01ee 0100     		.2byte	0x1
 3047 01f0 50       		.byte	0x50
 3048 01f1 B6010000 		.4byte	.LVL31-.Ltext0
 3049 01f5 C2010000 		.4byte	.LVL33-.Ltext0
 3050 01f9 0100     		.2byte	0x1
 3051 01fb 54       		.byte	0x54
 3052 01fc 00000000 		.4byte	0x0
 3053 0200 00000000 		.4byte	0x0
 3054              	.LLST18:
 3055 0204 C8010000 		.4byte	.LFB11-.Ltext0
 3056 0208 CA010000 		.4byte	.LCFI6-.Ltext0
 3057 020c 0100     		.2byte	0x1
 3058 020e 5D       		.byte	0x5d
 3059 020f CA010000 		.4byte	.LCFI6-.Ltext0
 3060 0213 F8010000 		.4byte	.LFE11-.Ltext0
 3061 0217 0200     		.2byte	0x2
 3062 0219 7D       		.byte	0x7d
 3063 021a 14       		.sleb128 20
 3064 021b 00000000 		.4byte	0x0
 3065 021f 00000000 		.4byte	0x0
 3066              	.LLST19:
 3067 0223 CA010000 		.4byte	.LVL34-.Ltext0
 3068 0227 DA010000 		.4byte	.LVL39-.Ltext0
ARM GAS  /cygdrive/c/Users/Anders/AppData/Local/Temp/ccAtSolr.s 			page 64


 3069 022b 0100     		.2byte	0x1
 3070 022d 50       		.byte	0x50
 3071 022e DA010000 		.4byte	.LVL39-.Ltext0
 3072 0232 F2010000 		.4byte	.LVL40-.Ltext0
 3073 0236 0100     		.2byte	0x1
 3074 0238 54       		.byte	0x54
 3075 0239 00000000 		.4byte	0x0
 3076 023d 00000000 		.4byte	0x0
 3077              	.LLST20:
 3078 0241 CA010000 		.4byte	.LVL34-.Ltext0
 3079 0245 D6010000 		.4byte	.LVL37-.Ltext0
 3080 0249 0100     		.2byte	0x1
 3081 024b 51       		.byte	0x51
 3082 024c D6010000 		.4byte	.LVL37-.Ltext0
 3083 0250 F2010000 		.4byte	.LVL41-.Ltext0
 3084 0254 0100     		.2byte	0x1
 3085 0256 55       		.byte	0x55
 3086 0257 00000000 		.4byte	0x0
 3087 025b 00000000 		.4byte	0x0
 3088              	.LLST21:
 3089 025f CA010000 		.4byte	.LVL34-.Ltext0
 3090 0263 D8010000 		.4byte	.LVL38-.Ltext0
 3091 0267 0100     		.2byte	0x1
 3092 0269 52       		.byte	0x52
 3093 026a D8010000 		.4byte	.LVL38-.Ltext0
 3094 026e F2010000 		.4byte	.LVL42-.Ltext0
 3095 0272 0100     		.2byte	0x1
 3096 0274 56       		.byte	0x56
 3097 0275 00000000 		.4byte	0x0
 3098 0279 00000000 		.4byte	0x0
 3099              	.LLST22:
 3100 027d CA010000 		.4byte	.LVL34-.Ltext0
 3101 0281 D0010000 		.4byte	.LVL35-.Ltext0
 3102 0285 0100     		.2byte	0x1
 3103 0287 53       		.byte	0x53
 3104 0288 D4010000 		.4byte	.LVL36-.Ltext0
 3105 028c F2010000 		.4byte	.LVL43-.Ltext0
 3106 0290 0100     		.2byte	0x1
 3107 0292 57       		.byte	0x57
 3108 0293 00000000 		.4byte	0x0
 3109 0297 00000000 		.4byte	0x0
 3110              	.LLST23:
 3111 029b F8010000 		.4byte	.LFB10-.Ltext0
 3112 029f FA010000 		.4byte	.LCFI7-.Ltext0
 3113 02a3 0100     		.2byte	0x1
 3114 02a5 5D       		.byte	0x5d
 3115 02a6 FA010000 		.4byte	.LCFI7-.Ltext0
 3116 02aa 20020000 		.4byte	.LFE10-.Ltext0
 3117 02ae 0200     		.2byte	0x2
 3118 02b0 7D       		.byte	0x7d
 3119 02b1 04       		.sleb128 4
 3120 02b2 00000000 		.4byte	0x0
 3121 02b6 00000000 		.4byte	0x0
 3122              	.LLST24:
 3123 02ba FA010000 		.4byte	.LVL44-.Ltext0
 3124 02be FE010000 		.4byte	.LVL45-.Ltext0
 3125 02c2 0100     		.2byte	0x1
ARM GAS  /cygdrive/c/Users/Anders/AppData/Local/Temp/ccAtSolr.s 			page 65


 3126 02c4 50       		.byte	0x50
 3127 02c5 00020000 		.4byte	.LVL46-.Ltext0
 3128 02c9 12020000 		.4byte	.LVL49-.Ltext0
 3129 02cd 0100     		.2byte	0x1
 3130 02cf 50       		.byte	0x50
 3131 02d0 00000000 		.4byte	0x0
 3132 02d4 00000000 		.4byte	0x0
 3133              	.LLST25:
 3134 02d8 FA010000 		.4byte	.LVL44-.Ltext0
 3135 02dc 04020000 		.4byte	.LVL47-.Ltext0
 3136 02e0 0100     		.2byte	0x1
 3137 02e2 51       		.byte	0x51
 3138 02e3 08020000 		.4byte	.LVL48-.Ltext0
 3139 02e7 12020000 		.4byte	.LVL49-.Ltext0
 3140 02eb 0100     		.2byte	0x1
 3141 02ed 51       		.byte	0x51
 3142 02ee 00000000 		.4byte	0x0
 3143 02f2 00000000 		.4byte	0x0
 3144              	.LLST26:
 3145 02f6 20020000 		.4byte	.LFB9-.Ltext0
 3146 02fa 22020000 		.4byte	.LCFI8-.Ltext0
 3147 02fe 0100     		.2byte	0x1
 3148 0300 5D       		.byte	0x5d
 3149 0301 22020000 		.4byte	.LCFI8-.Ltext0
 3150 0305 24020000 		.4byte	.LCFI9-.Ltext0
 3151 0309 0200     		.2byte	0x2
 3152 030b 7D       		.byte	0x7d
 3153 030c 14       		.sleb128 20
 3154 030d 24020000 		.4byte	.LCFI9-.Ltext0
 3155 0311 D2020000 		.4byte	.LFE9-.Ltext0
 3156 0315 0200     		.2byte	0x2
 3157 0317 7D       		.byte	0x7d
 3158 0318 24       		.sleb128 36
 3159 0319 00000000 		.4byte	0x0
 3160 031d 00000000 		.4byte	0x0
 3161              	.LLST27:
 3162 0321 22020000 		.4byte	.LVL50-.Ltext0
 3163 0325 3E020000 		.4byte	.LVL55-.Ltext0
 3164 0329 0100     		.2byte	0x1
 3165 032b 50       		.byte	0x50
 3166 032c 40020000 		.4byte	.LVL56-.Ltext0
 3167 0330 80020000 		.4byte	.LVL65-.Ltext0
 3168 0334 0100     		.2byte	0x1
 3169 0336 54       		.byte	0x54
 3170 0337 90020000 		.4byte	.LVL66-.Ltext0
 3171 033b A0020000 		.4byte	.LVL69-.Ltext0
 3172 033f 0100     		.2byte	0x1
 3173 0341 54       		.byte	0x54
 3174 0342 B8020000 		.4byte	.LVL72-.Ltext0
 3175 0346 CC020000 		.4byte	.LVL74-.Ltext0
 3176 034a 0100     		.2byte	0x1
 3177 034c 54       		.byte	0x54
 3178 034d 00000000 		.4byte	0x0
 3179 0351 00000000 		.4byte	0x0
 3180              	.LLST28:
 3181 0355 22020000 		.4byte	.LVL50-.Ltext0
 3182 0359 2A020000 		.4byte	.LVL51-.Ltext0
ARM GAS  /cygdrive/c/Users/Anders/AppData/Local/Temp/ccAtSolr.s 			page 66


 3183 035d 0100     		.2byte	0x1
 3184 035f 51       		.byte	0x51
 3185 0360 2A020000 		.4byte	.LVL51-.Ltext0
 3186 0364 48020000 		.4byte	.LVL59-.Ltext0
 3187 0368 0100     		.2byte	0x1
 3188 036a 55       		.byte	0x55
 3189 036b 50020000 		.4byte	.LVL60-.Ltext0
 3190 036f 7A020000 		.4byte	.LVL63-.Ltext0
 3191 0373 0100     		.2byte	0x1
 3192 0375 55       		.byte	0x55
 3193 0376 00000000 		.4byte	0x0
 3194 037a 00000000 		.4byte	0x0
 3195              	.LLST29:
 3196 037e 22020000 		.4byte	.LVL50-.Ltext0
 3197 0382 2E020000 		.4byte	.LVL53-.Ltext0
 3198 0386 0100     		.2byte	0x1
 3199 0388 52       		.byte	0x52
 3200 0389 32020000 		.4byte	.LVL54-.Ltext0
 3201 038d D2020000 		.4byte	.LFE9-.Ltext0
 3202 0391 0200     		.2byte	0x2
 3203 0393 91       		.byte	0x91
 3204 0394 78       		.sleb128 -8
 3205 0395 00000000 		.4byte	0x0
 3206 0399 00000000 		.4byte	0x0
 3207              	.LLST30:
 3208 039d 22020000 		.4byte	.LVL50-.Ltext0
 3209 03a1 2C020000 		.4byte	.LVL52-.Ltext0
 3210 03a5 0100     		.2byte	0x1
 3211 03a7 53       		.byte	0x53
 3212 03a8 2C020000 		.4byte	.LVL52-.Ltext0
 3213 03ac 52020000 		.4byte	.LVL61-.Ltext0
 3214 03b0 0100     		.2byte	0x1
 3215 03b2 56       		.byte	0x56
 3216 03b3 56020000 		.4byte	.LVL62-.Ltext0
 3217 03b7 9E020000 		.4byte	.LVL68-.Ltext0
 3218 03bb 0100     		.2byte	0x1
 3219 03bd 56       		.byte	0x56
 3220 03be B8020000 		.4byte	.LVL72-.Ltext0
 3221 03c2 CC020000 		.4byte	.LVL76-.Ltext0
 3222 03c6 0100     		.2byte	0x1
 3223 03c8 56       		.byte	0x56
 3224 03c9 00000000 		.4byte	0x0
 3225 03cd 00000000 		.4byte	0x0
 3226              	.LLST31:
 3227 03d1 22020000 		.4byte	.LVL50-.Ltext0
 3228 03d5 42020000 		.4byte	.LVL57-.Ltext0
 3229 03d9 0200     		.2byte	0x2
 3230 03db 91       		.byte	0x91
 3231 03dc 00       		.sleb128 0
 3232 03dd 42020000 		.4byte	.LVL57-.Ltext0
 3233 03e1 D2020000 		.4byte	.LFE9-.Ltext0
 3234 03e5 0200     		.2byte	0x2
 3235 03e7 91       		.byte	0x91
 3236 03e8 74       		.sleb128 -12
 3237 03e9 00000000 		.4byte	0x0
 3238 03ed 00000000 		.4byte	0x0
 3239              	.LLST32:
ARM GAS  /cygdrive/c/Users/Anders/AppData/Local/Temp/ccAtSolr.s 			page 67


 3240 03f1 22020000 		.4byte	.LVL50-.Ltext0
 3241 03f5 44020000 		.4byte	.LVL58-.Ltext0
 3242 03f9 0200     		.2byte	0x2
 3243 03fb 91       		.byte	0x91
 3244 03fc 04       		.sleb128 4
 3245 03fd 44020000 		.4byte	.LVL58-.Ltext0
 3246 0401 D2020000 		.4byte	.LFE9-.Ltext0
 3247 0405 0200     		.2byte	0x2
 3248 0407 91       		.byte	0x91
 3249 0408 70       		.sleb128 -16
 3250 0409 00000000 		.4byte	0x0
 3251 040d 00000000 		.4byte	0x0
 3252              	.LLST33:
 3253 0411 22020000 		.4byte	.LVL50-.Ltext0
 3254 0415 7E020000 		.4byte	.LVL64-.Ltext0
 3255 0419 0200     		.2byte	0x2
 3256 041b 91       		.byte	0x91
 3257 041c 08       		.sleb128 8
 3258 041d 7E020000 		.4byte	.LVL64-.Ltext0
 3259 0421 9C020000 		.4byte	.LVL67-.Ltext0
 3260 0425 0100     		.2byte	0x1
 3261 0427 57       		.byte	0x57
 3262 0428 9C020000 		.4byte	.LVL67-.Ltext0
 3263 042c 9E020000 		.4byte	.LVL68-.Ltext0
 3264 0430 0200     		.2byte	0x2
 3265 0432 91       		.byte	0x91
 3266 0433 1C       		.sleb128 28
 3267 0434 9E020000 		.4byte	.LVL68-.Ltext0
 3268 0438 B4020000 		.4byte	.LVL71-.Ltext0
 3269 043c 0100     		.2byte	0x1
 3270 043e 56       		.byte	0x56
 3271 043f B4020000 		.4byte	.LVL71-.Ltext0
 3272 0443 CC020000 		.4byte	.LVL77-.Ltext0
 3273 0447 0100     		.2byte	0x1
 3274 0449 57       		.byte	0x57
 3275 044a CC020000 		.4byte	.LVL77-.Ltext0
 3276 044e D2020000 		.4byte	.LFE9-.Ltext0
 3277 0452 0200     		.2byte	0x2
 3278 0454 91       		.byte	0x91
 3279 0455 1C       		.sleb128 28
 3280 0456 00000000 		.4byte	0x0
 3281 045a 00000000 		.4byte	0x0
 3282              	.LLST34:
 3283 045e 80020000 		.4byte	.LVL65-.Ltext0
 3284 0462 CC020000 		.4byte	.LVL74-.Ltext0
 3285 0466 0100     		.2byte	0x1
 3286 0468 54       		.byte	0x54
 3287 0469 00000000 		.4byte	0x0
 3288 046d 00000000 		.4byte	0x0
 3289              	.LLST35:
 3290 0471 7A020000 		.4byte	.LVL63-.Ltext0
 3291 0475 CC020000 		.4byte	.LVL75-.Ltext0
 3292 0479 0100     		.2byte	0x1
 3293 047b 55       		.byte	0x55
 3294 047c 00000000 		.4byte	0x0
 3295 0480 00000000 		.4byte	0x0
 3296              	.LLST36:
ARM GAS  /cygdrive/c/Users/Anders/AppData/Local/Temp/ccAtSolr.s 			page 68


 3297 0484 D4020000 		.4byte	.LFB8-.Ltext0
 3298 0488 D6020000 		.4byte	.LCFI10-.Ltext0
 3299 048c 0100     		.2byte	0x1
 3300 048e 5D       		.byte	0x5d
 3301 048f D6020000 		.4byte	.LCFI10-.Ltext0
 3302 0493 D8020000 		.4byte	.LCFI11-.Ltext0
 3303 0497 0200     		.2byte	0x2
 3304 0499 7D       		.byte	0x7d
 3305 049a 14       		.sleb128 20
 3306 049b D8020000 		.4byte	.LCFI11-.Ltext0
 3307 049f 86030000 		.4byte	.LFE8-.Ltext0
 3308 04a3 0200     		.2byte	0x2
 3309 04a5 7D       		.byte	0x7d
 3310 04a6 24       		.sleb128 36
 3311 04a7 00000000 		.4byte	0x0
 3312 04ab 00000000 		.4byte	0x0
 3313              	.LLST37:
 3314 04af D6020000 		.4byte	.LVL78-.Ltext0
 3315 04b3 DC020000 		.4byte	.LVL79-.Ltext0
 3316 04b7 0100     		.2byte	0x1
 3317 04b9 50       		.byte	0x50
 3318 04ba DC020000 		.4byte	.LVL79-.Ltext0
 3319 04be FA020000 		.4byte	.LVL84-.Ltext0
 3320 04c2 0100     		.2byte	0x1
 3321 04c4 55       		.byte	0x55
 3322 04c5 00030000 		.4byte	.LVL87-.Ltext0
 3323 04c9 48030000 		.4byte	.LVL95-.Ltext0
 3324 04cd 0100     		.2byte	0x1
 3325 04cf 55       		.byte	0x55
 3326 04d0 60030000 		.4byte	.LVL97-.Ltext0
 3327 04d4 6A030000 		.4byte	.LVL98-.Ltext0
 3328 04d8 0100     		.2byte	0x1
 3329 04da 55       		.byte	0x55
 3330 04db 00000000 		.4byte	0x0
 3331 04df 00000000 		.4byte	0x0
 3332              	.LLST38:
 3333 04e3 D6020000 		.4byte	.LVL78-.Ltext0
 3334 04e7 E2020000 		.4byte	.LVL80-.Ltext0
 3335 04eb 0100     		.2byte	0x1
 3336 04ed 51       		.byte	0x51
 3337 04ee E2020000 		.4byte	.LVL80-.Ltext0
 3338 04f2 FC020000 		.4byte	.LVL85-.Ltext0
 3339 04f6 0100     		.2byte	0x1
 3340 04f8 56       		.byte	0x56
 3341 04f9 02030000 		.4byte	.LVL88-.Ltext0
 3342 04fd 3E030000 		.4byte	.LVL93-.Ltext0
 3343 0501 0100     		.2byte	0x1
 3344 0503 56       		.byte	0x56
 3345 0504 00000000 		.4byte	0x0
 3346 0508 00000000 		.4byte	0x0
 3347              	.LLST39:
 3348 050c D6020000 		.4byte	.LVL78-.Ltext0
 3349 0510 EE020000 		.4byte	.LVL82-.Ltext0
 3350 0514 0100     		.2byte	0x1
 3351 0516 52       		.byte	0x52
 3352 0517 FE020000 		.4byte	.LVL86-.Ltext0
 3353 051b 80030000 		.4byte	.LVL101-.Ltext0
ARM GAS  /cygdrive/c/Users/Anders/AppData/Local/Temp/ccAtSolr.s 			page 69


 3354 051f 0100     		.2byte	0x1
 3355 0521 57       		.byte	0x57
 3356 0522 00000000 		.4byte	0x0
 3357 0526 00000000 		.4byte	0x0
 3358              	.LLST40:
 3359 052a D6020000 		.4byte	.LVL78-.Ltext0
 3360 052e E8020000 		.4byte	.LVL81-.Ltext0
 3361 0532 0100     		.2byte	0x1
 3362 0534 53       		.byte	0x53
 3363 0535 04030000 		.4byte	.LVL89-.Ltext0
 3364 0539 86030000 		.4byte	.LFE8-.Ltext0
 3365 053d 0200     		.2byte	0x2
 3366 053f 91       		.byte	0x91
 3367 0540 7C       		.sleb128 -4
 3368 0541 00000000 		.4byte	0x0
 3369 0545 00000000 		.4byte	0x0
 3370              	.LLST41:
 3371 0549 D6020000 		.4byte	.LVL78-.Ltext0
 3372 054d 06030000 		.4byte	.LVL90-.Ltext0
 3373 0551 0200     		.2byte	0x2
 3374 0553 91       		.byte	0x91
 3375 0554 00       		.sleb128 0
 3376 0555 06030000 		.4byte	.LVL90-.Ltext0
 3377 0559 86030000 		.4byte	.LFE8-.Ltext0
 3378 055d 0200     		.2byte	0x2
 3379 055f 91       		.byte	0x91
 3380 0560 78       		.sleb128 -8
 3381 0561 00000000 		.4byte	0x0
 3382 0565 00000000 		.4byte	0x0
 3383              	.LLST42:
 3384 0569 D6020000 		.4byte	.LVL78-.Ltext0
 3385 056d F4020000 		.4byte	.LVL83-.Ltext0
 3386 0571 0200     		.2byte	0x2
 3387 0573 91       		.byte	0x91
 3388 0574 04       		.sleb128 4
 3389 0575 F4020000 		.4byte	.LVL83-.Ltext0
 3390 0579 86030000 		.4byte	.LFE8-.Ltext0
 3391 057d 0200     		.2byte	0x2
 3392 057f 91       		.byte	0x91
 3393 0580 74       		.sleb128 -12
 3394 0581 00000000 		.4byte	0x0
 3395 0585 00000000 		.4byte	0x0
 3396              	.LLST43:
 3397 0589 D6020000 		.4byte	.LVL78-.Ltext0
 3398 058d 08030000 		.4byte	.LVL91-.Ltext0
 3399 0591 0200     		.2byte	0x2
 3400 0593 91       		.byte	0x91
 3401 0594 08       		.sleb128 8
 3402 0595 08030000 		.4byte	.LVL91-.Ltext0
 3403 0599 86030000 		.4byte	.LFE8-.Ltext0
 3404 059d 0200     		.2byte	0x2
 3405 059f 91       		.byte	0x91
 3406 05a0 70       		.sleb128 -16
 3407 05a1 00000000 		.4byte	0x0
 3408 05a5 00000000 		.4byte	0x0
 3409              	.LLST44:
 3410 05a9 2E030000 		.4byte	.LVL92-.Ltext0
ARM GAS  /cygdrive/c/Users/Anders/AppData/Local/Temp/ccAtSolr.s 			page 70


 3411 05ad 48030000 		.4byte	.LVL95-.Ltext0
 3412 05b1 0100     		.2byte	0x1
 3413 05b3 54       		.byte	0x54
 3414 05b4 48030000 		.4byte	.LVL95-.Ltext0
 3415 05b8 60030000 		.4byte	.LVL97-.Ltext0
 3416 05bc 0100     		.2byte	0x1
 3417 05be 55       		.byte	0x55
 3418 05bf 60030000 		.4byte	.LVL97-.Ltext0
 3419 05c3 6A030000 		.4byte	.LVL98-.Ltext0
 3420 05c7 0100     		.2byte	0x1
 3421 05c9 54       		.byte	0x54
 3422 05ca 6A030000 		.4byte	.LVL98-.Ltext0
 3423 05ce 80030000 		.4byte	.LVL99-.Ltext0
 3424 05d2 0100     		.2byte	0x1
 3425 05d4 55       		.byte	0x55
 3426 05d5 00000000 		.4byte	0x0
 3427 05d9 00000000 		.4byte	0x0
 3428              	.LLST45:
 3429 05dd 3E030000 		.4byte	.LVL93-.Ltext0
 3430 05e1 80030000 		.4byte	.LVL100-.Ltext0
 3431 05e5 0100     		.2byte	0x1
 3432 05e7 56       		.byte	0x56
 3433 05e8 00000000 		.4byte	0x0
 3434 05ec 00000000 		.4byte	0x0
 3435              	.LLST46:
 3436 05f0 88030000 		.4byte	.LFB7-.Ltext0
 3437 05f4 8A030000 		.4byte	.LCFI12-.Ltext0
 3438 05f8 0100     		.2byte	0x1
 3439 05fa 5D       		.byte	0x5d
 3440 05fb 8A030000 		.4byte	.LCFI12-.Ltext0
 3441 05ff 8C030000 		.4byte	.LCFI13-.Ltext0
 3442 0603 0200     		.2byte	0x2
 3443 0605 7D       		.byte	0x7d
 3444 0606 14       		.sleb128 20
 3445 0607 8C030000 		.4byte	.LCFI13-.Ltext0
 3446 060b EC030000 		.4byte	.LFE7-.Ltext0
 3447 060f 0200     		.2byte	0x2
 3448 0611 7D       		.byte	0x7d
 3449 0612 18       		.sleb128 24
 3450 0613 00000000 		.4byte	0x0
 3451 0617 00000000 		.4byte	0x0
 3452              	.LLST47:
 3453 061b 8A030000 		.4byte	.LVL102-.Ltext0
 3454 061f 98030000 		.4byte	.LVL104-.Ltext0
 3455 0623 0100     		.2byte	0x1
 3456 0625 50       		.byte	0x50
 3457 0626 98030000 		.4byte	.LVL104-.Ltext0
 3458 062a D0030000 		.4byte	.LVL112-.Ltext0
 3459 062e 0100     		.2byte	0x1
 3460 0630 54       		.byte	0x54
 3461 0631 00000000 		.4byte	0x0
 3462 0635 00000000 		.4byte	0x0
 3463              	.LLST48:
 3464 0639 8A030000 		.4byte	.LVL102-.Ltext0
 3465 063d 9A030000 		.4byte	.LVL105-.Ltext0
 3466 0641 0100     		.2byte	0x1
 3467 0643 51       		.byte	0x51
ARM GAS  /cygdrive/c/Users/Anders/AppData/Local/Temp/ccAtSolr.s 			page 71


 3468 0644 9A030000 		.4byte	.LVL105-.Ltext0
 3469 0648 CE030000 		.4byte	.LVL111-.Ltext0
 3470 064c 0100     		.2byte	0x1
 3471 064e 55       		.byte	0x55
 3472 064f 00000000 		.4byte	0x0
 3473 0653 00000000 		.4byte	0x0
 3474              	.LLST49:
 3475 0657 8A030000 		.4byte	.LVL102-.Ltext0
 3476 065b 9C030000 		.4byte	.LVL106-.Ltext0
 3477 065f 0100     		.2byte	0x1
 3478 0661 52       		.byte	0x52
 3479 0662 A4030000 		.4byte	.LVL108-.Ltext0
 3480 0666 E6030000 		.4byte	.LVL116-.Ltext0
 3481 066a 0100     		.2byte	0x1
 3482 066c 57       		.byte	0x57
 3483 066d 00000000 		.4byte	0x0
 3484 0671 00000000 		.4byte	0x0
 3485              	.LLST50:
 3486 0675 8A030000 		.4byte	.LVL102-.Ltext0
 3487 0679 90030000 		.4byte	.LVL103-.Ltext0
 3488 067d 0100     		.2byte	0x1
 3489 067f 53       		.byte	0x53
 3490 0680 90030000 		.4byte	.LVL103-.Ltext0
 3491 0684 A2030000 		.4byte	.LVL107-.Ltext0
 3492 0688 0100     		.2byte	0x1
 3493 068a 56       		.byte	0x56
 3494 068b A6030000 		.4byte	.LVL109-.Ltext0
 3495 068f E6030000 		.4byte	.LVL115-.Ltext0
 3496 0693 0100     		.2byte	0x1
 3497 0695 56       		.byte	0x56
 3498 0696 00000000 		.4byte	0x0
 3499 069a 00000000 		.4byte	0x0
 3500              	.LLST51:
 3501 069e 8A030000 		.4byte	.LVL102-.Ltext0
 3502 06a2 A8030000 		.4byte	.LVL110-.Ltext0
 3503 06a6 0200     		.2byte	0x2
 3504 06a8 91       		.byte	0x91
 3505 06a9 00       		.sleb128 0
 3506 06aa A8030000 		.4byte	.LVL110-.Ltext0
 3507 06ae EC030000 		.4byte	.LFE7-.Ltext0
 3508 06b2 0200     		.2byte	0x2
 3509 06b4 91       		.byte	0x91
 3510 06b5 7C       		.sleb128 -4
 3511 06b6 00000000 		.4byte	0x0
 3512 06ba 00000000 		.4byte	0x0
 3513              	.LLST52:
 3514 06be D0030000 		.4byte	.LVL112-.Ltext0
 3515 06c2 E6030000 		.4byte	.LVL113-.Ltext0
 3516 06c6 0100     		.2byte	0x1
 3517 06c8 54       		.byte	0x54
 3518 06c9 00000000 		.4byte	0x0
 3519 06cd 00000000 		.4byte	0x0
 3520              	.LLST53:
 3521 06d1 CE030000 		.4byte	.LVL111-.Ltext0
 3522 06d5 E6030000 		.4byte	.LVL114-.Ltext0
 3523 06d9 0100     		.2byte	0x1
 3524 06db 55       		.byte	0x55
ARM GAS  /cygdrive/c/Users/Anders/AppData/Local/Temp/ccAtSolr.s 			page 72


 3525 06dc 00000000 		.4byte	0x0
 3526 06e0 00000000 		.4byte	0x0
 3527              	.LLST54:
 3528 06e4 EC030000 		.4byte	.LFB6-.Ltext0
 3529 06e8 EE030000 		.4byte	.LCFI14-.Ltext0
 3530 06ec 0100     		.2byte	0x1
 3531 06ee 5D       		.byte	0x5d
 3532 06ef EE030000 		.4byte	.LCFI14-.Ltext0
 3533 06f3 10040000 		.4byte	.LFE6-.Ltext0
 3534 06f7 0200     		.2byte	0x2
 3535 06f9 7D       		.byte	0x7d
 3536 06fa 08       		.sleb128 8
 3537 06fb 00000000 		.4byte	0x0
 3538 06ff 00000000 		.4byte	0x0
 3539              	.LLST55:
 3540 0703 EE030000 		.4byte	.LVL117-.Ltext0
 3541 0707 F2030000 		.4byte	.LVL118-.Ltext0
 3542 070b 0100     		.2byte	0x1
 3543 070d 50       		.byte	0x50
 3544 070e F8030000 		.4byte	.LVL119-.Ltext0
 3545 0712 0A040000 		.4byte	.LVL120-.Ltext0
 3546 0716 0100     		.2byte	0x1
 3547 0718 54       		.byte	0x54
 3548 0719 00000000 		.4byte	0x0
 3549 071d 00000000 		.4byte	0x0
 3550              	.LLST56:
 3551 0721 10040000 		.4byte	.LFB3-.Ltext0
 3552 0725 12040000 		.4byte	.LCFI15-.Ltext0
 3553 0729 0100     		.2byte	0x1
 3554 072b 5D       		.byte	0x5d
 3555 072c 12040000 		.4byte	.LCFI15-.Ltext0
 3556 0730 64040000 		.4byte	.LFE3-.Ltext0
 3557 0734 0200     		.2byte	0x2
 3558 0736 7D       		.byte	0x7d
 3559 0737 08       		.sleb128 8
 3560 0738 00000000 		.4byte	0x0
 3561 073c 00000000 		.4byte	0x0
 3562              	.LLST57:
 3563 0740 36040000 		.4byte	.LVL121-.Ltext0
 3564 0744 4C040000 		.4byte	.LVL122-.Ltext0
 3565 0748 0100     		.2byte	0x1
 3566 074a 54       		.byte	0x54
 3567 074b 00000000 		.4byte	0x0
 3568 074f 00000000 		.4byte	0x0
 3569              	.LLST58:
 3570 0753 64040000 		.4byte	.LFB4-.Ltext0
 3571 0757 66040000 		.4byte	.LCFI16-.Ltext0
 3572 075b 0100     		.2byte	0x1
 3573 075d 5D       		.byte	0x5d
 3574 075e 66040000 		.4byte	.LCFI16-.Ltext0
 3575 0762 80040000 		.4byte	.LFE4-.Ltext0
 3576 0766 0200     		.2byte	0x2
 3577 0768 7D       		.byte	0x7d
 3578 0769 04       		.sleb128 4
 3579 076a 00000000 		.4byte	0x0
 3580 076e 00000000 		.4byte	0x0
 3581              	.LLST59:
ARM GAS  /cygdrive/c/Users/Anders/AppData/Local/Temp/ccAtSolr.s 			page 73


 3582 0772 80040000 		.4byte	.LFB2-.Ltext0
 3583 0776 82040000 		.4byte	.LCFI17-.Ltext0
 3584 077a 0100     		.2byte	0x1
 3585 077c 5D       		.byte	0x5d
 3586 077d 82040000 		.4byte	.LCFI17-.Ltext0
 3587 0781 74050000 		.4byte	.LFE2-.Ltext0
 3588 0785 0200     		.2byte	0x2
 3589 0787 7D       		.byte	0x7d
 3590 0788 04       		.sleb128 4
 3591 0789 00000000 		.4byte	0x0
 3592 078d 00000000 		.4byte	0x0
 3593              		.file 2 "./startup/../pre_emptive_os/api/general.h"
 3594              		.file 3 "ascii.h"
 3595              		.section	.debug_info
 3596 0000 8A050000 		.4byte	0x58a
 3597 0004 0200     		.2byte	0x2
 3598 0006 00000000 		.4byte	.Ldebug_abbrev0
 3599 000a 04       		.byte	0x4
 3600 000b 01       		.uleb128 0x1
 3601 000c 61000000 		.4byte	.LASF42
 3602 0010 01       		.byte	0x1
 3603 0011 E1010000 		.4byte	.LASF43
 3604 0015 D4000000 		.4byte	.LASF44
 3605 0019 00000000 		.4byte	.Ltext0
 3606 001d 74050000 		.4byte	.Letext0
 3607 0021 00000000 		.4byte	.Ldebug_line0
 3608 0025 02       		.uleb128 0x2
 3609 0026 74553800 		.ascii	"tU8\000"
 3610 002a 02       		.byte	0x2
 3611 002b 47       		.byte	0x47
 3612 002c 30000000 		.4byte	0x30
 3613 0030 03       		.uleb128 0x3
 3614 0031 01       		.byte	0x1
 3615 0032 08       		.byte	0x8
 3616 0033 84010000 		.4byte	.LASF0
 3617 0037 03       		.uleb128 0x3
 3618 0038 02       		.byte	0x2
 3619 0039 07       		.byte	0x7
 3620 003a C9010000 		.4byte	.LASF1
 3621 003e 04       		.uleb128 0x4
 3622 003f 90000000 		.4byte	.LASF2
 3623 0043 02       		.byte	0x2
 3624 0044 49       		.byte	0x49
 3625 0045 49000000 		.4byte	0x49
 3626 0049 03       		.uleb128 0x3
 3627 004a 04       		.byte	0x4
 3628 004b 07       		.byte	0x7
 3629 004c AE010000 		.4byte	.LASF3
 3630 0050 03       		.uleb128 0x3
 3631 0051 01       		.byte	0x1
 3632 0052 06       		.byte	0x6
 3633 0053 9A010000 		.4byte	.LASF4
 3634 0057 03       		.uleb128 0x3
 3635 0058 02       		.byte	0x2
 3636 0059 05       		.byte	0x5
 3637 005a 32000000 		.4byte	.LASF5
 3638 005e 04       		.uleb128 0x4
ARM GAS  /cygdrive/c/Users/Anders/AppData/Local/Temp/ccAtSolr.s 			page 74


 3639 005f 75010000 		.4byte	.LASF6
 3640 0063 02       		.byte	0x2
 3641 0064 4C       		.byte	0x4c
 3642 0065 69000000 		.4byte	0x69
 3643 0069 05       		.uleb128 0x5
 3644 006a 04       		.byte	0x4
 3645 006b 05       		.byte	0x5
 3646 006c 696E7400 		.ascii	"int\000"
 3647 0070 06       		.uleb128 0x6
 3648 0071 04       		.byte	0x4
 3649 0072 07       		.byte	0x7
 3650 0073 07       		.uleb128 0x7
 3651 0074 01       		.byte	0x1
 3652 0075 58000000 		.4byte	.LASF8
 3653 0079 01       		.byte	0x1
 3654 007a B7       		.byte	0xb7
 3655 007b 01       		.byte	0x1
 3656 007c 00000000 		.4byte	.LFB5
 3657 0080 14000000 		.4byte	.LFE5
 3658 0084 01       		.byte	0x1
 3659 0085 5D       		.byte	0x5d
 3660 0086 A5000000 		.4byte	0xa5
 3661 008a 08       		.uleb128 0x8
 3662 008b 626B6700 		.ascii	"bkg\000"
 3663 008f 01       		.byte	0x1
 3664 0090 B6       		.byte	0xb6
 3665 0091 25000000 		.4byte	0x25
 3666 0095 01       		.byte	0x1
 3667 0096 50       		.byte	0x50
 3668 0097 09       		.uleb128 0x9
 3669 0098 12000000 		.4byte	.LASF7
 3670 009c 01       		.byte	0x1
 3671 009d B6       		.byte	0xb6
 3672 009e 25000000 		.4byte	0x25
 3673 00a2 01       		.byte	0x1
 3674 00a3 51       		.byte	0x51
 3675 00a4 00       		.byte	0x0
 3676 00a5 0A       		.uleb128 0xa
 3677 00a6 01       		.byte	0x1
 3678 00a7 7F000000 		.4byte	.LASF9
 3679 00ab 01       		.byte	0x1
 3680 00ac 0502     		.2byte	0x205
 3681 00ae 01       		.byte	0x1
 3682 00af 14000000 		.4byte	.LFB18
 3683 00b3 24000000 		.4byte	.LFE18
 3684 00b7 00000000 		.4byte	.LLST1
 3685 00bb D0000000 		.4byte	0xd0
 3686 00bf 0B       		.uleb128 0xb
 3687 00c0 E7010000 		.4byte	.LASF10
 3688 00c4 01       		.byte	0x1
 3689 00c5 0402     		.2byte	0x204
 3690 00c7 25000000 		.4byte	0x25
 3691 00cb 1F000000 		.4byte	.LLST2
 3692 00cf 00       		.byte	0x0
 3693 00d0 0A       		.uleb128 0xa
 3694 00d1 01       		.byte	0x1
 3695 00d2 06020000 		.4byte	.LASF11
ARM GAS  /cygdrive/c/Users/Anders/AppData/Local/Temp/ccAtSolr.s 			page 75


 3696 00d6 01       		.byte	0x1
 3697 00d7 F801     		.2byte	0x1f8
 3698 00d9 01       		.byte	0x1
 3699 00da 24000000 		.4byte	.LFB17
 3700 00de 34000000 		.4byte	.LFE17
 3701 00e2 3D000000 		.4byte	.LLST3
 3702 00e6 FB000000 		.4byte	0xfb
 3703 00ea 0B       		.uleb128 0xb
 3704 00eb E7010000 		.4byte	.LASF10
 3705 00ef 01       		.byte	0x1
 3706 00f0 F701     		.2byte	0x1f7
 3707 00f2 25000000 		.4byte	0x25
 3708 00f6 5C000000 		.4byte	.LLST4
 3709 00fa 00       		.byte	0x0
 3710 00fb 0C       		.uleb128 0xc
 3711 00fc 4D000000 		.4byte	.LASF45
 3712 0100 01       		.byte	0x1
 3713 0101 7901     		.2byte	0x179
 3714 0103 01       		.byte	0x1
 3715 0104 34000000 		.4byte	.LFB12
 3716 0108 86000000 		.4byte	.LFE12
 3717 010c 7A000000 		.4byte	.LLST5
 3718 0110 51010000 		.4byte	0x151
 3719 0114 0D       		.uleb128 0xd
 3720 0115 787000   		.ascii	"xp\000"
 3721 0118 01       		.byte	0x1
 3722 0119 7801     		.2byte	0x178
 3723 011b 25000000 		.4byte	0x25
 3724 011f 99000000 		.4byte	.LLST6
 3725 0123 0D       		.uleb128 0xd
 3726 0124 797000   		.ascii	"yp\000"
 3727 0127 01       		.byte	0x1
 3728 0128 7801     		.2byte	0x178
 3729 012a 25000000 		.4byte	0x25
 3730 012e B7000000 		.4byte	.LLST7
 3731 0132 0D       		.uleb128 0xd
 3732 0133 786500   		.ascii	"xe\000"
 3733 0136 01       		.byte	0x1
 3734 0137 7801     		.2byte	0x178
 3735 0139 25000000 		.4byte	0x25
 3736 013d D5000000 		.4byte	.LLST8
 3737 0141 0D       		.uleb128 0xd
 3738 0142 796500   		.ascii	"ye\000"
 3739 0145 01       		.byte	0x1
 3740 0146 7801     		.2byte	0x178
 3741 0148 25000000 		.4byte	0x25
 3742 014c F3000000 		.4byte	.LLST9
 3743 0150 00       		.byte	0x0
 3744 0151 0A       		.uleb128 0xa
 3745 0152 01       		.byte	0x1
 3746 0153 A1000000 		.4byte	.LASF12
 3747 0157 01       		.byte	0x1
 3748 0158 9D01     		.2byte	0x19d
 3749 015a 01       		.byte	0x1
 3750 015b 88000000 		.4byte	.LFB14
 3751 015f 4C010000 		.4byte	.LFE14
 3752 0163 11010000 		.4byte	.LLST10
ARM GAS  /cygdrive/c/Users/Anders/AppData/Local/Temp/ccAtSolr.s 			page 76


 3753 0167 BA010000 		.4byte	0x1ba
 3754 016b 0B       		.uleb128 0xb
 3755 016c E7010000 		.4byte	.LASF10
 3756 0170 01       		.byte	0x1
 3757 0171 9C01     		.2byte	0x19c
 3758 0173 25000000 		.4byte	0x25
 3759 0177 30010000 		.4byte	.LLST11
 3760 017b 0E       		.uleb128 0xe
 3761 017c 9A000000 		.4byte	.LBB2
 3762 0180 22010000 		.4byte	.LBE2
 3763 0184 0F       		.uleb128 0xf
 3764 0185 6B010000 		.4byte	.LASF13
 3765 0189 01       		.byte	0x1
 3766 018a A301     		.2byte	0x1a3
 3767 018c 3E000000 		.4byte	0x3e
 3768 0190 10       		.uleb128 0x10
 3769 0191 6900     		.ascii	"i\000"
 3770 0193 01       		.byte	0x1
 3771 0194 A401     		.2byte	0x1a4
 3772 0196 25000000 		.4byte	0x25
 3773 019a 11       		.uleb128 0x11
 3774 019b 6A00     		.ascii	"j\000"
 3775 019d 01       		.byte	0x1
 3776 019e A401     		.2byte	0x1a4
 3777 01a0 25000000 		.4byte	0x25
 3778 01a4 59010000 		.4byte	.LLST12
 3779 01a8 12       		.uleb128 0x12
 3780 01a9 20000000 		.4byte	.LASF14
 3781 01ad 01       		.byte	0x1
 3782 01ae A401     		.2byte	0x1a4
 3783 01b0 25000000 		.4byte	0x25
 3784 01b4 6C010000 		.4byte	.LLST13
 3785 01b8 00       		.byte	0x0
 3786 01b9 00       		.byte	0x0
 3787 01ba 13       		.uleb128 0x13
 3788 01bb 22020000 		.4byte	.LASF46
 3789 01bf 01       		.byte	0x1
 3790 01c0 8C01     		.2byte	0x18c
 3791 01c2 01       		.byte	0x1
 3792 01c3 01       		.byte	0x1
 3793 01c4 0A       		.uleb128 0xa
 3794 01c5 01       		.byte	0x1
 3795 01c6 A9000000 		.4byte	.LASF15
 3796 01ca 01       		.byte	0x1
 3797 01cb CF01     		.2byte	0x1cf
 3798 01cd 01       		.byte	0x1
 3799 01ce 4C010000 		.4byte	.LFB15
 3800 01d2 B0010000 		.4byte	.LFE15
 3801 01d6 7F010000 		.4byte	.LLST14
 3802 01da FF010000 		.4byte	0x1ff
 3803 01de 0B       		.uleb128 0xb
 3804 01df E7010000 		.4byte	.LASF10
 3805 01e3 01       		.byte	0x1
 3806 01e4 CE01     		.2byte	0x1ce
 3807 01e6 25000000 		.4byte	0x25
 3808 01ea 9E010000 		.4byte	.LLST15
 3809 01ee 14       		.uleb128 0x14
ARM GAS  /cygdrive/c/Users/Anders/AppData/Local/Temp/ccAtSolr.s 			page 77


 3810 01ef BA010000 		.4byte	0x1ba
 3811 01f3 56010000 		.4byte	.LBB5
 3812 01f7 70010000 		.4byte	.LBE5
 3813 01fb 01       		.byte	0x1
 3814 01fc D101     		.2byte	0x1d1
 3815 01fe 00       		.byte	0x0
 3816 01ff 0A       		.uleb128 0xa
 3817 0200 01       		.byte	0x1
 3818 0201 A6010000 		.4byte	.LASF16
 3819 0205 01       		.byte	0x1
 3820 0206 EA01     		.2byte	0x1ea
 3821 0208 01       		.byte	0x1
 3822 0209 B0010000 		.4byte	.LFB16
 3823 020d C8010000 		.4byte	.LFE16
 3824 0211 C7010000 		.4byte	.LLST16
 3825 0215 28020000 		.4byte	0x228
 3826 0219 0D       		.uleb128 0xd
 3827 021a 7300     		.ascii	"s\000"
 3828 021c 01       		.byte	0x1
 3829 021d E901     		.2byte	0x1e9
 3830 021f 28020000 		.4byte	0x228
 3831 0223 E6010000 		.4byte	.LLST17
 3832 0227 00       		.byte	0x0
 3833 0228 15       		.uleb128 0x15
 3834 0229 04       		.byte	0x4
 3835 022a 2E020000 		.4byte	0x22e
 3836 022e 03       		.uleb128 0x3
 3837 022f 01       		.byte	0x1
 3838 0230 08       		.byte	0x8
 3839 0231 DC010000 		.4byte	.LASF17
 3840 0235 0A       		.uleb128 0xa
 3841 0236 01       		.byte	0x1
 3842 0237 08000000 		.4byte	.LASF18
 3843 023b 01       		.byte	0x1
 3844 023c 6401     		.2byte	0x164
 3845 023e 01       		.byte	0x1
 3846 023f C8010000 		.4byte	.LFB11
 3847 0243 F8010000 		.4byte	.LFE11
 3848 0247 04020000 		.4byte	.LLST18
 3849 024b 8C020000 		.4byte	0x28c
 3850 024f 0D       		.uleb128 0xd
 3851 0250 787000   		.ascii	"xp\000"
 3852 0253 01       		.byte	0x1
 3853 0254 6301     		.2byte	0x163
 3854 0256 25000000 		.4byte	0x25
 3855 025a 23020000 		.4byte	.LLST19
 3856 025e 0D       		.uleb128 0xd
 3857 025f 797000   		.ascii	"yp\000"
 3858 0262 01       		.byte	0x1
 3859 0263 6301     		.2byte	0x163
 3860 0265 25000000 		.4byte	0x25
 3861 0269 41020000 		.4byte	.LLST20
 3862 026d 0D       		.uleb128 0xd
 3863 026e 786500   		.ascii	"xe\000"
 3864 0271 01       		.byte	0x1
 3865 0272 6301     		.2byte	0x163
 3866 0274 25000000 		.4byte	0x25
ARM GAS  /cygdrive/c/Users/Anders/AppData/Local/Temp/ccAtSolr.s 			page 78


 3867 0278 5F020000 		.4byte	.LLST21
 3868 027c 0D       		.uleb128 0xd
 3869 027d 796500   		.ascii	"ye\000"
 3870 0280 01       		.byte	0x1
 3871 0281 6301     		.2byte	0x163
 3872 0283 25000000 		.4byte	0x25
 3873 0287 7D020000 		.4byte	.LLST22
 3874 028b 00       		.byte	0x0
 3875 028c 0A       		.uleb128 0xa
 3876 028d 01       		.byte	0x1
 3877 028e 7A010000 		.4byte	.LASF19
 3878 0292 01       		.byte	0x1
 3879 0293 5301     		.2byte	0x153
 3880 0295 01       		.byte	0x1
 3881 0296 F8010000 		.4byte	.LFB10
 3882 029a 20020000 		.4byte	.LFE10
 3883 029e 9B020000 		.4byte	.LLST23
 3884 02a2 C3020000 		.4byte	0x2c3
 3885 02a6 0D       		.uleb128 0xd
 3886 02a7 7800     		.ascii	"x\000"
 3887 02a9 01       		.byte	0x1
 3888 02aa 5201     		.2byte	0x152
 3889 02ac 25000000 		.4byte	0x25
 3890 02b0 BA020000 		.4byte	.LLST24
 3891 02b4 0D       		.uleb128 0xd
 3892 02b5 7900     		.ascii	"y\000"
 3893 02b7 01       		.byte	0x1
 3894 02b8 5201     		.2byte	0x152
 3895 02ba 25000000 		.4byte	0x25
 3896 02be D8020000 		.4byte	.LLST25
 3897 02c2 00       		.byte	0x0
 3898 02c3 0A       		.uleb128 0xa
 3899 02c4 01       		.byte	0x1
 3900 02c5 00000000 		.4byte	.LASF20
 3901 02c9 01       		.byte	0x1
 3902 02ca 2201     		.2byte	0x122
 3903 02cc 01       		.byte	0x1
 3904 02cd 20020000 		.4byte	.LFB9
 3905 02d1 D2020000 		.4byte	.LFE9
 3906 02d5 F6020000 		.4byte	.LLST26
 3907 02d9 75030000 		.4byte	0x375
 3908 02dd 0D       		.uleb128 0xd
 3909 02de 7800     		.ascii	"x\000"
 3910 02e0 01       		.byte	0x1
 3911 02e1 2101     		.2byte	0x121
 3912 02e3 25000000 		.4byte	0x25
 3913 02e7 21030000 		.4byte	.LLST27
 3914 02eb 0D       		.uleb128 0xd
 3915 02ec 7900     		.ascii	"y\000"
 3916 02ee 01       		.byte	0x1
 3917 02ef 2101     		.2byte	0x121
 3918 02f1 25000000 		.4byte	0x25
 3919 02f5 55030000 		.4byte	.LLST28
 3920 02f9 0B       		.uleb128 0xb
 3921 02fa 01020000 		.4byte	.LASF21
 3922 02fe 01       		.byte	0x1
 3923 02ff 2101     		.2byte	0x121
ARM GAS  /cygdrive/c/Users/Anders/AppData/Local/Temp/ccAtSolr.s 			page 79


 3924 0301 25000000 		.4byte	0x25
 3925 0305 7E030000 		.4byte	.LLST29
 3926 0309 0B       		.uleb128 0xb
 3927 030a 0F020000 		.4byte	.LASF22
 3928 030e 01       		.byte	0x1
 3929 030f 2101     		.2byte	0x121
 3930 0311 25000000 		.4byte	0x25
 3931 0315 9D030000 		.4byte	.LLST30
 3932 0319 0B       		.uleb128 0xb
 3933 031a BB010000 		.4byte	.LASF23
 3934 031e 01       		.byte	0x1
 3935 031f 2101     		.2byte	0x121
 3936 0321 25000000 		.4byte	0x25
 3937 0325 D1030000 		.4byte	.LLST31
 3938 0329 0B       		.uleb128 0xb
 3939 032a 60010000 		.4byte	.LASF24
 3940 032e 01       		.byte	0x1
 3941 032f 2101     		.2byte	0x121
 3942 0331 25000000 		.4byte	0x25
 3943 0335 F1030000 		.4byte	.LLST32
 3944 0339 0B       		.uleb128 0xb
 3945 033a 2C000000 		.4byte	.LASF25
 3946 033e 01       		.byte	0x1
 3947 033f 2101     		.2byte	0x121
 3948 0341 75030000 		.4byte	0x375
 3949 0345 11040000 		.4byte	.LLST33
 3950 0349 11       		.uleb128 0x11
 3951 034a 6900     		.ascii	"i\000"
 3952 034c 01       		.byte	0x1
 3953 034d 2301     		.2byte	0x123
 3954 034f 3E000000 		.4byte	0x3e
 3955 0353 5E040000 		.4byte	.LLST34
 3956 0357 16       		.uleb128 0x16
 3957 0358 6A00     		.ascii	"j\000"
 3958 035a 01       		.byte	0x1
 3959 035b 2301     		.2byte	0x123
 3960 035d 3E000000 		.4byte	0x3e
 3961 0361 02       		.byte	0x2
 3962 0362 91       		.byte	0x91
 3963 0363 7C       		.sleb128 -4
 3964 0364 11       		.uleb128 0x11
 3965 0365 6C656E00 		.ascii	"len\000"
 3966 0369 01       		.byte	0x1
 3967 036a 2401     		.2byte	0x124
 3968 036c 5E000000 		.4byte	0x5e
 3969 0370 71040000 		.4byte	.LLST35
 3970 0374 00       		.byte	0x0
 3971 0375 15       		.uleb128 0x15
 3972 0376 04       		.byte	0x4
 3973 0377 7B030000 		.4byte	0x37b
 3974 037b 17       		.uleb128 0x17
 3975 037c 25000000 		.4byte	0x25
 3976 0380 18       		.uleb128 0x18
 3977 0381 01       		.byte	0x1
 3978 0382 B4000000 		.4byte	.LASF26
 3979 0386 01       		.byte	0x1
 3980 0387 F7       		.byte	0xf7
ARM GAS  /cygdrive/c/Users/Anders/AppData/Local/Temp/ccAtSolr.s 			page 80


 3981 0388 01       		.byte	0x1
 3982 0389 D4020000 		.4byte	.LFB8
 3983 038d 86030000 		.4byte	.LFE8
 3984 0391 84040000 		.4byte	.LLST36
 3985 0395 19040000 		.4byte	0x419
 3986 0399 19       		.uleb128 0x19
 3987 039a 7800     		.ascii	"x\000"
 3988 039c 01       		.byte	0x1
 3989 039d F6       		.byte	0xf6
 3990 039e 25000000 		.4byte	0x25
 3991 03a2 AF040000 		.4byte	.LLST37
 3992 03a6 19       		.uleb128 0x19
 3993 03a7 7900     		.ascii	"y\000"
 3994 03a9 01       		.byte	0x1
 3995 03aa F6       		.byte	0xf6
 3996 03ab 25000000 		.4byte	0x25
 3997 03af E3040000 		.4byte	.LLST38
 3998 03b3 1A       		.uleb128 0x1a
 3999 03b4 01020000 		.4byte	.LASF21
 4000 03b8 01       		.byte	0x1
 4001 03b9 F6       		.byte	0xf6
 4002 03ba 25000000 		.4byte	0x25
 4003 03be 0C050000 		.4byte	.LLST39
 4004 03c2 1A       		.uleb128 0x1a
 4005 03c3 0F020000 		.4byte	.LASF22
 4006 03c7 01       		.byte	0x1
 4007 03c8 F6       		.byte	0xf6
 4008 03c9 25000000 		.4byte	0x25
 4009 03cd 2A050000 		.4byte	.LLST40
 4010 03d1 1A       		.uleb128 0x1a
 4011 03d2 EC010000 		.4byte	.LASF27
 4012 03d6 01       		.byte	0x1
 4013 03d7 F6       		.byte	0xf6
 4014 03d8 25000000 		.4byte	0x25
 4015 03dc 49050000 		.4byte	.LLST41
 4016 03e0 1A       		.uleb128 0x1a
 4017 03e1 F3010000 		.4byte	.LASF28
 4018 03e5 01       		.byte	0x1
 4019 03e6 F6       		.byte	0xf6
 4020 03e7 25000000 		.4byte	0x25
 4021 03eb 69050000 		.4byte	.LLST42
 4022 03ef 1A       		.uleb128 0x1a
 4023 03f0 FA010000 		.4byte	.LASF29
 4024 03f4 01       		.byte	0x1
 4025 03f5 F6       		.byte	0xf6
 4026 03f6 25000000 		.4byte	0x25
 4027 03fa 89050000 		.4byte	.LLST43
 4028 03fe 1B       		.uleb128 0x1b
 4029 03ff 6900     		.ascii	"i\000"
 4030 0401 01       		.byte	0x1
 4031 0402 F8       		.byte	0xf8
 4032 0403 3E000000 		.4byte	0x3e
 4033 0407 A9050000 		.4byte	.LLST44
 4034 040b 1B       		.uleb128 0x1b
 4035 040c 6A00     		.ascii	"j\000"
 4036 040e 01       		.byte	0x1
 4037 040f F8       		.byte	0xf8
ARM GAS  /cygdrive/c/Users/Anders/AppData/Local/Temp/ccAtSolr.s 			page 81


 4038 0410 3E000000 		.4byte	0x3e
 4039 0414 DD050000 		.4byte	.LLST45
 4040 0418 00       		.byte	0x0
 4041 0419 18       		.uleb128 0x18
 4042 041a 01       		.byte	0x1
 4043 041b 1A020000 		.4byte	.LASF30
 4044 041f 01       		.byte	0x1
 4045 0420 DA       		.byte	0xda
 4046 0421 01       		.byte	0x1
 4047 0422 88030000 		.4byte	.LFB7
 4048 0426 EC030000 		.4byte	.LFE7
 4049 042a F0050000 		.4byte	.LLST46
 4050 042e 96040000 		.4byte	0x496
 4051 0432 19       		.uleb128 0x19
 4052 0433 7800     		.ascii	"x\000"
 4053 0435 01       		.byte	0x1
 4054 0436 D9       		.byte	0xd9
 4055 0437 25000000 		.4byte	0x25
 4056 043b 1B060000 		.4byte	.LLST47
 4057 043f 19       		.uleb128 0x19
 4058 0440 7900     		.ascii	"y\000"
 4059 0442 01       		.byte	0x1
 4060 0443 D9       		.byte	0xd9
 4061 0444 25000000 		.4byte	0x25
 4062 0448 39060000 		.4byte	.LLST48
 4063 044c 1A       		.uleb128 0x1a
 4064 044d 01020000 		.4byte	.LASF21
 4065 0451 01       		.byte	0x1
 4066 0452 D9       		.byte	0xd9
 4067 0453 25000000 		.4byte	0x25
 4068 0457 57060000 		.4byte	.LLST49
 4069 045b 1A       		.uleb128 0x1a
 4070 045c 0F020000 		.4byte	.LASF22
 4071 0460 01       		.byte	0x1
 4072 0461 D9       		.byte	0xd9
 4073 0462 25000000 		.4byte	0x25
 4074 0466 75060000 		.4byte	.LLST50
 4075 046a 1A       		.uleb128 0x1a
 4076 046b 3C000000 		.4byte	.LASF31
 4077 046f 01       		.byte	0x1
 4078 0470 D9       		.byte	0xd9
 4079 0471 25000000 		.4byte	0x25
 4080 0475 9E060000 		.4byte	.LLST51
 4081 0479 1B       		.uleb128 0x1b
 4082 047a 6900     		.ascii	"i\000"
 4083 047c 01       		.byte	0x1
 4084 047d DB       		.byte	0xdb
 4085 047e 3E000000 		.4byte	0x3e
 4086 0482 BE060000 		.4byte	.LLST52
 4087 0486 1B       		.uleb128 0x1b
 4088 0487 6C656E00 		.ascii	"len\000"
 4089 048b 01       		.byte	0x1
 4090 048c DC       		.byte	0xdc
 4091 048d 3E000000 		.4byte	0x3e
 4092 0491 D1060000 		.4byte	.LLST53
 4093 0495 00       		.byte	0x0
 4094 0496 18       		.uleb128 0x18
ARM GAS  /cygdrive/c/Users/Anders/AppData/Local/Temp/ccAtSolr.s 			page 82


 4095 0497 01       		.byte	0x1
 4096 0498 95000000 		.4byte	.LASF32
 4097 049c 01       		.byte	0x1
 4098 049d C5       		.byte	0xc5
 4099 049e 01       		.byte	0x1
 4100 049f EC030000 		.4byte	.LFB6
 4101 04a3 10040000 		.4byte	.LFE6
 4102 04a7 E4060000 		.4byte	.LLST54
 4103 04ab BF040000 		.4byte	0x4bf
 4104 04af 1A       		.uleb128 0x1a
 4105 04b0 C5000000 		.4byte	.LASF33
 4106 04b4 01       		.byte	0x1
 4107 04b5 C4       		.byte	0xc4
 4108 04b6 25000000 		.4byte	0x25
 4109 04ba 03070000 		.4byte	.LLST55
 4110 04be 00       		.byte	0x0
 4111 04bf 18       		.uleb128 0x18
 4112 04c0 01       		.byte	0x1
 4113 04c1 CA000000 		.4byte	.LASF34
 4114 04c5 01       		.byte	0x1
 4115 04c6 85       		.byte	0x85
 4116 04c7 01       		.byte	0x1
 4117 04c8 10040000 		.4byte	.LFB3
 4118 04cc 64040000 		.4byte	.LFE3
 4119 04d0 21070000 		.4byte	.LLST56
 4120 04d4 E6040000 		.4byte	0x4e6
 4121 04d8 1B       		.uleb128 0x1b
 4122 04d9 6900     		.ascii	"i\000"
 4123 04db 01       		.byte	0x1
 4124 04dc 86       		.byte	0x86
 4125 04dd 3E000000 		.4byte	0x3e
 4126 04e1 40070000 		.4byte	.LLST57
 4127 04e5 00       		.byte	0x0
 4128 04e6 1C       		.uleb128 0x1c
 4129 04e7 01       		.byte	0x1
 4130 04e8 89000000 		.4byte	.LASF35
 4131 04ec 01       		.byte	0x1
 4132 04ed A2       		.byte	0xa2
 4133 04ee 01       		.byte	0x1
 4134 04ef 64040000 		.4byte	.LFB4
 4135 04f3 80040000 		.4byte	.LFE4
 4136 04f7 53070000 		.4byte	.LLST58
 4137 04fb 1C       		.uleb128 0x1c
 4138 04fc 01       		.byte	0x1
 4139 04fd 77000000 		.4byte	.LASF36
 4140 0501 01       		.byte	0x1
 4141 0502 46       		.byte	0x46
 4142 0503 01       		.byte	0x1
 4143 0504 80040000 		.4byte	.LFB2
 4144 0508 74050000 		.4byte	.LFE2
 4145 050c 72070000 		.4byte	.LLST59
 4146 0510 1D       		.uleb128 0x1d
 4147 0511 14020000 		.4byte	.LASF37
 4148 0515 01       		.byte	0x1
 4149 0516 30       		.byte	0x30
 4150 0517 25000000 		.4byte	0x25
 4151 051b 05       		.byte	0x5
ARM GAS  /cygdrive/c/Users/Anders/AppData/Local/Temp/ccAtSolr.s 			page 83


 4152 051c 03       		.byte	0x3
 4153 051d 00000000 		.4byte	lcd_x
 4154 0521 1D       		.uleb128 0x1d
 4155 0522 BF000000 		.4byte	.LASF38
 4156 0526 01       		.byte	0x1
 4157 0527 31       		.byte	0x31
 4158 0528 25000000 		.4byte	0x25
 4159 052c 05       		.byte	0x5
 4160 052d 03       		.byte	0x3
 4161 052e 01000000 		.4byte	lcd_y
 4162 0532 1D       		.uleb128 0x1d
 4163 0533 17000000 		.4byte	.LASF39
 4164 0537 01       		.byte	0x1
 4165 0538 32       		.byte	0x32
 4166 0539 25000000 		.4byte	0x25
 4167 053d 05       		.byte	0x5
 4168 053e 03       		.byte	0x3
 4169 053f 02000000 		.4byte	bkgColor
 4170 0543 1D       		.uleb128 0x1d
 4171 0544 6D000000 		.4byte	.LASF40
 4172 0548 01       		.byte	0x1
 4173 0549 33       		.byte	0x33
 4174 054a 25000000 		.4byte	0x25
 4175 054e 05       		.byte	0x5
 4176 054f 03       		.byte	0x3
 4177 0550 03000000 		.4byte	textColor
 4178 0554 1D       		.uleb128 0x1d
 4179 0555 42000000 		.4byte	.LASF41
 4180 0559 01       		.byte	0x1
 4181 055a 34       		.byte	0x34
 4182 055b 25000000 		.4byte	0x25
 4183 055f 05       		.byte	0x5
 4184 0560 03       		.byte	0x3
 4185 0561 04000000 		.4byte	setcolmark
 4186 0565 1E       		.uleb128 0x1e
 4187 0566 25000000 		.4byte	0x25
 4188 056a 76050000 		.4byte	0x576
 4189 056e 1F       		.uleb128 0x1f
 4190 056f 70000000 		.4byte	0x70
 4191 0573 5B05     		.2byte	0x55b
 4192 0575 00       		.byte	0x0
 4193 0576 20       		.uleb128 0x20
 4194 0577 92010000 		.4byte	.LASF47
 4195 057b 03       		.byte	0x3
 4196 057c 01       		.byte	0x1
 4197 057d 88050000 		.4byte	0x588
 4198 0581 01       		.byte	0x1
 4199 0582 05       		.byte	0x5
 4200 0583 03       		.byte	0x3
 4201 0584 00000000 		.4byte	charMap
 4202 0588 17       		.uleb128 0x17
 4203 0589 65050000 		.4byte	0x565
 4204 058d 00       		.byte	0x0
 4205              		.section	.debug_abbrev
 4206 0000 01       		.uleb128 0x1
 4207 0001 11       		.uleb128 0x11
 4208 0002 01       		.byte	0x1
ARM GAS  /cygdrive/c/Users/Anders/AppData/Local/Temp/ccAtSolr.s 			page 84


 4209 0003 25       		.uleb128 0x25
 4210 0004 0E       		.uleb128 0xe
 4211 0005 13       		.uleb128 0x13
 4212 0006 0B       		.uleb128 0xb
 4213 0007 03       		.uleb128 0x3
 4214 0008 0E       		.uleb128 0xe
 4215 0009 1B       		.uleb128 0x1b
 4216 000a 0E       		.uleb128 0xe
 4217 000b 11       		.uleb128 0x11
 4218 000c 01       		.uleb128 0x1
 4219 000d 12       		.uleb128 0x12
 4220 000e 01       		.uleb128 0x1
 4221 000f 10       		.uleb128 0x10
 4222 0010 06       		.uleb128 0x6
 4223 0011 00       		.byte	0x0
 4224 0012 00       		.byte	0x0
 4225 0013 02       		.uleb128 0x2
 4226 0014 16       		.uleb128 0x16
 4227 0015 00       		.byte	0x0
 4228 0016 03       		.uleb128 0x3
 4229 0017 08       		.uleb128 0x8
 4230 0018 3A       		.uleb128 0x3a
 4231 0019 0B       		.uleb128 0xb
 4232 001a 3B       		.uleb128 0x3b
 4233 001b 0B       		.uleb128 0xb
 4234 001c 49       		.uleb128 0x49
 4235 001d 13       		.uleb128 0x13
 4236 001e 00       		.byte	0x0
 4237 001f 00       		.byte	0x0
 4238 0020 03       		.uleb128 0x3
 4239 0021 24       		.uleb128 0x24
 4240 0022 00       		.byte	0x0
 4241 0023 0B       		.uleb128 0xb
 4242 0024 0B       		.uleb128 0xb
 4243 0025 3E       		.uleb128 0x3e
 4244 0026 0B       		.uleb128 0xb
 4245 0027 03       		.uleb128 0x3
 4246 0028 0E       		.uleb128 0xe
 4247 0029 00       		.byte	0x0
 4248 002a 00       		.byte	0x0
 4249 002b 04       		.uleb128 0x4
 4250 002c 16       		.uleb128 0x16
 4251 002d 00       		.byte	0x0
 4252 002e 03       		.uleb128 0x3
 4253 002f 0E       		.uleb128 0xe
 4254 0030 3A       		.uleb128 0x3a
 4255 0031 0B       		.uleb128 0xb
 4256 0032 3B       		.uleb128 0x3b
 4257 0033 0B       		.uleb128 0xb
 4258 0034 49       		.uleb128 0x49
 4259 0035 13       		.uleb128 0x13
 4260 0036 00       		.byte	0x0
 4261 0037 00       		.byte	0x0
 4262 0038 05       		.uleb128 0x5
 4263 0039 24       		.uleb128 0x24
 4264 003a 00       		.byte	0x0
 4265 003b 0B       		.uleb128 0xb
ARM GAS  /cygdrive/c/Users/Anders/AppData/Local/Temp/ccAtSolr.s 			page 85


 4266 003c 0B       		.uleb128 0xb
 4267 003d 3E       		.uleb128 0x3e
 4268 003e 0B       		.uleb128 0xb
 4269 003f 03       		.uleb128 0x3
 4270 0040 08       		.uleb128 0x8
 4271 0041 00       		.byte	0x0
 4272 0042 00       		.byte	0x0
 4273 0043 06       		.uleb128 0x6
 4274 0044 24       		.uleb128 0x24
 4275 0045 00       		.byte	0x0
 4276 0046 0B       		.uleb128 0xb
 4277 0047 0B       		.uleb128 0xb
 4278 0048 3E       		.uleb128 0x3e
 4279 0049 0B       		.uleb128 0xb
 4280 004a 00       		.byte	0x0
 4281 004b 00       		.byte	0x0
 4282 004c 07       		.uleb128 0x7
 4283 004d 2E       		.uleb128 0x2e
 4284 004e 01       		.byte	0x1
 4285 004f 3F       		.uleb128 0x3f
 4286 0050 0C       		.uleb128 0xc
 4287 0051 03       		.uleb128 0x3
 4288 0052 0E       		.uleb128 0xe
 4289 0053 3A       		.uleb128 0x3a
 4290 0054 0B       		.uleb128 0xb
 4291 0055 3B       		.uleb128 0x3b
 4292 0056 0B       		.uleb128 0xb
 4293 0057 27       		.uleb128 0x27
 4294 0058 0C       		.uleb128 0xc
 4295 0059 11       		.uleb128 0x11
 4296 005a 01       		.uleb128 0x1
 4297 005b 12       		.uleb128 0x12
 4298 005c 01       		.uleb128 0x1
 4299 005d 40       		.uleb128 0x40
 4300 005e 0A       		.uleb128 0xa
 4301 005f 01       		.uleb128 0x1
 4302 0060 13       		.uleb128 0x13
 4303 0061 00       		.byte	0x0
 4304 0062 00       		.byte	0x0
 4305 0063 08       		.uleb128 0x8
 4306 0064 05       		.uleb128 0x5
 4307 0065 00       		.byte	0x0
 4308 0066 03       		.uleb128 0x3
 4309 0067 08       		.uleb128 0x8
 4310 0068 3A       		.uleb128 0x3a
 4311 0069 0B       		.uleb128 0xb
 4312 006a 3B       		.uleb128 0x3b
 4313 006b 0B       		.uleb128 0xb
 4314 006c 49       		.uleb128 0x49
 4315 006d 13       		.uleb128 0x13
 4316 006e 02       		.uleb128 0x2
 4317 006f 0A       		.uleb128 0xa
 4318 0070 00       		.byte	0x0
 4319 0071 00       		.byte	0x0
 4320 0072 09       		.uleb128 0x9
 4321 0073 05       		.uleb128 0x5
 4322 0074 00       		.byte	0x0
ARM GAS  /cygdrive/c/Users/Anders/AppData/Local/Temp/ccAtSolr.s 			page 86


 4323 0075 03       		.uleb128 0x3
 4324 0076 0E       		.uleb128 0xe
 4325 0077 3A       		.uleb128 0x3a
 4326 0078 0B       		.uleb128 0xb
 4327 0079 3B       		.uleb128 0x3b
 4328 007a 0B       		.uleb128 0xb
 4329 007b 49       		.uleb128 0x49
 4330 007c 13       		.uleb128 0x13
 4331 007d 02       		.uleb128 0x2
 4332 007e 0A       		.uleb128 0xa
 4333 007f 00       		.byte	0x0
 4334 0080 00       		.byte	0x0
 4335 0081 0A       		.uleb128 0xa
 4336 0082 2E       		.uleb128 0x2e
 4337 0083 01       		.byte	0x1
 4338 0084 3F       		.uleb128 0x3f
 4339 0085 0C       		.uleb128 0xc
 4340 0086 03       		.uleb128 0x3
 4341 0087 0E       		.uleb128 0xe
 4342 0088 3A       		.uleb128 0x3a
 4343 0089 0B       		.uleb128 0xb
 4344 008a 3B       		.uleb128 0x3b
 4345 008b 05       		.uleb128 0x5
 4346 008c 27       		.uleb128 0x27
 4347 008d 0C       		.uleb128 0xc
 4348 008e 11       		.uleb128 0x11
 4349 008f 01       		.uleb128 0x1
 4350 0090 12       		.uleb128 0x12
 4351 0091 01       		.uleb128 0x1
 4352 0092 40       		.uleb128 0x40
 4353 0093 06       		.uleb128 0x6
 4354 0094 01       		.uleb128 0x1
 4355 0095 13       		.uleb128 0x13
 4356 0096 00       		.byte	0x0
 4357 0097 00       		.byte	0x0
 4358 0098 0B       		.uleb128 0xb
 4359 0099 05       		.uleb128 0x5
 4360 009a 00       		.byte	0x0
 4361 009b 03       		.uleb128 0x3
 4362 009c 0E       		.uleb128 0xe
 4363 009d 3A       		.uleb128 0x3a
 4364 009e 0B       		.uleb128 0xb
 4365 009f 3B       		.uleb128 0x3b
 4366 00a0 05       		.uleb128 0x5
 4367 00a1 49       		.uleb128 0x49
 4368 00a2 13       		.uleb128 0x13
 4369 00a3 02       		.uleb128 0x2
 4370 00a4 06       		.uleb128 0x6
 4371 00a5 00       		.byte	0x0
 4372 00a6 00       		.byte	0x0
 4373 00a7 0C       		.uleb128 0xc
 4374 00a8 2E       		.uleb128 0x2e
 4375 00a9 01       		.byte	0x1
 4376 00aa 03       		.uleb128 0x3
 4377 00ab 0E       		.uleb128 0xe
 4378 00ac 3A       		.uleb128 0x3a
 4379 00ad 0B       		.uleb128 0xb
ARM GAS  /cygdrive/c/Users/Anders/AppData/Local/Temp/ccAtSolr.s 			page 87


 4380 00ae 3B       		.uleb128 0x3b
 4381 00af 05       		.uleb128 0x5
 4382 00b0 27       		.uleb128 0x27
 4383 00b1 0C       		.uleb128 0xc
 4384 00b2 11       		.uleb128 0x11
 4385 00b3 01       		.uleb128 0x1
 4386 00b4 12       		.uleb128 0x12
 4387 00b5 01       		.uleb128 0x1
 4388 00b6 40       		.uleb128 0x40
 4389 00b7 06       		.uleb128 0x6
 4390 00b8 01       		.uleb128 0x1
 4391 00b9 13       		.uleb128 0x13
 4392 00ba 00       		.byte	0x0
 4393 00bb 00       		.byte	0x0
 4394 00bc 0D       		.uleb128 0xd
 4395 00bd 05       		.uleb128 0x5
 4396 00be 00       		.byte	0x0
 4397 00bf 03       		.uleb128 0x3
 4398 00c0 08       		.uleb128 0x8
 4399 00c1 3A       		.uleb128 0x3a
 4400 00c2 0B       		.uleb128 0xb
 4401 00c3 3B       		.uleb128 0x3b
 4402 00c4 05       		.uleb128 0x5
 4403 00c5 49       		.uleb128 0x49
 4404 00c6 13       		.uleb128 0x13
 4405 00c7 02       		.uleb128 0x2
 4406 00c8 06       		.uleb128 0x6
 4407 00c9 00       		.byte	0x0
 4408 00ca 00       		.byte	0x0
 4409 00cb 0E       		.uleb128 0xe
 4410 00cc 0B       		.uleb128 0xb
 4411 00cd 01       		.byte	0x1
 4412 00ce 11       		.uleb128 0x11
 4413 00cf 01       		.uleb128 0x1
 4414 00d0 12       		.uleb128 0x12
 4415 00d1 01       		.uleb128 0x1
 4416 00d2 00       		.byte	0x0
 4417 00d3 00       		.byte	0x0
 4418 00d4 0F       		.uleb128 0xf
 4419 00d5 34       		.uleb128 0x34
 4420 00d6 00       		.byte	0x0
 4421 00d7 03       		.uleb128 0x3
 4422 00d8 0E       		.uleb128 0xe
 4423 00d9 3A       		.uleb128 0x3a
 4424 00da 0B       		.uleb128 0xb
 4425 00db 3B       		.uleb128 0x3b
 4426 00dc 05       		.uleb128 0x5
 4427 00dd 49       		.uleb128 0x49
 4428 00de 13       		.uleb128 0x13
 4429 00df 00       		.byte	0x0
 4430 00e0 00       		.byte	0x0
 4431 00e1 10       		.uleb128 0x10
 4432 00e2 34       		.uleb128 0x34
 4433 00e3 00       		.byte	0x0
 4434 00e4 03       		.uleb128 0x3
 4435 00e5 08       		.uleb128 0x8
 4436 00e6 3A       		.uleb128 0x3a
ARM GAS  /cygdrive/c/Users/Anders/AppData/Local/Temp/ccAtSolr.s 			page 88


 4437 00e7 0B       		.uleb128 0xb
 4438 00e8 3B       		.uleb128 0x3b
 4439 00e9 05       		.uleb128 0x5
 4440 00ea 49       		.uleb128 0x49
 4441 00eb 13       		.uleb128 0x13
 4442 00ec 00       		.byte	0x0
 4443 00ed 00       		.byte	0x0
 4444 00ee 11       		.uleb128 0x11
 4445 00ef 34       		.uleb128 0x34
 4446 00f0 00       		.byte	0x0
 4447 00f1 03       		.uleb128 0x3
 4448 00f2 08       		.uleb128 0x8
 4449 00f3 3A       		.uleb128 0x3a
 4450 00f4 0B       		.uleb128 0xb
 4451 00f5 3B       		.uleb128 0x3b
 4452 00f6 05       		.uleb128 0x5
 4453 00f7 49       		.uleb128 0x49
 4454 00f8 13       		.uleb128 0x13
 4455 00f9 02       		.uleb128 0x2
 4456 00fa 06       		.uleb128 0x6
 4457 00fb 00       		.byte	0x0
 4458 00fc 00       		.byte	0x0
 4459 00fd 12       		.uleb128 0x12
 4460 00fe 34       		.uleb128 0x34
 4461 00ff 00       		.byte	0x0
 4462 0100 03       		.uleb128 0x3
 4463 0101 0E       		.uleb128 0xe
 4464 0102 3A       		.uleb128 0x3a
 4465 0103 0B       		.uleb128 0xb
 4466 0104 3B       		.uleb128 0x3b
 4467 0105 05       		.uleb128 0x5
 4468 0106 49       		.uleb128 0x49
 4469 0107 13       		.uleb128 0x13
 4470 0108 02       		.uleb128 0x2
 4471 0109 06       		.uleb128 0x6
 4472 010a 00       		.byte	0x0
 4473 010b 00       		.byte	0x0
 4474 010c 13       		.uleb128 0x13
 4475 010d 2E       		.uleb128 0x2e
 4476 010e 00       		.byte	0x0
 4477 010f 03       		.uleb128 0x3
 4478 0110 0E       		.uleb128 0xe
 4479 0111 3A       		.uleb128 0x3a
 4480 0112 0B       		.uleb128 0xb
 4481 0113 3B       		.uleb128 0x3b
 4482 0114 05       		.uleb128 0x5
 4483 0115 27       		.uleb128 0x27
 4484 0116 0C       		.uleb128 0xc
 4485 0117 20       		.uleb128 0x20
 4486 0118 0B       		.uleb128 0xb
 4487 0119 00       		.byte	0x0
 4488 011a 00       		.byte	0x0
 4489 011b 14       		.uleb128 0x14
 4490 011c 1D       		.uleb128 0x1d
 4491 011d 00       		.byte	0x0
 4492 011e 31       		.uleb128 0x31
 4493 011f 13       		.uleb128 0x13
ARM GAS  /cygdrive/c/Users/Anders/AppData/Local/Temp/ccAtSolr.s 			page 89


 4494 0120 11       		.uleb128 0x11
 4495 0121 01       		.uleb128 0x1
 4496 0122 12       		.uleb128 0x12
 4497 0123 01       		.uleb128 0x1
 4498 0124 58       		.uleb128 0x58
 4499 0125 0B       		.uleb128 0xb
 4500 0126 59       		.uleb128 0x59
 4501 0127 05       		.uleb128 0x5
 4502 0128 00       		.byte	0x0
 4503 0129 00       		.byte	0x0
 4504 012a 15       		.uleb128 0x15
 4505 012b 0F       		.uleb128 0xf
 4506 012c 00       		.byte	0x0
 4507 012d 0B       		.uleb128 0xb
 4508 012e 0B       		.uleb128 0xb
 4509 012f 49       		.uleb128 0x49
 4510 0130 13       		.uleb128 0x13
 4511 0131 00       		.byte	0x0
 4512 0132 00       		.byte	0x0
 4513 0133 16       		.uleb128 0x16
 4514 0134 34       		.uleb128 0x34
 4515 0135 00       		.byte	0x0
 4516 0136 03       		.uleb128 0x3
 4517 0137 08       		.uleb128 0x8
 4518 0138 3A       		.uleb128 0x3a
 4519 0139 0B       		.uleb128 0xb
 4520 013a 3B       		.uleb128 0x3b
 4521 013b 05       		.uleb128 0x5
 4522 013c 49       		.uleb128 0x49
 4523 013d 13       		.uleb128 0x13
 4524 013e 02       		.uleb128 0x2
 4525 013f 0A       		.uleb128 0xa
 4526 0140 00       		.byte	0x0
 4527 0141 00       		.byte	0x0
 4528 0142 17       		.uleb128 0x17
 4529 0143 26       		.uleb128 0x26
 4530 0144 00       		.byte	0x0
 4531 0145 49       		.uleb128 0x49
 4532 0146 13       		.uleb128 0x13
 4533 0147 00       		.byte	0x0
 4534 0148 00       		.byte	0x0
 4535 0149 18       		.uleb128 0x18
 4536 014a 2E       		.uleb128 0x2e
 4537 014b 01       		.byte	0x1
 4538 014c 3F       		.uleb128 0x3f
 4539 014d 0C       		.uleb128 0xc
 4540 014e 03       		.uleb128 0x3
 4541 014f 0E       		.uleb128 0xe
 4542 0150 3A       		.uleb128 0x3a
 4543 0151 0B       		.uleb128 0xb
 4544 0152 3B       		.uleb128 0x3b
 4545 0153 0B       		.uleb128 0xb
 4546 0154 27       		.uleb128 0x27
 4547 0155 0C       		.uleb128 0xc
 4548 0156 11       		.uleb128 0x11
 4549 0157 01       		.uleb128 0x1
 4550 0158 12       		.uleb128 0x12
ARM GAS  /cygdrive/c/Users/Anders/AppData/Local/Temp/ccAtSolr.s 			page 90


 4551 0159 01       		.uleb128 0x1
 4552 015a 40       		.uleb128 0x40
 4553 015b 06       		.uleb128 0x6
 4554 015c 01       		.uleb128 0x1
 4555 015d 13       		.uleb128 0x13
 4556 015e 00       		.byte	0x0
 4557 015f 00       		.byte	0x0
 4558 0160 19       		.uleb128 0x19
 4559 0161 05       		.uleb128 0x5
 4560 0162 00       		.byte	0x0
 4561 0163 03       		.uleb128 0x3
 4562 0164 08       		.uleb128 0x8
 4563 0165 3A       		.uleb128 0x3a
 4564 0166 0B       		.uleb128 0xb
 4565 0167 3B       		.uleb128 0x3b
 4566 0168 0B       		.uleb128 0xb
 4567 0169 49       		.uleb128 0x49
 4568 016a 13       		.uleb128 0x13
 4569 016b 02       		.uleb128 0x2
 4570 016c 06       		.uleb128 0x6
 4571 016d 00       		.byte	0x0
 4572 016e 00       		.byte	0x0
 4573 016f 1A       		.uleb128 0x1a
 4574 0170 05       		.uleb128 0x5
 4575 0171 00       		.byte	0x0
 4576 0172 03       		.uleb128 0x3
 4577 0173 0E       		.uleb128 0xe
 4578 0174 3A       		.uleb128 0x3a
 4579 0175 0B       		.uleb128 0xb
 4580 0176 3B       		.uleb128 0x3b
 4581 0177 0B       		.uleb128 0xb
 4582 0178 49       		.uleb128 0x49
 4583 0179 13       		.uleb128 0x13
 4584 017a 02       		.uleb128 0x2
 4585 017b 06       		.uleb128 0x6
 4586 017c 00       		.byte	0x0
 4587 017d 00       		.byte	0x0
 4588 017e 1B       		.uleb128 0x1b
 4589 017f 34       		.uleb128 0x34
 4590 0180 00       		.byte	0x0
 4591 0181 03       		.uleb128 0x3
 4592 0182 08       		.uleb128 0x8
 4593 0183 3A       		.uleb128 0x3a
 4594 0184 0B       		.uleb128 0xb
 4595 0185 3B       		.uleb128 0x3b
 4596 0186 0B       		.uleb128 0xb
 4597 0187 49       		.uleb128 0x49
 4598 0188 13       		.uleb128 0x13
 4599 0189 02       		.uleb128 0x2
 4600 018a 06       		.uleb128 0x6
 4601 018b 00       		.byte	0x0
 4602 018c 00       		.byte	0x0
 4603 018d 1C       		.uleb128 0x1c
 4604 018e 2E       		.uleb128 0x2e
 4605 018f 00       		.byte	0x0
 4606 0190 3F       		.uleb128 0x3f
 4607 0191 0C       		.uleb128 0xc
ARM GAS  /cygdrive/c/Users/Anders/AppData/Local/Temp/ccAtSolr.s 			page 91


 4608 0192 03       		.uleb128 0x3
 4609 0193 0E       		.uleb128 0xe
 4610 0194 3A       		.uleb128 0x3a
 4611 0195 0B       		.uleb128 0xb
 4612 0196 3B       		.uleb128 0x3b
 4613 0197 0B       		.uleb128 0xb
 4614 0198 27       		.uleb128 0x27
 4615 0199 0C       		.uleb128 0xc
 4616 019a 11       		.uleb128 0x11
 4617 019b 01       		.uleb128 0x1
 4618 019c 12       		.uleb128 0x12
 4619 019d 01       		.uleb128 0x1
 4620 019e 40       		.uleb128 0x40
 4621 019f 06       		.uleb128 0x6
 4622 01a0 00       		.byte	0x0
 4623 01a1 00       		.byte	0x0
 4624 01a2 1D       		.uleb128 0x1d
 4625 01a3 34       		.uleb128 0x34
 4626 01a4 00       		.byte	0x0
 4627 01a5 03       		.uleb128 0x3
 4628 01a6 0E       		.uleb128 0xe
 4629 01a7 3A       		.uleb128 0x3a
 4630 01a8 0B       		.uleb128 0xb
 4631 01a9 3B       		.uleb128 0x3b
 4632 01aa 0B       		.uleb128 0xb
 4633 01ab 49       		.uleb128 0x49
 4634 01ac 13       		.uleb128 0x13
 4635 01ad 02       		.uleb128 0x2
 4636 01ae 0A       		.uleb128 0xa
 4637 01af 00       		.byte	0x0
 4638 01b0 00       		.byte	0x0
 4639 01b1 1E       		.uleb128 0x1e
 4640 01b2 01       		.uleb128 0x1
 4641 01b3 01       		.byte	0x1
 4642 01b4 49       		.uleb128 0x49
 4643 01b5 13       		.uleb128 0x13
 4644 01b6 01       		.uleb128 0x1
 4645 01b7 13       		.uleb128 0x13
 4646 01b8 00       		.byte	0x0
 4647 01b9 00       		.byte	0x0
 4648 01ba 1F       		.uleb128 0x1f
 4649 01bb 21       		.uleb128 0x21
 4650 01bc 00       		.byte	0x0
 4651 01bd 49       		.uleb128 0x49
 4652 01be 13       		.uleb128 0x13
 4653 01bf 2F       		.uleb128 0x2f
 4654 01c0 05       		.uleb128 0x5
 4655 01c1 00       		.byte	0x0
 4656 01c2 00       		.byte	0x0
 4657 01c3 20       		.uleb128 0x20
 4658 01c4 34       		.uleb128 0x34
 4659 01c5 00       		.byte	0x0
 4660 01c6 03       		.uleb128 0x3
 4661 01c7 0E       		.uleb128 0xe
 4662 01c8 3A       		.uleb128 0x3a
 4663 01c9 0B       		.uleb128 0xb
 4664 01ca 3B       		.uleb128 0x3b
ARM GAS  /cygdrive/c/Users/Anders/AppData/Local/Temp/ccAtSolr.s 			page 92


 4665 01cb 0B       		.uleb128 0xb
 4666 01cc 49       		.uleb128 0x49
 4667 01cd 13       		.uleb128 0x13
 4668 01ce 3F       		.uleb128 0x3f
 4669 01cf 0C       		.uleb128 0xc
 4670 01d0 02       		.uleb128 0x2
 4671 01d1 0A       		.uleb128 0xa
 4672 01d2 00       		.byte	0x0
 4673 01d3 00       		.byte	0x0
 4674 01d4 00       		.byte	0x0
 4675              		.section	.debug_pubnames,"",%progbits
 4676 0000 E1000000 		.4byte	0xe1
 4677 0004 0200     		.2byte	0x2
 4678 0006 00000000 		.4byte	.Ldebug_info0
 4679 000a 8E050000 		.4byte	0x58e
 4680 000e 73000000 		.4byte	0x73
 4681 0012 6C636443 		.ascii	"lcdColor\000"
 4681      6F6C6F72 
 4681      00
 4682 001b A5000000 		.4byte	0xa5
 4683 001f 6C636457 		.ascii	"lcdWrdata\000"
 4683      72646174 
 4683      6100
 4684 0029 D0000000 		.4byte	0xd0
 4685 002d 6C636457 		.ascii	"lcdWrcmd\000"
 4685      72636D64 
 4685      00
 4686 0036 51010000 		.4byte	0x151
 4687 003a 6C636444 		.ascii	"lcdData\000"
 4687      61746100 
 4688 0042 C4010000 		.4byte	0x1c4
 4689 0046 6C636450 		.ascii	"lcdPutchar\000"
 4689      75746368 
 4689      617200
 4690 0051 FF010000 		.4byte	0x1ff
 4691 0055 6C636450 		.ascii	"lcdPuts\000"
 4691      75747300 
 4692 005d 35020000 		.4byte	0x235
 4693 0061 6C636457 		.ascii	"lcdWindow\000"
 4693      696E646F 
 4693      7700
 4694 006b 8C020000 		.4byte	0x28c
 4695 006f 6C636447 		.ascii	"lcdGotoxy\000"
 4695      6F746F78 
 4695      7900
 4696 0079 C3020000 		.4byte	0x2c3
 4697 007d 6C636449 		.ascii	"lcdIcon\000"
 4697      636F6E00 
 4698 0085 80030000 		.4byte	0x380
 4699 0089 6C636452 		.ascii	"lcdRectBrd\000"
 4699      65637442 
 4699      726400
 4700 0094 19040000 		.4byte	0x419
 4701 0098 6C636452 		.ascii	"lcdRect\000"
 4701      65637400 
 4702 00a0 96040000 		.4byte	0x496
 4703 00a4 6C636443 		.ascii	"lcdContrast\000"
ARM GAS  /cygdrive/c/Users/Anders/AppData/Local/Temp/ccAtSolr.s 			page 93


 4703      6F6E7472 
 4703      61737400 
 4704 00b0 BF040000 		.4byte	0x4bf
 4705 00b4 6C636443 		.ascii	"lcdClrscr\000"
 4705      6C727363 
 4705      7200
 4706 00be E6040000 		.4byte	0x4e6
 4707 00c2 6C63644F 		.ascii	"lcdOff\000"
 4707      666600
 4708 00c9 FB040000 		.4byte	0x4fb
 4709 00cd 6C636449 		.ascii	"lcdInit\000"
 4709      6E697400 
 4710 00d5 76050000 		.4byte	0x576
 4711 00d9 63686172 		.ascii	"charMap\000"
 4711      4D617000 
 4712 00e1 00000000 		.4byte	0x0
 4713              		.section	.debug_aranges,"",%progbits
 4714 0000 1C000000 		.4byte	0x1c
 4715 0004 0200     		.2byte	0x2
 4716 0006 00000000 		.4byte	.Ldebug_info0
 4717 000a 04       		.byte	0x4
 4718 000b 00       		.byte	0x0
 4719 000c 0000     		.2byte	0x0
 4720 000e 0000     		.2byte	0x0
 4721 0010 00000000 		.4byte	.Ltext0
 4722 0014 74050000 		.4byte	.Letext0-.Ltext0
 4723 0018 00000000 		.4byte	0x0
 4724 001c 00000000 		.4byte	0x0
 4725              		.section	.debug_str,"MS",%progbits,1
 4726              	.LASF20:
 4727 0000 6C636449 		.ascii	"lcdIcon\000"
 4727      636F6E00 
 4728              	.LASF18:
 4729 0008 6C636457 		.ascii	"lcdWindow\000"
 4729      696E646F 
 4729      7700
 4730              	.LASF7:
 4731 0012 74657874 		.ascii	"text\000"
 4731      00
 4732              	.LASF39:
 4733 0017 626B6743 		.ascii	"bkgColor\000"
 4733      6F6C6F72 
 4733      00
 4734              	.LASF14:
 4735 0020 62797465 		.ascii	"byteToShift\000"
 4735      546F5368 
 4735      69667400 
 4736              	.LASF25:
 4737 002c 70446174 		.ascii	"pData\000"
 4737      6100
 4738              	.LASF5:
 4739 0032 73686F72 		.ascii	"short int\000"
 4739      7420696E 
 4739      7400
 4740              	.LASF31:
 4741 003c 636F6C6F 		.ascii	"color\000"
 4741      7200
ARM GAS  /cygdrive/c/Users/Anders/AppData/Local/Temp/ccAtSolr.s 			page 94


 4742              	.LASF41:
 4743 0042 73657463 		.ascii	"setcolmark\000"
 4743      6F6C6D61 
 4743      726B00
 4744              	.LASF45:
 4745 004d 6C636457 		.ascii	"lcdWindow1\000"
 4745      696E646F 
 4745      773100
 4746              	.LASF8:
 4747 0058 6C636443 		.ascii	"lcdColor\000"
 4747      6F6C6F72 
 4747      00
 4748              	.LASF42:
 4749 0061 474E5520 		.ascii	"GNU C 4.2.2\000"
 4749      4320342E 
 4749      322E3200 
 4750              	.LASF40:
 4751 006d 74657874 		.ascii	"textColor\000"
 4751      436F6C6F 
 4751      7200
 4752              	.LASF36:
 4753 0077 6C636449 		.ascii	"lcdInit\000"
 4753      6E697400 
 4754              	.LASF9:
 4755 007f 6C636457 		.ascii	"lcdWrdata\000"
 4755      72646174 
 4755      6100
 4756              	.LASF35:
 4757 0089 6C63644F 		.ascii	"lcdOff\000"
 4757      666600
 4758              	.LASF2:
 4759 0090 74553332 		.ascii	"tU32\000"
 4759      00
 4760              	.LASF32:
 4761 0095 6C636443 		.ascii	"lcdContrast\000"
 4761      6F6E7472 
 4761      61737400 
 4762              	.LASF12:
 4763 00a1 6C636444 		.ascii	"lcdData\000"
 4763      61746100 
 4764              	.LASF15:
 4765 00a9 6C636450 		.ascii	"lcdPutchar\000"
 4765      75746368 
 4765      617200
 4766              	.LASF26:
 4767 00b4 6C636452 		.ascii	"lcdRectBrd\000"
 4767      65637442 
 4767      726400
 4768              	.LASF38:
 4769 00bf 6C63645F 		.ascii	"lcd_y\000"
 4769      7900
 4770              	.LASF33:
 4771 00c5 636F6E74 		.ascii	"cont\000"
 4771      00
 4772              	.LASF34:
 4773 00ca 6C636443 		.ascii	"lcdClrscr\000"
 4773      6C727363 
ARM GAS  /cygdrive/c/Users/Anders/AppData/Local/Temp/ccAtSolr.s 			page 95


 4773      7200
 4774              	.LASF44:
 4775 00d4 2F637967 		.ascii	"/cygdrive/c/Users/Anders/Fr\345n Gamla Datorn/Mina "
 4775      64726976 
 4775      652F632F 
 4775      55736572 
 4775      732F416E 
 4776 0104 646F6B75 		.ascii	"dokument/Embedded Artists/Products/Education boards"
 4776      6D656E74 
 4776      2F456D62 
 4776      65646465 
 4776      64204172 
 4777 0137 2F4C5043 		.ascii	"/LPC2138 EDU/testPrograms/productionTest\000"
 4777      32313338 
 4777      20454455 
 4777      2F746573 
 4777      7450726F 
 4778              	.LASF24:
 4779 0160 65736361 		.ascii	"escapeChar\000"
 4779      70654368 
 4779      617200
 4780              	.LASF13:
 4781 016b 6D61704F 		.ascii	"mapOffset\000"
 4781      66667365 
 4781      7400
 4782              	.LASF6:
 4783 0175 74533332 		.ascii	"tS32\000"
 4783      00
 4784              	.LASF19:
 4785 017a 6C636447 		.ascii	"lcdGotoxy\000"
 4785      6F746F78 
 4785      7900
 4786              	.LASF0:
 4787 0184 756E7369 		.ascii	"unsigned char\000"
 4787      676E6564 
 4787      20636861 
 4787      7200
 4788              	.LASF47:
 4789 0192 63686172 		.ascii	"charMap\000"
 4789      4D617000 
 4790              	.LASF4:
 4791 019a 7369676E 		.ascii	"signed char\000"
 4791      65642063 
 4791      68617200 
 4792              	.LASF16:
 4793 01a6 6C636450 		.ascii	"lcdPuts\000"
 4793      75747300 
 4794              	.LASF3:
 4795 01ae 756E7369 		.ascii	"unsigned int\000"
 4795      676E6564 
 4795      20696E74 
 4795      00
 4796              	.LASF23:
 4797 01bb 636F6D70 		.ascii	"compressionOn\000"
 4797      72657373 
 4797      696F6E4F 
 4797      6E00
ARM GAS  /cygdrive/c/Users/Anders/AppData/Local/Temp/ccAtSolr.s 			page 96


 4798              	.LASF1:
 4799 01c9 73686F72 		.ascii	"short unsigned int\000"
 4799      7420756E 
 4799      7369676E 
 4799      65642069 
 4799      6E7400
 4800              	.LASF17:
 4801 01dc 63686172 		.ascii	"char\000"
 4801      00
 4802              	.LASF43:
 4803 01e1 6C63642E 		.ascii	"lcd.c\000"
 4803      6300
 4804              	.LASF10:
 4805 01e7 64617461 		.ascii	"data\000"
 4805      00
 4806              	.LASF27:
 4807 01ec 636F6C6F 		.ascii	"color1\000"
 4807      723100
 4808              	.LASF28:
 4809 01f3 636F6C6F 		.ascii	"color2\000"
 4809      723200
 4810              	.LASF29:
 4811 01fa 636F6C6F 		.ascii	"color3\000"
 4811      723300
 4812              	.LASF21:
 4813 0201 784C656E 		.ascii	"xLen\000"
 4813      00
 4814              	.LASF11:
 4815 0206 6C636457 		.ascii	"lcdWrcmd\000"
 4815      72636D64 
 4815      00
 4816              	.LASF22:
 4817 020f 794C656E 		.ascii	"yLen\000"
 4817      00
 4818              	.LASF37:
 4819 0214 6C63645F 		.ascii	"lcd_x\000"
 4819      7800
 4820              	.LASF30:
 4821 021a 6C636452 		.ascii	"lcdRect\000"
 4821      65637400 
 4822              	.LASF46:
 4823 0222 6C63644E 		.ascii	"lcdNewline\000"
 4823      65776C69 
 4823      6E6500
 4824              		.ident	"GCC: (GNU) 4.2.2"
ARM GAS  /cygdrive/c/Users/Anders/AppData/Local/Temp/ccAtSolr.s 			page 97


DEFINED SYMBOLS
                            *ABS*:00000000 lcd.c
/cygdrive/c/Users/Anders/AppData/Local/Temp/ccAtSolr.s:1      .text:00000000 $t
/cygdrive/c/Users/Anders/AppData/Local/Temp/ccAtSolr.s:16     .text:00000000 lcdColor
/cygdrive/c/Users/Anders/AppData/Local/Temp/ccAtSolr.s:36     .text:0000000c $d
/cygdrive/c/Users/Anders/AppData/Local/Temp/ccAtSolr.s:2552   .bss:00000002 bkgColor
/cygdrive/c/Users/Anders/AppData/Local/Temp/ccAtSolr.s:2554   .bss:00000003 textColor
/cygdrive/c/Users/Anders/AppData/Local/Temp/ccAtSolr.s:45     .text:00000014 lcdWrdata
/cygdrive/c/Users/Anders/AppData/Local/Temp/ccAtSolr.s:42     .text:00000014 $t
/cygdrive/c/Users/Anders/AppData/Local/Temp/ccAtSolr.s:70     .text:00000024 lcdWrcmd
/cygdrive/c/Users/Anders/AppData/Local/Temp/ccAtSolr.s:94     .text:00000034 lcdWindow1
/cygdrive/c/Users/Anders/AppData/Local/Temp/ccAtSolr.s:173    .text:00000088 lcdData
/cygdrive/c/Users/Anders/AppData/Local/Temp/ccAtSolr.s:300    .text:00000138 $d
/cygdrive/c/Users/Anders/AppData/Local/Temp/ccAtSolr.s:2548   .bss:00000000 lcd_x
/cygdrive/c/Users/Anders/AppData/Local/Temp/ccAtSolr.s:2550   .bss:00000001 lcd_y
/cygdrive/c/Users/Anders/AppData/Local/Temp/ccAtSolr.s:1174   .rodata:00000000 charMap
/cygdrive/c/Users/Anders/AppData/Local/Temp/ccAtSolr.s:312    .text:0000014c lcdPutchar
/cygdrive/c/Users/Anders/AppData/Local/Temp/ccAtSolr.s:309    .text:0000014c $t
/cygdrive/c/Users/Anders/AppData/Local/Temp/ccAtSolr.s:389    .text:000001a0 $d
/cygdrive/c/Users/Anders/AppData/Local/Temp/ccAtSolr.s:2556   .bss:00000004 setcolmark
/cygdrive/c/Users/Anders/AppData/Local/Temp/ccAtSolr.s:400    .text:000001b0 lcdPuts
/cygdrive/c/Users/Anders/AppData/Local/Temp/ccAtSolr.s:397    .text:000001b0 $t
/cygdrive/c/Users/Anders/AppData/Local/Temp/ccAtSolr.s:433    .text:000001c8 lcdWindow
/cygdrive/c/Users/Anders/AppData/Local/Temp/ccAtSolr.s:481    .text:000001f8 lcdGotoxy
/cygdrive/c/Users/Anders/AppData/Local/Temp/ccAtSolr.s:518    .text:00000218 $d
/cygdrive/c/Users/Anders/AppData/Local/Temp/ccAtSolr.s:527    .text:00000220 lcdIcon
/cygdrive/c/Users/Anders/AppData/Local/Temp/ccAtSolr.s:524    .text:00000220 $t
/cygdrive/c/Users/Anders/AppData/Local/Temp/ccAtSolr.s:685    .text:000002d4 lcdRectBrd
/cygdrive/c/Users/Anders/AppData/Local/Temp/ccAtSolr.s:827    .text:00000388 lcdRect
/cygdrive/c/Users/Anders/AppData/Local/Temp/ccAtSolr.s:913    .text:000003ec lcdContrast
/cygdrive/c/Users/Anders/AppData/Local/Temp/ccAtSolr.s:950    .text:00000410 lcdClrscr
/cygdrive/c/Users/Anders/AppData/Local/Temp/ccAtSolr.s:1000   .text:00000454 $d
/cygdrive/c/Users/Anders/AppData/Local/Temp/ccAtSolr.s:1011   .text:00000464 lcdOff
/cygdrive/c/Users/Anders/AppData/Local/Temp/ccAtSolr.s:1008   .text:00000464 $t
/cygdrive/c/Users/Anders/AppData/Local/Temp/ccAtSolr.s:1038   .text:00000480 lcdInit
/cygdrive/c/Users/Anders/AppData/Local/Temp/ccAtSolr.s:1166   .text:0000056c $d
/cygdrive/c/Users/Anders/AppData/Local/Temp/ccAtSolr.s:1175   .rodata:00000000 $d

UNDEFINED SYMBOLS
sendToLCD
selectLCD
initSpiForLcd
osSleep
