ARM GAS  C:\Users\embedded\AppData\Local\Temp\ccrmJJdW.s 			page 1


   1              		.cpu arm7tdmi
   2              		.eabi_attribute 20, 1
   3              		.eabi_attribute 21, 1
   4              		.eabi_attribute 23, 3
   5              		.eabi_attribute 24, 1
   6              		.eabi_attribute 25, 1
   7              		.eabi_attribute 26, 1
   8              		.eabi_attribute 30, 6
   9              		.eabi_attribute 34, 0
  10              		.eabi_attribute 18, 4
  11              		.file	"lm75.c"
  12              		.text
  13              	.Ltext0:
  14              		.cfi_sections	.debug_frame
  15              		.align	1
  16              		.global	measureTemperature
  17              		.syntax unified
  18              		.code	16
  19              		.thumb_func
  20              		.fpu softvfp
  21              		.type	measureTemperature, %function
  22              	measureTemperature:
  23              	.LFB0:
  24              		.file 1 "lm75.c"
   1:lm75.c        **** /*
   2:lm75.c        ****     Obsługa pomiaru temperatury przy pomocy temometru LM75.
   3:lm75.c        **** 
   4:lm75.c        ****     Plik z kodem źródłowym funkcji.
   5:lm75.c        **** */
   6:lm75.c        **** 
   7:lm75.c        **** #include "lm75.h"
   8:lm75.c        **** 
   9:lm75.c        **** tS8 measureTemperature(tU8 addr, tU8 *pBuf)
  10:lm75.c        **** {
  25              		.loc 1 10 0
  26              		.cfi_startproc
  27              		@ Function supports interworking.
  28              		@ args = 0, pretend = 0, frame = 8
  29              		@ frame_needed = 1, uses_anonymous_args = 0
  30 0000 80B5     		push	{r7, lr}
  31              	.LCFI0:
  32              		.cfi_def_cfa_offset 8
  33              		.cfi_offset 7, -8
  34              		.cfi_offset 14, -4
  35 0002 82B0     		sub	sp, sp, #8
  36              	.LCFI1:
  37              		.cfi_def_cfa_offset 16
  38 0004 00AF     		add	r7, sp, #0
  39              	.LCFI2:
  40              		.cfi_def_cfa_register 7
  41 0006 0200     		movs	r2, r0
  42 0008 3960     		str	r1, [r7]
  43 000a FB1D     		adds	r3, r7, #7
  44 000c 1A70     		strb	r2, [r3]
  11:lm75.c        ****     return i2cRead(addr, pBuf, 2);
  45              		.loc 1 11 0
  46 000e 3968     		ldr	r1, [r7]
ARM GAS  C:\Users\embedded\AppData\Local\Temp\ccrmJJdW.s 			page 2


  47 0010 FB1D     		adds	r3, r7, #7
  48 0012 1B78     		ldrb	r3, [r3]
  49 0014 0222     		movs	r2, #2
  50 0016 1800     		movs	r0, r3
  51 0018 FFF7FEFF 		bl	i2cRead
  52 001c 0300     		movs	r3, r0
  12:lm75.c        **** }
  53              		.loc 1 12 0
  54 001e 1800     		movs	r0, r3
  55 0020 BD46     		mov	sp, r7
  56 0022 02B0     		add	sp, sp, #8
  57              		@ sp needed
  58 0024 80BC     		pop	{r7}
  59 0026 02BC     		pop	{r1}
  60 0028 0847     		bx	r1
  61              		.cfi_endproc
  62              	.LFE0:
  63              		.size	measureTemperature, .-measureTemperature
  64              		.section	.rodata
  65              		.align	2
  66              	.LC0:
  67 0000 256400   		.ascii	"%d\000"
  68              		.text
  69              		.align	1
  70              		.global	calculateTemperatureValue
  71              		.syntax unified
  72              		.code	16
  73              		.thumb_func
  74              		.fpu softvfp
  75              		.type	calculateTemperatureValue, %function
  76              	calculateTemperatureValue:
  77              	.LFB1:
  13:lm75.c        **** 
  14:lm75.c        **** void calculateTemperatureValue(tU8 *byteArray)
  15:lm75.c        **** {
  78              		.loc 1 15 0
  79              		.cfi_startproc
  80              		@ Function supports interworking.
  81              		@ args = 0, pretend = 0, frame = 24
  82              		@ frame_needed = 1, uses_anonymous_args = 0
  83 002a 80B5     		push	{r7, lr}
  84              	.LCFI3:
  85              		.cfi_def_cfa_offset 8
  86              		.cfi_offset 7, -8
  87              		.cfi_offset 14, -4
  88 002c 86B0     		sub	sp, sp, #24
  89              	.LCFI4:
  90              		.cfi_def_cfa_offset 32
  91 002e 00AF     		add	r7, sp, #0
  92              	.LCFI5:
  93              		.cfi_def_cfa_register 7
  94 0030 7860     		str	r0, [r7, #4]
  16:lm75.c        ****     // Variable for holding result of sprintf
  17:lm75.c        ****     tU8 resultHolder;
  18:lm75.c        **** 
  19:lm75.c        ****     // Char array used for storing temperature to be shown to the user.
  20:lm75.c        ****     tU8 charArray[10] = {0};
ARM GAS  C:\Users\embedded\AppData\Local\Temp\ccrmJJdW.s 			page 3


  95              		.loc 1 20 0
  96 0032 0823     		movs	r3, #8
  97 0034 FB18     		adds	r3, r7, r3
  98 0036 1800     		movs	r0, r3
  99 0038 0A23     		movs	r3, #10
 100 003a 1A00     		movs	r2, r3
 101 003c 0021     		movs	r1, #0
 102 003e FFF7FEFF 		bl	memset
  21:lm75.c        **** 
  22:lm75.c        ****     // Variable for string integer part of the temperature
  23:lm75.c        ****     // Since the temperature can be negative (when the 8-th bit is up then this variable must be tS
  24:lm75.c        ****     tS8 calculatedValue = byteArray[0];
 103              		.loc 1 24 0
 104 0042 7B68     		ldr	r3, [r7, #4]
 105 0044 1A78     		ldrb	r2, [r3]
 106 0046 1621     		movs	r1, #22
 107 0048 7B18     		adds	r3, r7, r1
 108 004a 1A70     		strb	r2, [r3]
  25:lm75.c        **** 
  26:lm75.c        ****     // Flag indicating whether temperature value is below zero or not.
  27:lm75.c        ****     tU8 isNegative = 0;
 109              		.loc 1 27 0
 110 004c 1523     		movs	r3, #21
 111 004e FB18     		adds	r3, r7, r3
 112 0050 0022     		movs	r2, #0
 113 0052 1A70     		strb	r2, [r3]
  28:lm75.c        **** 
  29:lm75.c        ****     // Flag indicating whether it is required to add 0.5 Celsius degree to measured temperature.
  30:lm75.c        ****     tU8 appendHalf = 0;
 114              		.loc 1 30 0
 115 0054 1423     		movs	r3, #20
 116 0056 FB18     		adds	r3, r7, r3
 117 0058 0022     		movs	r2, #0
 118 005a 1A70     		strb	r2, [r3]
  31:lm75.c        **** 
  32:lm75.c        ****     if (calculatedValue < 0) {
 119              		.loc 1 32 0
 120 005c 7B18     		adds	r3, r7, r1
 121 005e 1B78     		ldrb	r3, [r3]
 122 0060 7F2B     		cmp	r3, #127
 123 0062 03D9     		bls	.L9
  33:lm75.c        ****     	// Case for negative temperature - if temperature is in fact below zero, then adding 0.5 degre
  34:lm75.c        ****         isNegative = 1;
 124              		.loc 1 34 0
 125 0064 1523     		movs	r3, #21
 126 0066 FB18     		adds	r3, r7, r3
 127 0068 0122     		movs	r2, #1
 128 006a 1A70     		strb	r2, [r3]
 129              	.L9:
  35:lm75.c        ****     }
  36:lm75.c        ****     if ((isNegative == (tU8)1) && ((byteArray[1] & (tU8)0x80) == (tU8)1)){
  37:lm75.c        ****         // Case for temperature that is negative and most significant bit in LSB (that is for 0.5 d
  38:lm75.c        ****         calculatedValue = calculatedValue + (tS8)1;
  39:lm75.c        ****     	appendHalf = 1;
  40:lm75.c        ****     } else if ((isNegative == (tU8)0) && ((byteArray[1] & (tU8)0x80) == (tU8)1)) {
  41:lm75.c        ****         // Case for temperature that is non negative and most significant bit in LSB (that is for 0
  42:lm75.c        ****     	appendHalf = 1;
ARM GAS  C:\Users\embedded\AppData\Local\Temp\ccrmJJdW.s 			page 4


  43:lm75.c        ****     } else {
  44:lm75.c        ****         ;
  45:lm75.c        ****     }
  46:lm75.c        **** 
  47:lm75.c        ****     // Variable used as iterator in a loop.
  48:lm75.c        **** 	tU8 i = 0;
 130              		.loc 1 48 0
 131 006c 1723     		movs	r3, #23
 132 006e FB18     		adds	r3, r7, r3
 133 0070 0022     		movs	r2, #0
 134 0072 1A70     		strb	r2, [r3]
  49:lm75.c        **** 
  50:lm75.c        ****     // Parsing calculatedValue into charArray to change it accroding to appendHalf flag value
  51:lm75.c        **** 	resultHolder = sprintf(charArray, "%d", calculatedValue);
 135              		.loc 1 51 0
 136 0074 1623     		movs	r3, #22
 137 0076 FB18     		adds	r3, r7, r3
 138 0078 0022     		movs	r2, #0
 139 007a 9A56     		ldrsb	r2, [r3, r2]
 140 007c 2049     		ldr	r1, .L10
 141 007e 0823     		movs	r3, #8
 142 0080 FB18     		adds	r3, r7, r3
 143 0082 1800     		movs	r0, r3
 144 0084 FFF7FEFF 		bl	sprintf
 145 0088 0200     		movs	r2, r0
 146 008a 1323     		movs	r3, #19
 147 008c FB18     		adds	r3, r7, r3
 148 008e 1A70     		strb	r2, [r3]
  52:lm75.c        **** 
  53:lm75.c        ****     while(charArray[i] != (tU8)0) {
 149              		.loc 1 53 0
 150 0090 05E0     		b	.L5
 151              	.L6:
  54:lm75.c        ****         i = i + (tU8)1;
 152              		.loc 1 54 0
 153 0092 1722     		movs	r2, #23
 154 0094 BB18     		adds	r3, r7, r2
 155 0096 BA18     		adds	r2, r7, r2
 156 0098 1278     		ldrb	r2, [r2]
 157 009a 0132     		adds	r2, r2, #1
 158 009c 1A70     		strb	r2, [r3]
 159              	.L5:
  53:lm75.c        ****         i = i + (tU8)1;
 160              		.loc 1 53 0
 161 009e 1723     		movs	r3, #23
 162 00a0 FB18     		adds	r3, r7, r3
 163 00a2 1B78     		ldrb	r3, [r3]
 164 00a4 0822     		movs	r2, #8
 165 00a6 BA18     		adds	r2, r7, r2
 166 00a8 D35C     		ldrb	r3, [r2, r3]
 167 00aa 002B     		cmp	r3, #0
 168 00ac F1D1     		bne	.L6
  55:lm75.c        ****     }
  56:lm75.c        **** 
  57:lm75.c        ****     charArray[i] = '.';
 169              		.loc 1 57 0
 170 00ae 1723     		movs	r3, #23
ARM GAS  C:\Users\embedded\AppData\Local\Temp\ccrmJJdW.s 			page 5


 171 00b0 FB18     		adds	r3, r7, r3
 172 00b2 1B78     		ldrb	r3, [r3]
 173 00b4 0822     		movs	r2, #8
 174 00b6 BA18     		adds	r2, r7, r2
 175 00b8 2E21     		movs	r1, #46
 176 00ba D154     		strb	r1, [r2, r3]
  58:lm75.c        ****     if (appendHalf == (tU8)1) {
 177              		.loc 1 58 0
 178 00bc 1423     		movs	r3, #20
 179 00be FB18     		adds	r3, r7, r3
 180 00c0 1B78     		ldrb	r3, [r3]
 181 00c2 012B     		cmp	r3, #1
 182 00c4 08D1     		bne	.L7
  59:lm75.c        ****         charArray[i + (tU8)1] = '5';
 183              		.loc 1 59 0
 184 00c6 1723     		movs	r3, #23
 185 00c8 FB18     		adds	r3, r7, r3
 186 00ca 1B78     		ldrb	r3, [r3]
 187 00cc 0133     		adds	r3, r3, #1
 188 00ce 0822     		movs	r2, #8
 189 00d0 BA18     		adds	r2, r7, r2
 190 00d2 3521     		movs	r1, #53
 191 00d4 D154     		strb	r1, [r2, r3]
 192 00d6 07E0     		b	.L8
 193              	.L7:
  60:lm75.c        ****     } else {
  61:lm75.c        ****         charArray[i + (tU8)1] = '0';
 194              		.loc 1 61 0
 195 00d8 1723     		movs	r3, #23
 196 00da FB18     		adds	r3, r7, r3
 197 00dc 1B78     		ldrb	r3, [r3]
 198 00de 0133     		adds	r3, r3, #1
 199 00e0 0822     		movs	r2, #8
 200 00e2 BA18     		adds	r2, r7, r2
 201 00e4 3021     		movs	r1, #48
 202 00e6 D154     		strb	r1, [r2, r3]
 203              	.L8:
  62:lm75.c        ****     }
  63:lm75.c        **** 
  64:lm75.c        ****     lcdPuts(charArray);
 204              		.loc 1 64 0
 205 00e8 0823     		movs	r3, #8
 206 00ea FB18     		adds	r3, r7, r3
 207 00ec 1800     		movs	r0, r3
 208 00ee FFF7FEFF 		bl	lcdPuts
  65:lm75.c        **** }
 209              		.loc 1 65 0
 210 00f2 C046     		nop
 211 00f4 BD46     		mov	sp, r7
 212 00f6 06B0     		add	sp, sp, #24
 213              		@ sp needed
 214 00f8 80BC     		pop	{r7}
 215 00fa 01BC     		pop	{r0}
 216 00fc 0047     		bx	r0
 217              	.L11:
 218 00fe C046     		.align	2
 219              	.L10:
ARM GAS  C:\Users\embedded\AppData\Local\Temp\ccrmJJdW.s 			page 6


 220 0100 00000000 		.word	.LC0
 221              		.cfi_endproc
 222              	.LFE1:
 223              		.size	calculateTemperatureValue, .-calculateTemperatureValue
 224              	.Letext0:
 225              		.file 2 "general.h"
 226              		.file 3 "<built-in>"