ARM GAS  C:\Users\embedded\AppData\Local\Temp\ccZ0blxh.s 			page 1


   1              		.cpu arm7tdmi
   2              		.eabi_attribute 20, 1
   3              		.eabi_attribute 21, 1
   4              		.eabi_attribute 23, 3
   5              		.eabi_attribute 24, 1
   6              		.eabi_attribute 25, 1
   7              		.eabi_attribute 26, 1
   8              		.eabi_attribute 30, 6
   9              		.eabi_attribute 34, 0
  10              		.eabi_attribute 18, 4
  11              		.file	"main.c"
  12              		.text
  13              	.Ltext0:
  14              		.cfi_sections	.debug_frame
  15              		.section	.rodata
  16              		.align	2
  17              	.LC0:
  18 0000 256400   		.ascii	"%d\000"
  19 0003 00       		.align	2
  20              	.LC2:
  21 0004 3A00     		.ascii	":\000"
  22              		.text
  23              		.align	1
  24              		.global	showTime
  25              		.syntax unified
  26              		.code	16
  27              		.thumb_func
  28              		.fpu softvfp
  29              		.type	showTime, %function
  30              	showTime:
  31              	.LFB3:
  32              		.file 1 "main.c"
   1:main.c        **** #include "general.h"
   2:main.c        **** #include <lpc2xxx.h>
   3:main.c        **** #include <printf_P.h>
   4:main.c        **** #include <printf_init.h>
   5:main.c        **** #include <consol.h>
   6:main.c        **** #include <config.h>
   7:main.c        **** #include "irq/irq_handler.h"
   8:main.c        **** #include "timer.h"
   9:main.c        **** #include "VIC.h"
  10:main.c        **** #include "i2c.h"
  11:main.c        **** #include <stdio.h>
  12:main.c        **** #include <string.h>
  13:main.c        **** 
  14:main.c        **** // Include'y do urządzeń peryferyjnych
  15:main.c        **** 
  16:main.c        **** #include "lm75.h"
  17:main.c        **** #include "htu21df.h"
  18:main.c        **** #include "bmp180.h"
  19:main.c        **** #include "tsl2561.h"
  20:main.c        **** 
  21:main.c        **** // End
  22:main.c        **** 
  23:main.c        **** #include "lcd.h"
  24:main.c        **** #include "pca9532.h"
  25:main.c        **** #include "additional.h"
ARM GAS  C:\Users\embedded\AppData\Local\Temp\ccZ0blxh.s 			page 2


  26:main.c        **** 
  27:main.c        **** #include "Common_Def.h"
  28:main.c        **** 
  29:main.c        **** #define STEP_DELAY 50
  30:main.c        **** #define KEY_LEFT   0x0080
  31:main.c        **** #define KEY_RIGHT  0x0100
  32:main.c        **** 
  33:main.c        **** /*!
  34:main.c        ****  *  @brief    Uruchomienie obsługi przerwań
  35:main.c        ****  *  @param period
  36:main.c        ****  *             Okres generatora przerwań
  37:main.c        ****  *  @param duty_cycle
  38:main.c        ****  *             Wypełnienie w %
  39:main.c        ****  *
  40:main.c        ****  *  @returns  Nic
  41:main.c        ****  *  @side effects:
  42:main.c        ****  *            Przeprogramowany timer #1
  43:main.c        ****  */
  44:main.c        **** 
  45:main.c        **** /*!
  46:main.c        ****  *  @brief Main function of the entire program - responsible for managing all user
  47:main.c        ****  * 		   interaction and showing them results of these actions.
  48:main.c        ****  *  @returns Technically, this function is executed constantly, so in fact it does not return
  49:main.c        ****  * 			 any value.
  50:main.c        ****  *  @side effects: As for now, they are possible, but not yet known.
  51:main.c        ****  */
  52:main.c        **** void showTime(tU32 sec,tU32 min,tU32 hour){
  33              		.loc 1 52 0
  34              		.cfi_startproc
  35              		@ Function supports interworking.
  36              		@ args = 0, pretend = 0, frame = 32
  37              		@ frame_needed = 1, uses_anonymous_args = 0
  38 0000 F0B5     		push	{r4, r5, r6, r7, lr}
  39              	.LCFI0:
  40              		.cfi_def_cfa_offset 20
  41              		.cfi_offset 4, -20
  42              		.cfi_offset 5, -16
  43              		.cfi_offset 6, -12
  44              		.cfi_offset 7, -8
  45              		.cfi_offset 14, -4
  46 0002 89B0     		sub	sp, sp, #36
  47              	.LCFI1:
  48              		.cfi_def_cfa_offset 56
  49 0004 00AF     		add	r7, sp, #0
  50              	.LCFI2:
  51              		.cfi_def_cfa_register 7
  52 0006 F860     		str	r0, [r7, #12]
  53 0008 B960     		str	r1, [r7, #8]
  54 000a 7A60     		str	r2, [r7, #4]
  53:main.c        **** 	// zrobic ewentualnie zeby przekazywac s
  54:main.c        ****     //mozliwe ze zamiana char na tU8 cos psuje
  55:main.c        **** 	/*
  56:main.c        ****     tU8 tabS[3];
  57:main.c        ****     sprintf(tabS, "%d", RTC_SEC);
  58:main.c        ****     tU8 tabMin[3];
  59:main.c        ****     sprintf(tabMin, "%d", RTC_MIN);
  60:main.c        ****     tU8 tabHr[3];
ARM GAS  C:\Users\embedded\AppData\Local\Temp\ccZ0blxh.s 			page 3


  61:main.c        ****     sprintf(tabHr, "%d", RTC_HOUR);*/
  62:main.c        **** 
  63:main.c        **** 	tU8 tabS[3];
  64:main.c        ****     sprintf(tabS, "%d", sec);
  55              		.loc 1 64 0
  56 000c FA68     		ldr	r2, [r7, #12]
  57 000e 3F49     		ldr	r1, .L5
  58 0010 1824     		movs	r4, #24
  59 0012 3B19     		adds	r3, r7, r4
  60 0014 1800     		movs	r0, r3
  61 0016 FFF7FEFF 		bl	sprintf
  65:main.c        ****     tU8 tabMin[3];
  66:main.c        ****     sprintf(tabMin, "%d", min);
  62              		.loc 1 66 0
  63 001a BA68     		ldr	r2, [r7, #8]
  64 001c 3B49     		ldr	r1, .L5
  65 001e 1425     		movs	r5, #20
  66 0020 7B19     		adds	r3, r7, r5
  67 0022 1800     		movs	r0, r3
  68 0024 FFF7FEFF 		bl	sprintf
  67:main.c        ****     tU8 tabHr[3];
  68:main.c        ****     sprintf(tabHr, "%d", hour);
  69              		.loc 1 68 0
  70 0028 7A68     		ldr	r2, [r7, #4]
  71 002a 3849     		ldr	r1, .L5
  72 002c 1026     		movs	r6, #16
  73 002e BB19     		adds	r3, r7, r6
  74 0030 1800     		movs	r0, r3
  75 0032 FFF7FEFF 		bl	sprintf
  69:main.c        **** 
  70:main.c        ****     tabS[2] = '\0';
  76              		.loc 1 70 0
  77 0036 3B19     		adds	r3, r7, r4
  78 0038 0022     		movs	r2, #0
  79 003a 9A70     		strb	r2, [r3, #2]
  71:main.c        ****     tabMin[2] = '\0';
  80              		.loc 1 71 0
  81 003c 7B19     		adds	r3, r7, r5
  82 003e 0022     		movs	r2, #0
  83 0040 9A70     		strb	r2, [r3, #2]
  72:main.c        ****     tabHr[2] = '\0';
  84              		.loc 1 72 0
  85 0042 BB19     		adds	r3, r7, r6
  86 0044 0022     		movs	r2, #0
  87 0046 9A70     		strb	r2, [r3, #2]
  73:main.c        **** 
  74:main.c        ****     if (sec < 10) {
  88              		.loc 1 74 0
  89 0048 FB68     		ldr	r3, [r7, #12]
  90 004a 092B     		cmp	r3, #9
  91 004c 0CD8     		bhi	.L2
  92              	.LBB2:
  75:main.c        ****         tU8 temp1 = tabS[0];
  93              		.loc 1 75 0
  94 004e 1F20     		movs	r0, #31
  95 0050 3B18     		adds	r3, r7, r0
  96 0052 1821     		movs	r1, #24
ARM GAS  C:\Users\embedded\AppData\Local\Temp\ccZ0blxh.s 			page 4


  97 0054 7A18     		adds	r2, r7, r1
  98 0056 1278     		ldrb	r2, [r2]
  99 0058 1A70     		strb	r2, [r3]
  76:main.c        ****         tabS[1] = temp1;
 100              		.loc 1 76 0
 101 005a 7B18     		adds	r3, r7, r1
 102 005c 3A18     		adds	r2, r7, r0
 103 005e 1278     		ldrb	r2, [r2]
 104 0060 5A70     		strb	r2, [r3, #1]
  77:main.c        ****         tabS[0] = '0';
 105              		.loc 1 77 0
 106 0062 7B18     		adds	r3, r7, r1
 107 0064 3022     		movs	r2, #48
 108 0066 1A70     		strb	r2, [r3]
 109              	.L2:
 110              	.LBE2:
  78:main.c        ****     }
  79:main.c        ****     if (min < 10) {
 111              		.loc 1 79 0
 112 0068 BB68     		ldr	r3, [r7, #8]
 113 006a 092B     		cmp	r3, #9
 114 006c 0CD8     		bhi	.L3
 115              	.LBB3:
  80:main.c        ****         tU8 temp2 = tabMin[0];
 116              		.loc 1 80 0
 117 006e 1E20     		movs	r0, #30
 118 0070 3B18     		adds	r3, r7, r0
 119 0072 1421     		movs	r1, #20
 120 0074 7A18     		adds	r2, r7, r1
 121 0076 1278     		ldrb	r2, [r2]
 122 0078 1A70     		strb	r2, [r3]
  81:main.c        ****         tabMin[1] = temp2;
 123              		.loc 1 81 0
 124 007a 7B18     		adds	r3, r7, r1
 125 007c 3A18     		adds	r2, r7, r0
 126 007e 1278     		ldrb	r2, [r2]
 127 0080 5A70     		strb	r2, [r3, #1]
  82:main.c        ****         tabMin[0] = '0';
 128              		.loc 1 82 0
 129 0082 7B18     		adds	r3, r7, r1
 130 0084 3022     		movs	r2, #48
 131 0086 1A70     		strb	r2, [r3]
 132              	.L3:
 133              	.LBE3:
  83:main.c        ****     }
  84:main.c        ****     if (hour < 10) {
 134              		.loc 1 84 0
 135 0088 7B68     		ldr	r3, [r7, #4]
 136 008a 092B     		cmp	r3, #9
 137 008c 0CD8     		bhi	.L4
 138              	.LBB4:
  85:main.c        ****         tU8 temp3 = tabHr[0];
 139              		.loc 1 85 0
 140 008e 1D20     		movs	r0, #29
 141 0090 3B18     		adds	r3, r7, r0
 142 0092 1021     		movs	r1, #16
 143 0094 7A18     		adds	r2, r7, r1
ARM GAS  C:\Users\embedded\AppData\Local\Temp\ccZ0blxh.s 			page 5


 144 0096 1278     		ldrb	r2, [r2]
 145 0098 1A70     		strb	r2, [r3]
  86:main.c        ****         tabHr[1] = temp3;
 146              		.loc 1 86 0
 147 009a 7B18     		adds	r3, r7, r1
 148 009c 3A18     		adds	r2, r7, r0
 149 009e 1278     		ldrb	r2, [r2]
 150 00a0 5A70     		strb	r2, [r3, #1]
  87:main.c        ****         tabHr[0] = '0';
 151              		.loc 1 87 0
 152 00a2 7B18     		adds	r3, r7, r1
 153 00a4 3022     		movs	r2, #48
 154 00a6 1A70     		strb	r2, [r3]
 155              	.L4:
 156              	.LBE4:
  88:main.c        ****     }
  89:main.c        **** 
  90:main.c        ****     lcdGotoxy(10, 50);
 157              		.loc 1 90 0
 158 00a8 3221     		movs	r1, #50
 159 00aa 0A20     		movs	r0, #10
 160 00ac FFF7FEFF 		bl	lcdGotoxy
  91:main.c        ****     lcdPuts(tabHr);
 161              		.loc 1 91 0
 162 00b0 1023     		movs	r3, #16
 163 00b2 FB18     		adds	r3, r7, r3
 164 00b4 1800     		movs	r0, r3
 165 00b6 FFF7FEFF 		bl	lcdPuts
  92:main.c        **** 
  93:main.c        ****     lcdGotoxy(30, 50);
 166              		.loc 1 93 0
 167 00ba 3221     		movs	r1, #50
 168 00bc 1E20     		movs	r0, #30
 169 00be FFF7FEFF 		bl	lcdGotoxy
  94:main.c        ****     lcdPuts(":");
 170              		.loc 1 94 0
 171 00c2 134B     		ldr	r3, .L5+4
 172 00c4 1800     		movs	r0, r3
 173 00c6 FFF7FEFF 		bl	lcdPuts
  95:main.c        **** 
  96:main.c        ****     lcdGotoxy(50, 50);
 174              		.loc 1 96 0
 175 00ca 3221     		movs	r1, #50
 176 00cc 3220     		movs	r0, #50
 177 00ce FFF7FEFF 		bl	lcdGotoxy
  97:main.c        ****     lcdPuts(tabMin);
 178              		.loc 1 97 0
 179 00d2 1423     		movs	r3, #20
 180 00d4 FB18     		adds	r3, r7, r3
 181 00d6 1800     		movs	r0, r3
 182 00d8 FFF7FEFF 		bl	lcdPuts
  98:main.c        **** 
  99:main.c        ****     lcdGotoxy(70, 50);
 183              		.loc 1 99 0
 184 00dc 3221     		movs	r1, #50
 185 00de 4620     		movs	r0, #70
 186 00e0 FFF7FEFF 		bl	lcdGotoxy
ARM GAS  C:\Users\embedded\AppData\Local\Temp\ccZ0blxh.s 			page 6


 100:main.c        ****     lcdPuts(":");
 187              		.loc 1 100 0
 188 00e4 0A4B     		ldr	r3, .L5+4
 189 00e6 1800     		movs	r0, r3
 190 00e8 FFF7FEFF 		bl	lcdPuts
 101:main.c        **** 
 102:main.c        ****     lcdGotoxy(90, 50);
 191              		.loc 1 102 0
 192 00ec 3221     		movs	r1, #50
 193 00ee 5A20     		movs	r0, #90
 194 00f0 FFF7FEFF 		bl	lcdGotoxy
 103:main.c        ****     lcdPuts(tabS);
 195              		.loc 1 103 0
 196 00f4 1823     		movs	r3, #24
 197 00f6 FB18     		adds	r3, r7, r3
 198 00f8 1800     		movs	r0, r3
 199 00fa FFF7FEFF 		bl	lcdPuts
 104:main.c        **** }
 200              		.loc 1 104 0
 201 00fe C046     		nop
 202 0100 BD46     		mov	sp, r7
 203 0102 09B0     		add	sp, sp, #36
 204              		@ sp needed
 205 0104 F0BC     		pop	{r4, r5, r6, r7}
 206 0106 01BC     		pop	{r0}
 207 0108 0047     		bx	r0
 208              	.L6:
 209 010a C046     		.align	2
 210              	.L5:
 211 010c 00000000 		.word	.LC0
 212 0110 04000000 		.word	.LC2
 213              		.cfi_endproc
 214              	.LFE3:
 215              		.size	showTime, .-showTime
 216              		.section	.rodata
 217 0006 0000     		.align	2
 218              	.LC4:
 219 0008 57616B65 		.ascii	"Wake up!\000\000"
 219      20757021 
 219      0000
 220 0012 0000     		.align	2
 221              	.LC6:
 222 0014 506F6D69 		.ascii	"Pomiar\012temperatury: \000"
 222      61720A74 
 222      656D7065 
 222      72617475 
 222      72793A20 
 223              		.text
 224              		.align	1
 225              		.global	main
 226              		.syntax unified
 227              		.code	16
 228              		.thumb_func
 229              		.fpu softvfp
 230              		.type	main, %function
 231              	main:
 232              	.LFB4:
ARM GAS  C:\Users\embedded\AppData\Local\Temp\ccZ0blxh.s 			page 7


 105:main.c        **** int main(void)
 106:main.c        **** {
 233              		.loc 1 106 0
 234              		.cfi_startproc
 235              		@ Function supports interworking.
 236              		@ args = 0, pretend = 0, frame = 168
 237              		@ frame_needed = 1, uses_anonymous_args = 0
 238 0114 90B5     		push	{r4, r7, lr}
 239              	.LCFI3:
 240              		.cfi_def_cfa_offset 12
 241              		.cfi_offset 4, -12
 242              		.cfi_offset 7, -8
 243              		.cfi_offset 14, -4
 244 0116 ABB0     		sub	sp, sp, #172
 245              	.LCFI4:
 246              		.cfi_def_cfa_offset 184
 247 0118 00AF     		add	r7, sp, #0
 248              	.LCFI5:
 249              		.cfi_def_cfa_register 7
 107:main.c        **** 	tU8 pca9532Present = FALSE;
 250              		.loc 1 107 0
 251 011a 9524     		movs	r4, #149
 252 011c 3B19     		adds	r3, r7, r4
 253 011e 0022     		movs	r2, #0
 254 0120 1A70     		strb	r2, [r3]
 108:main.c        **** 	// I2C initalization
 109:main.c        **** 	i2cInit();
 255              		.loc 1 109 0
 256 0122 FFF7FEFF 		bl	i2cInit
 110:main.c        **** 	pca9532Present = pca9532Init();
 257              		.loc 1 110 0
 258 0126 FFF7FEFF 		bl	pca9532Init
 259 012a 0200     		movs	r2, r0
 260 012c 3B19     		adds	r3, r7, r4
 261 012e 1A70     		strb	r2, [r3]
 111:main.c        **** 	tU8 lm75address = (((tU8)0x48 << 1) | (tU8)1);
 262              		.loc 1 111 0
 263 0130 9423     		movs	r3, #148
 264 0132 FB18     		adds	r3, r7, r3
 265 0134 9122     		movs	r2, #145
 266 0136 1A70     		strb	r2, [r3]
 112:main.c        **** 	printf_init();
 267              		.loc 1 112 0
 268 0138 FFF7FEFF 		bl	printf_init
 113:main.c        **** 	// LCD display initialization
 114:main.c        **** 	lcdInit();
 269              		.loc 1 114 0
 270 013c FFF7FEFF 		bl	lcdInit
 115:main.c        **** 	// Setting colors for background and text.
 116:main.c        **** 	lcdColor(0xff, 0x00);
 271              		.loc 1 116 0
 272 0140 0021     		movs	r1, #0
 273 0142 FF20     		movs	r0, #255
 274 0144 FFF7FEFF 		bl	lcdColor
 117:main.c        **** 	lcdClrscr();
 275              		.loc 1 117 0
 276 0148 FFF7FEFF 		bl	lcdClrscr
ARM GAS  C:\Users\embedded\AppData\Local\Temp\ccZ0blxh.s 			page 8


 118:main.c        **** 
 119:main.c        **** 	/*
 120:main.c        **** 		Main loop containg enitre program logic. With every iteration, joystick position is checked
 121:main.c        **** 		and based on that, appropriate measurement value.
 122:main.c        **** 	*/
 123:main.c        **** 	/*
 124:main.c        **** 	tU8 *charPtr;
 125:main.c        **** 	tS8 returnedValue = 0;
 126:main.c        **** 	tU8 charArray[10] = {0};
 127:main.c        **** 	// Variables for holding messages to display with lcdPuts
 128:main.c        **** 	tU8 *messagePointer;
 129:main.c        **** 	tU8 messageHolder[128];
 130:main.c        **** 
 131:main.c        **** 	tS8 humidityValue;
 132:main.c        **** 	tU16 brightnessValue;
 133:main.c        **** 	tS64 pressureValue; */
 134:main.c        **** 
 135:main.c        **** 	tU8 isTimeBeingSet = FALSE;
 277              		.loc 1 135 0
 278 014c A723     		movs	r3, #167
 279 014e FB18     		adds	r3, r7, r3
 280 0150 0022     		movs	r2, #0
 281 0152 1A70     		strb	r2, [r3]
 136:main.c        **** 	tU16 currentType = 0;
 282              		.loc 1 136 0
 283 0154 A423     		movs	r3, #164
 284 0156 FB18     		adds	r3, r7, r3
 285 0158 0022     		movs	r2, #0
 286 015a 1A80     		strh	r2, [r3]
 137:main.c        **** 	tU8 charArray[10] = {0};
 287              		.loc 1 137 0
 288 015c 8823     		movs	r3, #136
 289 015e FB18     		adds	r3, r7, r3
 290 0160 1800     		movs	r0, r3
 291 0162 0A23     		movs	r3, #10
 292 0164 1A00     		movs	r2, r3
 293 0166 0021     		movs	r1, #0
 294 0168 FFF7FEFF 		bl	memset
 138:main.c        **** 	tU8 *messagePointer;
 139:main.c        **** 	tU8 messageHolder[128];
 140:main.c        **** 	tU8 readTemperature[2] = {0};
 295              		.loc 1 140 0
 296 016c 3B1D     		adds	r3, r7, #4
 297 016e 0022     		movs	r2, #0
 298 0170 1A80     		strh	r2, [r3]
 141:main.c        **** 
 142:main.c        **** 
 143:main.c        **** 	RTC_CCR = 0x00000012;
 299              		.loc 1 143 0
 300 0172 8A4B     		ldr	r3, .L41
 301 0174 1222     		movs	r2, #18
 302 0176 1A60     		str	r2, [r3]
 144:main.c        **** 	RTC_CCR = 0x00000010;
 303              		.loc 1 144 0
 304 0178 884B     		ldr	r3, .L41
 305 017a 1022     		movs	r2, #16
 306 017c 1A60     		str	r2, [r3]
ARM GAS  C:\Users\embedded\AppData\Local\Temp\ccZ0blxh.s 			page 9


 145:main.c        **** 	RTC_ILR = 0x00000000;
 307              		.loc 1 145 0
 308 017e 884B     		ldr	r3, .L41+4
 309 0180 0022     		movs	r2, #0
 310 0182 1A60     		str	r2, [r3]
 146:main.c        **** 	RTC_CIIR = 0x00000000;
 311              		.loc 1 146 0
 312 0184 874B     		ldr	r3, .L41+8
 313 0186 0022     		movs	r2, #0
 314 0188 1A60     		str	r2, [r3]
 147:main.c        **** 	RTC_AMR = 0x00000000;
 315              		.loc 1 147 0
 316 018a 874B     		ldr	r3, .L41+12
 317 018c 0022     		movs	r2, #0
 318 018e 1A60     		str	r2, [r3]
 148:main.c        **** 	//PREINT  = 449;
 149:main.c        **** 	//PREFRAC = 0;
 150:main.c        **** 	RTC_SEC = 50;
 319              		.loc 1 150 0
 320 0190 864B     		ldr	r3, .L41+16
 321 0192 3222     		movs	r2, #50
 322 0194 1A60     		str	r2, [r3]
 151:main.c        **** 	RTC_MIN = 59;
 323              		.loc 1 151 0
 324 0196 864B     		ldr	r3, .L41+20
 325 0198 3B22     		movs	r2, #59
 326 019a 1A60     		str	r2, [r3]
 152:main.c        **** 	RTC_HOUR = 23;
 327              		.loc 1 152 0
 328 019c 854B     		ldr	r3, .L41+24
 329 019e 1722     		movs	r2, #23
 330 01a0 1A60     		str	r2, [r3]
 153:main.c        **** 	RTC_CCR = 0x00000011;
 331              		.loc 1 153 0
 332 01a2 7E4B     		ldr	r3, .L41
 333 01a4 1122     		movs	r2, #17
 334 01a6 1A60     		str	r2, [r3]
 154:main.c        **** 	tU32 temp_SEC = RTC_SEC;
 335              		.loc 1 154 0
 336 01a8 804B     		ldr	r3, .L41+16
 337 01aa 1B68     		ldr	r3, [r3]
 338 01ac A022     		movs	r2, #160
 339 01ae BA18     		adds	r2, r7, r2
 340 01b0 1360     		str	r3, [r2]
 155:main.c        ****     tU32 temp_MIN = RTC_MIN;
 341              		.loc 1 155 0
 342 01b2 7F4B     		ldr	r3, .L41+20
 343 01b4 1B68     		ldr	r3, [r3]
 344 01b6 9C22     		movs	r2, #156
 345 01b8 BA18     		adds	r2, r7, r2
 346 01ba 1360     		str	r3, [r2]
 156:main.c        ****     tU32 temp_HOUR = RTC_HOUR;
 347              		.loc 1 156 0
 348 01bc 7D4B     		ldr	r3, .L41+24
 349 01be 1B68     		ldr	r3, [r3]
 350 01c0 9822     		movs	r2, #152
 351 01c2 BA18     		adds	r2, r7, r2
ARM GAS  C:\Users\embedded\AppData\Local\Temp\ccZ0blxh.s 			page 10


 352 01c4 1360     		str	r3, [r2]
 157:main.c        **** 
 158:main.c        **** 	IODIR |= 0x00008000; //P0.15
 353              		.loc 1 158 0
 354 01c6 7C4B     		ldr	r3, .L41+28
 355 01c8 1A68     		ldr	r2, [r3]
 356 01ca 7B4B     		ldr	r3, .L41+28
 357 01cc 8021     		movs	r1, #128
 358 01ce 0902     		lsls	r1, r1, #8
 359 01d0 0A43     		orrs	r2, r1
 360 01d2 1A60     		str	r2, [r3]
 159:main.c        **** 
 160:main.c        **** 	IODIR |= 0x00260000; //RGB
 361              		.loc 1 160 0
 362 01d4 784B     		ldr	r3, .L41+28
 363 01d6 1A68     		ldr	r2, [r3]
 364 01d8 774B     		ldr	r3, .L41+28
 365 01da 9821     		movs	r1, #152
 366 01dc 8903     		lsls	r1, r1, #14
 367 01de 0A43     		orrs	r2, r1
 368 01e0 1A60     		str	r2, [r3]
 161:main.c        **** 	IOSET = 0x00260000;
 369              		.loc 1 161 0
 370 01e2 764B     		ldr	r3, .L41+32
 371 01e4 9822     		movs	r2, #152
 372 01e6 9203     		lsls	r2, r2, #14
 373 01e8 1A60     		str	r2, [r3]
 162:main.c        **** 
 163:main.c        **** 	IODIR1 |= 0x000F0000; //LEDs
 374              		.loc 1 163 0
 375 01ea 754B     		ldr	r3, .L41+36
 376 01ec 1A68     		ldr	r2, [r3]
 377 01ee 744B     		ldr	r3, .L41+36
 378 01f0 F021     		movs	r1, #240
 379 01f2 0903     		lsls	r1, r1, #12
 380 01f4 0A43     		orrs	r2, r1
 381 01f6 1A60     		str	r2, [r3]
 164:main.c        **** 	IOSET1 = 0x000F0000;
 382              		.loc 1 164 0
 383 01f8 724B     		ldr	r3, .L41+40
 384 01fa F022     		movs	r2, #240
 385 01fc 1203     		lsls	r2, r2, #12
 386 01fe 1A60     		str	r2, [r3]
 165:main.c        **** 	IOCLR1 = 0x00030000;
 387              		.loc 1 165 0
 388 0200 714B     		ldr	r3, .L41+44
 389 0202 C022     		movs	r2, #192
 390 0204 9202     		lsls	r2, r2, #10
 391 0206 1A60     		str	r2, [r3]
 166:main.c        **** 	IOCLR1 = 0x00050000;
 392              		.loc 1 166 0
 393 0208 6F4B     		ldr	r3, .L41+44
 394 020a A022     		movs	r2, #160
 395 020c D202     		lsls	r2, r2, #11
 396 020e 1A60     		str	r2, [r3]
 167:main.c        **** 	IOCLR1 = 0x000c0000;
 397              		.loc 1 167 0
ARM GAS  C:\Users\embedded\AppData\Local\Temp\ccZ0blxh.s 			page 11


 398 0210 6D4B     		ldr	r3, .L41+44
 399 0212 C022     		movs	r2, #192
 400 0214 1203     		lsls	r2, r2, #12
 401 0216 1A60     		str	r2, [r3]
 168:main.c        **** 	IOCLR1 = 0x00090000;
 402              		.loc 1 168 0
 403 0218 6B4B     		ldr	r3, .L41+44
 404 021a 9022     		movs	r2, #144
 405 021c 1203     		lsls	r2, r2, #12
 406 021e 1A60     		str	r2, [r3]
 169:main.c        **** 	IOSET1 = 0x000F0000;
 407              		.loc 1 169 0
 408 0220 684B     		ldr	r3, .L41+40
 409 0222 F022     		movs	r2, #240
 410 0224 1203     		lsls	r2, r2, #12
 411 0226 1A60     		str	r2, [r3]
 170:main.c        **** 	IODIR1 &= ~0x00F00000; //Keys
 412              		.loc 1 170 0
 413 0228 654B     		ldr	r3, .L41+36
 414 022a 1A68     		ldr	r2, [r3]
 415 022c 644B     		ldr	r3, .L41+36
 416 022e 6749     		ldr	r1, .L41+48
 417 0230 0A40     		ands	r2, r1
 418 0232 1A60     		str	r2, [r3]
 419              	.L40:
 420              	.LBB5:
 171:main.c        **** 
 172:main.c        **** 	while (TRUE) {
 173:main.c        **** 		showTime(RTC_SEC, RTC_MIN,RTC_HOUR);
 421              		.loc 1 173 0
 422 0234 5D4B     		ldr	r3, .L41+16
 423 0236 1868     		ldr	r0, [r3]
 424 0238 5D4B     		ldr	r3, .L41+20
 425 023a 1968     		ldr	r1, [r3]
 426 023c 5D4B     		ldr	r3, .L41+24
 427 023e 1B68     		ldr	r3, [r3]
 428 0240 1A00     		movs	r2, r3
 429 0242 FFF7FEFF 		bl	showTime
 174:main.c        ****         //check if P0.8 center-key is pressed
 175:main.c        ****         if ((IOPIN & 0x00000100) == 0 && !isTimeBeingSet)
 430              		.loc 1 175 0
 431 0246 624B     		ldr	r3, .L41+52
 432 0248 1A68     		ldr	r2, [r3]
 433 024a 8023     		movs	r3, #128
 434 024c 5B00     		lsls	r3, r3, #1
 435 024e 1340     		ands	r3, r2
 436 0250 00D0     		beq	.LCB341
 437 0252 E5E0     		b	.L8	@long jump
 438              	.LCB341:
 439              		.loc 1 175 0 is_stmt 0 discriminator 1
 440 0254 A723     		movs	r3, #167
 441 0256 FB18     		adds	r3, r7, r3
 442 0258 1B78     		ldrb	r3, [r3]
 443 025a 002B     		cmp	r3, #0
 444 025c 00D0     		beq	.LCB346
 445 025e DFE0     		b	.L8	@long jump
 446              	.LCB346:
ARM GAS  C:\Users\embedded\AppData\Local\Temp\ccZ0blxh.s 			page 12


 176:main.c        ****         {
 177:main.c        ****             isTimeBeingSet = TRUE;
 447              		.loc 1 177 0 is_stmt 1
 448 0260 A723     		movs	r3, #167
 449 0262 FB18     		adds	r3, r7, r3
 450 0264 0122     		movs	r2, #1
 451 0266 1A70     		strb	r2, [r3]
 178:main.c        **** 			temp_SEC = RTC_SEC;
 452              		.loc 1 178 0
 453 0268 504B     		ldr	r3, .L41+16
 454 026a 1B68     		ldr	r3, [r3]
 455 026c A020     		movs	r0, #160
 456 026e 3A18     		adds	r2, r7, r0
 457 0270 1360     		str	r3, [r2]
 179:main.c        **** 			temp_MIN = RTC_MIN;
 458              		.loc 1 179 0
 459 0272 4F4B     		ldr	r3, .L41+20
 460 0274 1B68     		ldr	r3, [r3]
 461 0276 9C21     		movs	r1, #156
 462 0278 7A18     		adds	r2, r7, r1
 463 027a 1360     		str	r3, [r2]
 180:main.c        **** 			temp_HOUR = RTC_HOUR;
 464              		.loc 1 180 0
 465 027c 4D4B     		ldr	r3, .L41+24
 466 027e 1B68     		ldr	r3, [r3]
 467 0280 9822     		movs	r2, #152
 468 0282 BC18     		adds	r4, r7, r2
 469 0284 2360     		str	r3, [r4]
 181:main.c        **** 
 182:main.c        **** 			showTime(temp_SEC,temp_MIN,temp_HOUR);
 470              		.loc 1 182 0
 471 0286 BB18     		adds	r3, r7, r2
 472 0288 1A68     		ldr	r2, [r3]
 473 028a 7B18     		adds	r3, r7, r1
 474 028c 1968     		ldr	r1, [r3]
 475 028e 3B18     		adds	r3, r7, r0
 476 0290 1B68     		ldr	r3, [r3]
 477 0292 1800     		movs	r0, r3
 478 0294 FFF7FEFF 		bl	showTime
 183:main.c        **** 			sdelay(1);
 479              		.loc 1 183 0
 480 0298 0120     		movs	r0, #1
 481 029a FFF7FEFF 		bl	sdelay
 184:main.c        **** 			while(isTimeBeingSet){
 482              		.loc 1 184 0
 483 029e B9E0     		b	.L9
 484              	.L21:
 185:main.c        **** 				//check if P0.8 center-key is pressed
 186:main.c        **** 				if ((IOPIN & 0x00000100) == 0)
 485              		.loc 1 186 0
 486 02a0 4B4B     		ldr	r3, .L41+52
 487 02a2 1A68     		ldr	r2, [r3]
 488 02a4 8023     		movs	r3, #128
 489 02a6 5B00     		lsls	r3, r3, #1
 490 02a8 1340     		ands	r3, r2
 491 02aa 11D1     		bne	.L10
 187:main.c        **** 				{
ARM GAS  C:\Users\embedded\AppData\Local\Temp\ccZ0blxh.s 			page 13


 188:main.c        **** 					currentType++;
 492              		.loc 1 188 0
 493 02ac A421     		movs	r1, #164
 494 02ae 7B18     		adds	r3, r7, r1
 495 02b0 1A88     		ldrh	r2, [r3]
 496 02b2 7B18     		adds	r3, r7, r1
 497 02b4 0132     		adds	r2, r2, #1
 498 02b6 1A80     		strh	r2, [r3]
 189:main.c        **** 					if(currentType<0 || currentType > 2){
 499              		.loc 1 189 0
 500 02b8 7B18     		adds	r3, r7, r1
 501 02ba 1B88     		ldrh	r3, [r3]
 502 02bc 022B     		cmp	r3, #2
 503 02be 03D9     		bls	.L11
 190:main.c        **** 						isTimeBeingSet = FALSE;
 504              		.loc 1 190 0
 505 02c0 A723     		movs	r3, #167
 506 02c2 FB18     		adds	r3, r7, r3
 507 02c4 0022     		movs	r2, #0
 508 02c6 1A70     		strb	r2, [r3]
 509              	.L11:
 191:main.c        **** 					}
 192:main.c        **** 					sdelay(1);
 510              		.loc 1 192 0
 511 02c8 0120     		movs	r0, #1
 512 02ca FFF7FEFF 		bl	sdelay
 513 02ce A1E0     		b	.L9
 514              	.L10:
 193:main.c        **** 				}
 194:main.c        **** 				//check if P0.10 up-key is pressed
 195:main.c        **** 				else if((IOPIN & 0x0000400) == 0){
 515              		.loc 1 195 0
 516 02d0 3F4B     		ldr	r3, .L41+52
 517 02d2 1A68     		ldr	r2, [r3]
 518 02d4 8023     		movs	r3, #128
 519 02d6 DB00     		lsls	r3, r3, #3
 520 02d8 1340     		ands	r3, r2
 521 02da 37D1     		bne	.L12
 196:main.c        **** 					switch(currentType){
 522              		.loc 1 196 0
 523 02dc A423     		movs	r3, #164
 524 02de FB18     		adds	r3, r7, r3
 525 02e0 1B88     		ldrh	r3, [r3]
 526 02e2 012B     		cmp	r3, #1
 527 02e4 0AD0     		beq	.L14
 528 02e6 022B     		cmp	r3, #2
 529 02e8 0FD0     		beq	.L15
 530 02ea 002B     		cmp	r3, #0
 531 02ec 14D1     		bne	.L13
 197:main.c        **** 						case 0:
 198:main.c        **** 							temp_HOUR++;
 532              		.loc 1 198 0
 533 02ee 9822     		movs	r2, #152
 534 02f0 BB18     		adds	r3, r7, r2
 535 02f2 1B68     		ldr	r3, [r3]
 536 02f4 0133     		adds	r3, r3, #1
 537 02f6 BA18     		adds	r2, r7, r2
ARM GAS  C:\Users\embedded\AppData\Local\Temp\ccZ0blxh.s 			page 14


 538 02f8 1360     		str	r3, [r2]
 199:main.c        **** 							break;
 539              		.loc 1 199 0
 540 02fa 0DE0     		b	.L13
 541              	.L14:
 200:main.c        **** 						case 1:
 201:main.c        **** 							temp_MIN++;
 542              		.loc 1 201 0
 543 02fc 9C22     		movs	r2, #156
 544 02fe BB18     		adds	r3, r7, r2
 545 0300 1B68     		ldr	r3, [r3]
 546 0302 0133     		adds	r3, r3, #1
 547 0304 BA18     		adds	r2, r7, r2
 548 0306 1360     		str	r3, [r2]
 202:main.c        **** 							break;
 549              		.loc 1 202 0
 550 0308 06E0     		b	.L13
 551              	.L15:
 203:main.c        **** 						case 2:
 204:main.c        **** 							temp_SEC++;
 552              		.loc 1 204 0
 553 030a A022     		movs	r2, #160
 554 030c BB18     		adds	r3, r7, r2
 555 030e 1B68     		ldr	r3, [r3]
 556 0310 0133     		adds	r3, r3, #1
 557 0312 BA18     		adds	r2, r7, r2
 558 0314 1360     		str	r3, [r2]
 205:main.c        **** 							break;
 559              		.loc 1 205 0
 560 0316 C046     		nop
 561              	.L13:
 206:main.c        **** 					}
 207:main.c        **** 					showTime(temp_SEC,temp_MIN,temp_HOUR);
 562              		.loc 1 207 0
 563 0318 9823     		movs	r3, #152
 564 031a FB18     		adds	r3, r7, r3
 565 031c 1A68     		ldr	r2, [r3]
 566 031e 9C23     		movs	r3, #156
 567 0320 FB18     		adds	r3, r7, r3
 568 0322 1968     		ldr	r1, [r3]
 569 0324 A023     		movs	r3, #160
 570 0326 FB18     		adds	r3, r7, r3
 571 0328 1B68     		ldr	r3, [r3]
 572 032a 1800     		movs	r0, r3
 573 032c FFF7FEFF 		bl	showTime
 208:main.c        **** 					sdelay(1);
 574              		.loc 1 208 0
 575 0330 0120     		movs	r0, #1
 576 0332 FFF7FEFF 		bl	sdelay
 577 0336 A722     		movs	r2, #167
 578 0338 BB18     		adds	r3, r7, r2
 579 033a BA18     		adds	r2, r7, r2
 580 033c 1278     		ldrb	r2, [r2]
 581 033e 1A70     		strb	r2, [r3]
 582 0340 A422     		movs	r2, #164
 583 0342 BB18     		adds	r3, r7, r2
 584 0344 BA18     		adds	r2, r7, r2
ARM GAS  C:\Users\embedded\AppData\Local\Temp\ccZ0blxh.s 			page 15


 585 0346 1288     		ldrh	r2, [r2]
 586 0348 1A80     		strh	r2, [r3]
 587 034a 63E0     		b	.L9
 588              	.L12:
 209:main.c        **** 				}
 210:main.c        **** 				//check if P0.12 down-key is pressed
 211:main.c        **** 				else if((IOPIN & 0x00001000) == 0){
 589              		.loc 1 211 0
 590 034c 204B     		ldr	r3, .L41+52
 591 034e 1A68     		ldr	r2, [r3]
 592 0350 8023     		movs	r3, #128
 593 0352 5B01     		lsls	r3, r3, #5
 594 0354 1340     		ands	r3, r2
 595 0356 A721     		movs	r1, #167
 596 0358 7A18     		adds	r2, r7, r1
 597 035a 7918     		adds	r1, r7, r1
 598 035c 0978     		ldrb	r1, [r1]
 599 035e 1170     		strb	r1, [r2]
 600 0360 A421     		movs	r1, #164
 601 0362 7A18     		adds	r2, r7, r1
 602 0364 7918     		adds	r1, r7, r1
 603 0366 0988     		ldrh	r1, [r1]
 604 0368 1180     		strh	r1, [r2]
 605 036a 002B     		cmp	r3, #0
 606 036c 52D1     		bne	.L9
 212:main.c        **** 					switch(currentType){
 607              		.loc 1 212 0
 608 036e A423     		movs	r3, #164
 609 0370 FB18     		adds	r3, r7, r3
 610 0372 1B88     		ldrh	r3, [r3]
 611 0374 012B     		cmp	r3, #1
 612 0376 0AD0     		beq	.L18
 613 0378 022B     		cmp	r3, #2
 614 037a 2BD0     		beq	.L19
 615 037c 002B     		cmp	r3, #0
 616 037e 30D1     		bne	.L17
 213:main.c        **** 						case 0:
 214:main.c        **** 							temp_HOUR--;
 617              		.loc 1 214 0
 618 0380 9822     		movs	r2, #152
 619 0382 BB18     		adds	r3, r7, r2
 620 0384 1B68     		ldr	r3, [r3]
 621 0386 013B     		subs	r3, r3, #1
 622 0388 BA18     		adds	r2, r7, r2
 623 038a 1360     		str	r3, [r2]
 215:main.c        **** 							break;
 624              		.loc 1 215 0
 625 038c 29E0     		b	.L17
 626              	.L18:
 216:main.c        **** 						case 1:
 217:main.c        **** 							temp_MIN--;
 627              		.loc 1 217 0
 628 038e 9C22     		movs	r2, #156
 629 0390 BB18     		adds	r3, r7, r2
 630 0392 1B68     		ldr	r3, [r3]
 631 0394 013B     		subs	r3, r3, #1
 632 0396 BA18     		adds	r2, r7, r2
ARM GAS  C:\Users\embedded\AppData\Local\Temp\ccZ0blxh.s 			page 16


 633 0398 1360     		str	r3, [r2]
 218:main.c        **** 							break;
 634              		.loc 1 218 0
 635 039a 22E0     		b	.L17
 636              	.L42:
 637              		.align	2
 638              	.L41:
 639 039c 084002E0 		.word	-536723448
 640 03a0 004002E0 		.word	-536723456
 641 03a4 0C4002E0 		.word	-536723444
 642 03a8 104002E0 		.word	-536723440
 643 03ac 204002E0 		.word	-536723424
 644 03b0 244002E0 		.word	-536723420
 645 03b4 284002E0 		.word	-536723416
 646 03b8 088002E0 		.word	-536707064
 647 03bc 048002E0 		.word	-536707068
 648 03c0 188002E0 		.word	-536707048
 649 03c4 148002E0 		.word	-536707052
 650 03c8 1C8002E0 		.word	-536707044
 651 03cc FFFF0FFF 		.word	-15728641
 652 03d0 008002E0 		.word	-536707072
 653              	.L19:
 219:main.c        **** 						case 2:
 220:main.c        **** 							temp_SEC--;
 654              		.loc 1 220 0
 655 03d4 A022     		movs	r2, #160
 656 03d6 BB18     		adds	r3, r7, r2
 657 03d8 1B68     		ldr	r3, [r3]
 658 03da 013B     		subs	r3, r3, #1
 659 03dc BA18     		adds	r2, r7, r2
 660 03de 1360     		str	r3, [r2]
 221:main.c        **** 							break;
 661              		.loc 1 221 0
 662 03e0 C046     		nop
 663              	.L17:
 222:main.c        **** 					}
 223:main.c        **** 					showTime(temp_SEC,temp_MIN,temp_HOUR);
 664              		.loc 1 223 0
 665 03e2 9823     		movs	r3, #152
 666 03e4 FB18     		adds	r3, r7, r3
 667 03e6 1A68     		ldr	r2, [r3]
 668 03e8 9C23     		movs	r3, #156
 669 03ea FB18     		adds	r3, r7, r3
 670 03ec 1968     		ldr	r1, [r3]
 671 03ee A023     		movs	r3, #160
 672 03f0 FB18     		adds	r3, r7, r3
 673 03f2 1B68     		ldr	r3, [r3]
 674 03f4 1800     		movs	r0, r3
 675 03f6 FFF7FEFF 		bl	showTime
 224:main.c        **** 					sdelay(1);
 676              		.loc 1 224 0
 677 03fa 0120     		movs	r0, #1
 678 03fc FFF7FEFF 		bl	sdelay
 679 0400 A722     		movs	r2, #167
 680 0402 BB18     		adds	r3, r7, r2
 681 0404 BA18     		adds	r2, r7, r2
 682 0406 1278     		ldrb	r2, [r2]
ARM GAS  C:\Users\embedded\AppData\Local\Temp\ccZ0blxh.s 			page 17


 683 0408 1A70     		strb	r2, [r3]
 684 040a A422     		movs	r2, #164
 685 040c BB18     		adds	r3, r7, r2
 686 040e BA18     		adds	r2, r7, r2
 687 0410 1288     		ldrh	r2, [r2]
 688 0412 1A80     		strh	r2, [r3]
 689              	.L9:
 184:main.c        **** 				//check if P0.8 center-key is pressed
 690              		.loc 1 184 0
 691 0414 A723     		movs	r3, #167
 692 0416 FB18     		adds	r3, r7, r3
 693 0418 1B78     		ldrb	r3, [r3]
 694 041a 002B     		cmp	r3, #0
 695 041c 00D0     		beq	.LCB601
 696 041e 3FE7     		b	.L21	@long jump
 697              	.LCB601:
 698              	.L8:
 225:main.c        **** 				}
 226:main.c        **** 
 227:main.c        **** 			}
 228:main.c        ****         }
 229:main.c        **** 		if(RTC_HOUR == temp_HOUR && RTC_MIN == temp_MIN && RTC_SEC == temp_SEC){
 699              		.loc 1 229 0
 700 0420 A14B     		ldr	r3, .L43
 701 0422 1B68     		ldr	r3, [r3]
 702 0424 9822     		movs	r2, #152
 703 0426 BA18     		adds	r2, r7, r2
 704 0428 1268     		ldr	r2, [r2]
 705 042a 9A42     		cmp	r2, r3
 706 042c 23D1     		bne	.L22
 707              		.loc 1 229 0 is_stmt 0 discriminator 1
 708 042e 9F4B     		ldr	r3, .L43+4
 709 0430 1B68     		ldr	r3, [r3]
 710 0432 9C22     		movs	r2, #156
 711 0434 BA18     		adds	r2, r7, r2
 712 0436 1268     		ldr	r2, [r2]
 713 0438 9A42     		cmp	r2, r3
 714 043a 1CD1     		bne	.L22
 715              		.loc 1 229 0 discriminator 2
 716 043c 9C4B     		ldr	r3, .L43+8
 717 043e 1B68     		ldr	r3, [r3]
 718 0440 A022     		movs	r2, #160
 719 0442 BA18     		adds	r2, r7, r2
 720 0444 1268     		ldr	r2, [r2]
 721 0446 9A42     		cmp	r2, r3
 722 0448 15D1     		bne	.L22
 230:main.c        **** 			showTime(RTC_SEC,RTC_MIN,RTC_HOUR);
 723              		.loc 1 230 0 is_stmt 1
 724 044a 994B     		ldr	r3, .L43+8
 725 044c 1868     		ldr	r0, [r3]
 726 044e 974B     		ldr	r3, .L43+4
 727 0450 1968     		ldr	r1, [r3]
 728 0452 954B     		ldr	r3, .L43
 729 0454 1B68     		ldr	r3, [r3]
 730 0456 1A00     		movs	r2, r3
 731 0458 FFF7FEFF 		bl	showTime
 231:main.c        **** 			lcdGotoxy(50, 70);
ARM GAS  C:\Users\embedded\AppData\Local\Temp\ccZ0blxh.s 			page 18


 732              		.loc 1 231 0
 733 045c 4621     		movs	r1, #70
 734 045e 3220     		movs	r0, #50
 735 0460 FFF7FEFF 		bl	lcdGotoxy
 232:main.c        **** 			lcdPuts("Wake up!\0");
 736              		.loc 1 232 0
 737 0464 934B     		ldr	r3, .L43+12
 738 0466 1800     		movs	r0, r3
 739 0468 FFF7FEFF 		bl	lcdPuts
 233:main.c        **** 			sdelay(1);
 740              		.loc 1 233 0
 741 046c 0120     		movs	r0, #1
 742 046e FFF7FEFF 		bl	sdelay
 234:main.c        **** 			lcdClrscr();
 743              		.loc 1 234 0
 744 0472 FFF7FEFF 		bl	lcdClrscr
 745              	.L22:
 235:main.c        **** 		}
 236:main.c        **** 		tU16 keys;
 237:main.c        **** 			  if (TRUE == pca9532Present)
 746              		.loc 1 237 0
 747 0476 9523     		movs	r3, #149
 748 0478 FB18     		adds	r3, r7, r3
 749 047a 1B78     		ldrb	r3, [r3]
 750 047c 012B     		cmp	r3, #1
 751 047e 00D0     		beq	.LCB647
 752 0480 F0E0     		b	.L23	@long jump
 753              	.LCB647:
 754              	.LBB6:
 238:main.c        **** 			  {
 239:main.c        **** 			    if (!(keys & KEY_LEFT))  setPca9532Pin(0, 0);
 755              		.loc 1 239 0
 756 0482 9623     		movs	r3, #150
 757 0484 FB18     		adds	r3, r7, r3
 758 0486 1B88     		ldrh	r3, [r3]
 759 0488 8022     		movs	r2, #128
 760 048a 1340     		ands	r3, r2
 761 048c 03D1     		bne	.L24
 762              	.LBB7:
 763              		.loc 1 239 0 is_stmt 0 discriminator 1
 764 048e 0021     		movs	r1, #0
 765 0490 0020     		movs	r0, #0
 766 0492 FFF7FEFF 		bl	setPca9532Pin
 767              	.L24:
 768              	.LBE7:
 240:main.c        **** 			    if (!(keys & KEY_RIGHT)) setPca9532Pin(8, 0);
 769              		.loc 1 240 0 is_stmt 1
 770 0496 9623     		movs	r3, #150
 771 0498 FB18     		adds	r3, r7, r3
 772 049a 1A88     		ldrh	r2, [r3]
 773 049c 8023     		movs	r3, #128
 774 049e 5B00     		lsls	r3, r3, #1
 775 04a0 1340     		ands	r3, r2
 776 04a2 03D1     		bne	.L25
 777              	.LBB8:
 778              		.loc 1 240 0 is_stmt 0 discriminator 1
 779 04a4 0021     		movs	r1, #0
ARM GAS  C:\Users\embedded\AppData\Local\Temp\ccZ0blxh.s 			page 19


 780 04a6 0820     		movs	r0, #8
 781 04a8 FFF7FEFF 		bl	setPca9532Pin
 782              	.L25:
 783              	.LBE8:
 241:main.c        **** 			    if (!(keys & KEY_LEFT))  setPca9532Pin(1, 0);
 784              		.loc 1 241 0 is_stmt 1
 785 04ac 9623     		movs	r3, #150
 786 04ae FB18     		adds	r3, r7, r3
 787 04b0 1B88     		ldrh	r3, [r3]
 788 04b2 8022     		movs	r2, #128
 789 04b4 1340     		ands	r3, r2
 790 04b6 03D1     		bne	.L26
 791              	.LBB9:
 792              		.loc 1 241 0 is_stmt 0 discriminator 1
 793 04b8 0021     		movs	r1, #0
 794 04ba 0120     		movs	r0, #1
 795 04bc FFF7FEFF 		bl	setPca9532Pin
 796              	.L26:
 797              	.LBE9:
 242:main.c        **** 			    if (!(keys & KEY_RIGHT)) setPca9532Pin(9, 0);
 798              		.loc 1 242 0 is_stmt 1
 799 04c0 9623     		movs	r3, #150
 800 04c2 FB18     		adds	r3, r7, r3
 801 04c4 1A88     		ldrh	r2, [r3]
 802 04c6 8023     		movs	r3, #128
 803 04c8 5B00     		lsls	r3, r3, #1
 804 04ca 1340     		ands	r3, r2
 805 04cc 03D1     		bne	.L27
 806              	.LBB10:
 807              		.loc 1 242 0 is_stmt 0 discriminator 1
 808 04ce 0021     		movs	r1, #0
 809 04d0 0920     		movs	r0, #9
 810 04d2 FFF7FEFF 		bl	setPca9532Pin
 811              	.L27:
 812              	.LBE10:
 243:main.c        **** 			    if (!(keys & KEY_LEFT))  setPca9532Pin(2, 0);
 813              		.loc 1 243 0 is_stmt 1
 814 04d6 9623     		movs	r3, #150
 815 04d8 FB18     		adds	r3, r7, r3
 816 04da 1B88     		ldrh	r3, [r3]
 817 04dc 8022     		movs	r2, #128
 818 04de 1340     		ands	r3, r2
 819 04e0 03D1     		bne	.L28
 820              	.LBB11:
 821              		.loc 1 243 0 is_stmt 0 discriminator 1
 822 04e2 0021     		movs	r1, #0
 823 04e4 0220     		movs	r0, #2
 824 04e6 FFF7FEFF 		bl	setPca9532Pin
 825              	.L28:
 826              	.LBE11:
 244:main.c        **** 			    if (!(keys & KEY_RIGHT)) setPca9532Pin(10, 0);
 827              		.loc 1 244 0 is_stmt 1
 828 04ea 9623     		movs	r3, #150
 829 04ec FB18     		adds	r3, r7, r3
 830 04ee 1A88     		ldrh	r2, [r3]
 831 04f0 8023     		movs	r3, #128
 832 04f2 5B00     		lsls	r3, r3, #1
ARM GAS  C:\Users\embedded\AppData\Local\Temp\ccZ0blxh.s 			page 20


 833 04f4 1340     		ands	r3, r2
 834 04f6 03D1     		bne	.L29
 835              	.LBB12:
 836              		.loc 1 244 0 is_stmt 0 discriminator 1
 837 04f8 0021     		movs	r1, #0
 838 04fa 0A20     		movs	r0, #10
 839 04fc FFF7FEFF 		bl	setPca9532Pin
 840              	.L29:
 841              	.LBE12:
 245:main.c        **** 			    if (!(keys & KEY_LEFT))  setPca9532Pin(3, 0);
 842              		.loc 1 245 0 is_stmt 1
 843 0500 9623     		movs	r3, #150
 844 0502 FB18     		adds	r3, r7, r3
 845 0504 1B88     		ldrh	r3, [r3]
 846 0506 8022     		movs	r2, #128
 847 0508 1340     		ands	r3, r2
 848 050a 03D1     		bne	.L30
 849              	.LBB13:
 850              		.loc 1 245 0 is_stmt 0 discriminator 1
 851 050c 0021     		movs	r1, #0
 852 050e 0320     		movs	r0, #3
 853 0510 FFF7FEFF 		bl	setPca9532Pin
 854              	.L30:
 855              	.LBE13:
 246:main.c        **** 			    if (!(keys & KEY_RIGHT)) setPca9532Pin(11, 0);
 856              		.loc 1 246 0 is_stmt 1
 857 0514 9623     		movs	r3, #150
 858 0516 FB18     		adds	r3, r7, r3
 859 0518 1A88     		ldrh	r2, [r3]
 860 051a 8023     		movs	r3, #128
 861 051c 5B00     		lsls	r3, r3, #1
 862 051e 1340     		ands	r3, r2
 863 0520 03D1     		bne	.L31
 864              	.LBB14:
 865              		.loc 1 246 0 is_stmt 0 discriminator 1
 866 0522 0021     		movs	r1, #0
 867 0524 0B20     		movs	r0, #11
 868 0526 FFF7FEFF 		bl	setPca9532Pin
 869              	.L31:
 870              	.LBE14:
 247:main.c        **** 			    if (!(keys & KEY_LEFT))  setPca9532Pin(4, 0);
 871              		.loc 1 247 0 is_stmt 1
 872 052a 9623     		movs	r3, #150
 873 052c FB18     		adds	r3, r7, r3
 874 052e 1B88     		ldrh	r3, [r3]
 875 0530 8022     		movs	r2, #128
 876 0532 1340     		ands	r3, r2
 877 0534 03D1     		bne	.L32
 878              	.LBB15:
 879              		.loc 1 247 0 is_stmt 0 discriminator 1
 880 0536 0021     		movs	r1, #0
 881 0538 0420     		movs	r0, #4
 882 053a FFF7FEFF 		bl	setPca9532Pin
 883              	.L32:
 884              	.LBE15:
 248:main.c        **** 			    if (!(keys & KEY_RIGHT)) setPca9532Pin(12, 0);
 885              		.loc 1 248 0 is_stmt 1
ARM GAS  C:\Users\embedded\AppData\Local\Temp\ccZ0blxh.s 			page 21


 886 053e 9623     		movs	r3, #150
 887 0540 FB18     		adds	r3, r7, r3
 888 0542 1A88     		ldrh	r2, [r3]
 889 0544 8023     		movs	r3, #128
 890 0546 5B00     		lsls	r3, r3, #1
 891 0548 1340     		ands	r3, r2
 892 054a 03D1     		bne	.L33
 893              	.LBB16:
 894              		.loc 1 248 0 is_stmt 0 discriminator 1
 895 054c 0021     		movs	r1, #0
 896 054e 0C20     		movs	r0, #12
 897 0550 FFF7FEFF 		bl	setPca9532Pin
 898              	.L33:
 899              	.LBE16:
 249:main.c        **** 			    if (!(keys & KEY_LEFT))  setPca9532Pin(5, 0);
 900              		.loc 1 249 0 is_stmt 1
 901 0554 9623     		movs	r3, #150
 902 0556 FB18     		adds	r3, r7, r3
 903 0558 1B88     		ldrh	r3, [r3]
 904 055a 8022     		movs	r2, #128
 905 055c 1340     		ands	r3, r2
 906 055e 03D1     		bne	.L34
 907              	.LBB17:
 908              		.loc 1 249 0 is_stmt 0 discriminator 1
 909 0560 0021     		movs	r1, #0
 910 0562 0520     		movs	r0, #5
 911 0564 FFF7FEFF 		bl	setPca9532Pin
 912              	.L34:
 913              	.LBE17:
 250:main.c        **** 			    if (!(keys & KEY_RIGHT)) setPca9532Pin(13, 0);
 914              		.loc 1 250 0 is_stmt 1
 915 0568 9623     		movs	r3, #150
 916 056a FB18     		adds	r3, r7, r3
 917 056c 1A88     		ldrh	r2, [r3]
 918 056e 8023     		movs	r3, #128
 919 0570 5B00     		lsls	r3, r3, #1
 920 0572 1340     		ands	r3, r2
 921 0574 03D1     		bne	.L35
 922              	.LBB18:
 923              		.loc 1 250 0 is_stmt 0 discriminator 1
 924 0576 0021     		movs	r1, #0
 925 0578 0D20     		movs	r0, #13
 926 057a FFF7FEFF 		bl	setPca9532Pin
 927              	.L35:
 928              	.LBE18:
 251:main.c        **** 			    if (!(keys & KEY_LEFT))  setPca9532Pin(6, 0);
 929              		.loc 1 251 0 is_stmt 1
 930 057e 9623     		movs	r3, #150
 931 0580 FB18     		adds	r3, r7, r3
 932 0582 1B88     		ldrh	r3, [r3]
 933 0584 8022     		movs	r2, #128
 934 0586 1340     		ands	r3, r2
 935 0588 03D1     		bne	.L36
 936              	.LBB19:
 937              		.loc 1 251 0 is_stmt 0 discriminator 1
 938 058a 0021     		movs	r1, #0
 939 058c 0620     		movs	r0, #6
ARM GAS  C:\Users\embedded\AppData\Local\Temp\ccZ0blxh.s 			page 22


 940 058e FFF7FEFF 		bl	setPca9532Pin
 941              	.L36:
 942              	.LBE19:
 252:main.c        **** 			    if (!(keys & KEY_RIGHT)) setPca9532Pin(14, 0);
 943              		.loc 1 252 0 is_stmt 1
 944 0592 9623     		movs	r3, #150
 945 0594 FB18     		adds	r3, r7, r3
 946 0596 1A88     		ldrh	r2, [r3]
 947 0598 8023     		movs	r3, #128
 948 059a 5B00     		lsls	r3, r3, #1
 949 059c 1340     		ands	r3, r2
 950 059e 03D1     		bne	.L37
 951              	.LBB20:
 952              		.loc 1 252 0 is_stmt 0 discriminator 1
 953 05a0 0021     		movs	r1, #0
 954 05a2 0E20     		movs	r0, #14
 955 05a4 FFF7FEFF 		bl	setPca9532Pin
 956              	.L37:
 957              	.LBE20:
 253:main.c        **** 			    if (!(keys & KEY_LEFT))  setPca9532Pin(7, 0);
 958              		.loc 1 253 0 is_stmt 1
 959 05a8 9623     		movs	r3, #150
 960 05aa FB18     		adds	r3, r7, r3
 961 05ac 1B88     		ldrh	r3, [r3]
 962 05ae 8022     		movs	r2, #128
 963 05b0 1340     		ands	r3, r2
 964 05b2 03D1     		bne	.L38
 965              	.LBB21:
 966              		.loc 1 253 0 is_stmt 0 discriminator 1
 967 05b4 0021     		movs	r1, #0
 968 05b6 0720     		movs	r0, #7
 969 05b8 FFF7FEFF 		bl	setPca9532Pin
 970              	.L38:
 971              	.LBE21:
 254:main.c        **** 			    if (!(keys & KEY_RIGHT)) setPca9532Pin(15, 0);
 972              		.loc 1 254 0 is_stmt 1
 973 05bc 9623     		movs	r3, #150
 974 05be FB18     		adds	r3, r7, r3
 975 05c0 1A88     		ldrh	r2, [r3]
 976 05c2 8023     		movs	r3, #128
 977 05c4 5B00     		lsls	r3, r3, #1
 978 05c6 1340     		ands	r3, r2
 979 05c8 03D1     		bne	.L39
 980              	.LBB22:
 981              		.loc 1 254 0 is_stmt 0 discriminator 1
 982 05ca 0021     		movs	r1, #0
 983 05cc 0F20     		movs	r0, #15
 984 05ce FFF7FEFF 		bl	setPca9532Pin
 985              	.L39:
 986              	.LBE22:
 255:main.c        **** 			    setPca9532Pin(0, 1);
 987              		.loc 1 255 0 is_stmt 1
 988 05d2 0121     		movs	r1, #1
 989 05d4 0020     		movs	r0, #0
 990 05d6 FFF7FEFF 		bl	setPca9532Pin
 256:main.c        **** 			    setPca9532Pin(1, 1);
 991              		.loc 1 256 0
ARM GAS  C:\Users\embedded\AppData\Local\Temp\ccZ0blxh.s 			page 23


 992 05da 0121     		movs	r1, #1
 993 05dc 0120     		movs	r0, #1
 994 05de FFF7FEFF 		bl	setPca9532Pin
 257:main.c        **** 			    setPca9532Pin(2, 1);
 995              		.loc 1 257 0
 996 05e2 0121     		movs	r1, #1
 997 05e4 0220     		movs	r0, #2
 998 05e6 FFF7FEFF 		bl	setPca9532Pin
 258:main.c        **** 			    setPca9532Pin(3, 1);
 999              		.loc 1 258 0
 1000 05ea 0121     		movs	r1, #1
 1001 05ec 0320     		movs	r0, #3
 1002 05ee FFF7FEFF 		bl	setPca9532Pin
 259:main.c        **** 			    setPca9532Pin(4, 1);
 1003              		.loc 1 259 0
 1004 05f2 0121     		movs	r1, #1
 1005 05f4 0420     		movs	r0, #4
 1006 05f6 FFF7FEFF 		bl	setPca9532Pin
 260:main.c        **** 			    setPca9532Pin(5, 1);
 1007              		.loc 1 260 0
 1008 05fa 0121     		movs	r1, #1
 1009 05fc 0520     		movs	r0, #5
 1010 05fe FFF7FEFF 		bl	setPca9532Pin
 261:main.c        **** 			    setPca9532Pin(6, 1);
 1011              		.loc 1 261 0
 1012 0602 0121     		movs	r1, #1
 1013 0604 0620     		movs	r0, #6
 1014 0606 FFF7FEFF 		bl	setPca9532Pin
 262:main.c        **** 			    setPca9532Pin(7, 1);
 1015              		.loc 1 262 0
 1016 060a 0121     		movs	r1, #1
 1017 060c 0720     		movs	r0, #7
 1018 060e FFF7FEFF 		bl	setPca9532Pin
 263:main.c        **** 			    setPca9532Pin(8, 1);
 1019              		.loc 1 263 0
 1020 0612 0121     		movs	r1, #1
 1021 0614 0820     		movs	r0, #8
 1022 0616 FFF7FEFF 		bl	setPca9532Pin
 264:main.c        **** 			    setPca9532Pin(9, 1);
 1023              		.loc 1 264 0
 1024 061a 0121     		movs	r1, #1
 1025 061c 0920     		movs	r0, #9
 1026 061e FFF7FEFF 		bl	setPca9532Pin
 265:main.c        **** 			    setPca9532Pin(10, 1);
 1027              		.loc 1 265 0
 1028 0622 0121     		movs	r1, #1
 1029 0624 0A20     		movs	r0, #10
 1030 0626 FFF7FEFF 		bl	setPca9532Pin
 266:main.c        **** 			    setPca9532Pin(11, 1);
 1031              		.loc 1 266 0
 1032 062a 0121     		movs	r1, #1
 1033 062c 0B20     		movs	r0, #11
 1034 062e FFF7FEFF 		bl	setPca9532Pin
 267:main.c        **** 			    setPca9532Pin(12, 1);
 1035              		.loc 1 267 0
 1036 0632 0121     		movs	r1, #1
 1037 0634 0C20     		movs	r0, #12
ARM GAS  C:\Users\embedded\AppData\Local\Temp\ccZ0blxh.s 			page 24


 1038 0636 FFF7FEFF 		bl	setPca9532Pin
 268:main.c        **** 			    setPca9532Pin(13, 1);
 1039              		.loc 1 268 0
 1040 063a 0121     		movs	r1, #1
 1041 063c 0D20     		movs	r0, #13
 1042 063e FFF7FEFF 		bl	setPca9532Pin
 269:main.c        **** 			    setPca9532Pin(14, 1);
 1043              		.loc 1 269 0
 1044 0642 0121     		movs	r1, #1
 1045 0644 0E20     		movs	r0, #14
 1046 0646 FFF7FEFF 		bl	setPca9532Pin
 270:main.c        **** 			    setPca9532Pin(15, 1);
 1047              		.loc 1 270 0
 1048 064a 0121     		movs	r1, #1
 1049 064c 0F20     		movs	r0, #15
 1050 064e FFF7FEFF 		bl	setPca9532Pin
 271:main.c        **** 		      keys = ~getPca9532Pin();
 1051              		.loc 1 271 0
 1052 0652 FFF7FEFF 		bl	getPca9532Pin
 1053 0656 0300     		movs	r3, r0
 1054 0658 1B04     		lsls	r3, r3, #16
 1055 065a 1A0C     		lsrs	r2, r3, #16
 1056 065c 9623     		movs	r3, #150
 1057 065e FB18     		adds	r3, r7, r3
 1058 0660 D243     		mvns	r2, r2
 1059 0662 1A80     		strh	r2, [r3]
 1060              	.L23:
 1061              	.LBE6:
 272:main.c        **** 			  }
 273:main.c        **** 			  lcdGotoxy(0, 0);
 1062              		.loc 1 273 0
 1063 0664 0021     		movs	r1, #0
 1064 0666 0020     		movs	r0, #0
 1065 0668 FFF7FEFF 		bl	lcdGotoxy
 274:main.c        **** 				//messagePointer = strcpy(messageHolder, "Pomiar \temperatury: \n");
 275:main.c        **** 				lcdGotoxy(0, 30);
 1066              		.loc 1 275 0
 1067 066c 1E21     		movs	r1, #30
 1068 066e 0020     		movs	r0, #0
 1069 0670 FFF7FEFF 		bl	lcdGotoxy
 276:main.c        **** 				measureTemperature(lm75address, readTemperature);
 1070              		.loc 1 276 0
 1071 0674 3A1D     		adds	r2, r7, #4
 1072 0676 9423     		movs	r3, #148
 1073 0678 FB18     		adds	r3, r7, r3
 1074 067a 1B78     		ldrb	r3, [r3]
 1075 067c 1100     		movs	r1, r2
 1076 067e 1800     		movs	r0, r3
 1077 0680 FFF7FEFF 		bl	measureTemperature
 277:main.c        **** 				lcdGotoxy(0, 0);
 1078              		.loc 1 277 0
 1079 0684 0021     		movs	r1, #0
 1080 0686 0020     		movs	r0, #0
 1081 0688 FFF7FEFF 		bl	lcdGotoxy
 278:main.c        **** 				lcdPuts("Pomiar\ntemperatury: ");
 1082              		.loc 1 278 0
 1083 068c 0A4B     		ldr	r3, .L43+16
ARM GAS  C:\Users\embedded\AppData\Local\Temp\ccZ0blxh.s 			page 25


 1084 068e 1800     		movs	r0, r3
 1085 0690 FFF7FEFF 		bl	lcdPuts
 279:main.c        **** 				lcdGotoxy(0, 30);
 1086              		.loc 1 279 0
 1087 0694 1E21     		movs	r1, #30
 1088 0696 0020     		movs	r0, #0
 1089 0698 FFF7FEFF 		bl	lcdGotoxy
 280:main.c        **** 				calculateTemperatureValue(readTemperature);
 1090              		.loc 1 280 0
 1091 069c 3B1D     		adds	r3, r7, #4
 1092 069e 1800     		movs	r0, r3
 1093 06a0 FFF7FEFF 		bl	calculateTemperatureValue
 1094              	.LBE5:
 172:main.c        **** 		showTime(RTC_SEC, RTC_MIN,RTC_HOUR);
 1095              		.loc 1 172 0
 1096 06a4 C6E5     		b	.L40
 1097              	.L44:
 1098 06a6 C046     		.align	2
 1099              	.L43:
 1100 06a8 284002E0 		.word	-536723416
 1101 06ac 244002E0 		.word	-536723420
 1102 06b0 204002E0 		.word	-536723424
 1103 06b4 08000000 		.word	.LC4
 1104 06b8 14000000 		.word	.LC6
 1105              		.cfi_endproc
 1106              	.LFE4:
 1107              		.size	main, .-main
 1108              	.Letext0:
 1109              		.file 2 "general.h"
 1110              		.file 3 "c:\\embedded\\tools\\arm-none-eabi\\include\\sys\\lock.h"
 1111              		.file 4 "c:\\embedded\\tools\\arm-none-eabi\\include\\sys\\_types.h"
 1112              		.file 5 "c:\\embedded\\tools\\lib\\gcc\\arm-none-eabi\\7.3.1\\include\\stddef.h"
 1113              		.file 6 "c:\\embedded\\tools\\arm-none-eabi\\include\\sys\\reent.h"
 1114              		.file 7 "c:\\embedded\\tools\\arm-none-eabi\\include\\math.h"
 1115              		.section	.debug_info,"",%progbits
 1116              	.Ldebug_info0:
 1117 0000 D40D0000 		.4byte	0xdd4
 1118 0004 0200     		.2byte	0x2
 1119 0006 00000000 		.4byte	.Ldebug_abbrev0
 1120 000a 04       		.byte	0x4
 1121 000b 01       		.uleb128 0x1
 1122 000c 71030000 		.4byte	.LASF153
 1123 0010 0C       		.byte	0xc
 1124 0011 AE020000 		.4byte	.LASF154
 1125 0015 3D030000 		.4byte	.LASF155
 1126 0019 00000000 		.4byte	.Ltext0
 1127 001d BC060000 		.4byte	.Letext0
 1128 0021 00000000 		.4byte	.Ldebug_line0
 1129 0025 02       		.uleb128 0x2
 1130 0026 74553800 		.ascii	"tU8\000"
 1131 002a 02       		.byte	0x2
 1132 002b 18       		.byte	0x18
 1133 002c 30000000 		.4byte	0x30
 1134 0030 03       		.uleb128 0x3
 1135 0031 01       		.byte	0x1
 1136 0032 08       		.byte	0x8
 1137 0033 1A040000 		.4byte	.LASF1
ARM GAS  C:\Users\embedded\AppData\Local\Temp\ccZ0blxh.s 			page 26


 1138 0037 04       		.uleb128 0x4
 1139 0038 21010000 		.4byte	.LASF0
 1140 003c 02       		.byte	0x2
 1141 003d 19       		.byte	0x19
 1142 003e 42000000 		.4byte	0x42
 1143 0042 03       		.uleb128 0x3
 1144 0043 02       		.byte	0x2
 1145 0044 07       		.byte	0x7
 1146 0045 57020000 		.4byte	.LASF2
 1147 0049 04       		.uleb128 0x4
 1148 004a C9020000 		.4byte	.LASF3
 1149 004e 02       		.byte	0x2
 1150 004f 1A       		.byte	0x1a
 1151 0050 54000000 		.4byte	0x54
 1152 0054 03       		.uleb128 0x3
 1153 0055 04       		.byte	0x4
 1154 0056 07       		.byte	0x7
 1155 0057 F1010000 		.4byte	.LASF4
 1156 005b 03       		.uleb128 0x3
 1157 005c 08       		.byte	0x8
 1158 005d 07       		.byte	0x7
 1159 005e 6D000000 		.4byte	.LASF5
 1160 0062 03       		.uleb128 0x3
 1161 0063 01       		.byte	0x1
 1162 0064 06       		.byte	0x6
 1163 0065 DC000000 		.4byte	.LASF6
 1164 0069 03       		.uleb128 0x3
 1165 006a 02       		.byte	0x2
 1166 006b 05       		.byte	0x5
 1167 006c 36040000 		.4byte	.LASF7
 1168 0070 05       		.uleb128 0x5
 1169 0071 04       		.byte	0x4
 1170 0072 05       		.byte	0x5
 1171 0073 696E7400 		.ascii	"int\000"
 1172 0077 03       		.uleb128 0x3
 1173 0078 08       		.byte	0x8
 1174 0079 05       		.byte	0x5
 1175 007a CE000000 		.4byte	.LASF8
 1176 007e 06       		.uleb128 0x6
 1177 007f 07       		.byte	0x7
 1178 0080 01       		.byte	0x1
 1179 0081 30000000 		.4byte	0x30
 1180 0085 02       		.byte	0x2
 1181 0086 20       		.byte	0x20
 1182 0087 98000000 		.4byte	0x98
 1183 008b 07       		.uleb128 0x7
 1184 008c 6B030000 		.4byte	.LASF9
 1185 0090 00       		.byte	0
 1186 0091 07       		.uleb128 0x7
 1187 0092 CC040000 		.4byte	.LASF10
 1188 0096 01       		.byte	0x1
 1189 0097 00       		.byte	0
 1190 0098 03       		.uleb128 0x3
 1191 0099 04       		.byte	0x4
 1192 009a 05       		.byte	0x5
 1193 009b 26010000 		.4byte	.LASF11
 1194 009f 03       		.uleb128 0x3
ARM GAS  C:\Users\embedded\AppData\Local\Temp\ccZ0blxh.s 			page 27


 1195 00a0 04       		.byte	0x4
 1196 00a1 07       		.byte	0x7
 1197 00a2 2A020000 		.4byte	.LASF12
 1198 00a6 03       		.uleb128 0x3
 1199 00a7 08       		.byte	0x8
 1200 00a8 04       		.byte	0x4
 1201 00a9 FD020000 		.4byte	.LASF13
 1202 00ad 08       		.uleb128 0x8
 1203 00ae 04       		.byte	0x4
 1204 00af 04       		.uleb128 0x4
 1205 00b0 A6020000 		.4byte	.LASF14
 1206 00b4 03       		.byte	0x3
 1207 00b5 22       		.byte	0x22
 1208 00b6 BA000000 		.4byte	0xba
 1209 00ba 09       		.uleb128 0x9
 1210 00bb 04       		.byte	0x4
 1211 00bc C0000000 		.4byte	0xc0
 1212 00c0 0A       		.uleb128 0xa
 1213 00c1 E6040000 		.4byte	.LASF121
 1214 00c5 01       		.byte	0x1
 1215 00c6 04       		.uleb128 0x4
 1216 00c7 31030000 		.4byte	.LASF15
 1217 00cb 04       		.byte	0x4
 1218 00cc 2C       		.byte	0x2c
 1219 00cd 98000000 		.4byte	0x98
 1220 00d1 04       		.uleb128 0x4
 1221 00d2 07050000 		.4byte	.LASF16
 1222 00d6 04       		.byte	0x4
 1223 00d7 72       		.byte	0x72
 1224 00d8 98000000 		.4byte	0x98
 1225 00dc 0B       		.uleb128 0xb
 1226 00dd B5020000 		.4byte	.LASF17
 1227 00e1 05       		.byte	0x5
 1228 00e2 6501     		.2byte	0x165
 1229 00e4 54000000 		.4byte	0x54
 1230 00e8 0C       		.uleb128 0xc
 1231 00e9 04       		.byte	0x4
 1232 00ea 04       		.byte	0x4
 1233 00eb A6       		.byte	0xa6
 1234 00ec 07010000 		.4byte	0x107
 1235 00f0 0D       		.uleb128 0xd
 1236 00f1 A0020000 		.4byte	.LASF18
 1237 00f5 04       		.byte	0x4
 1238 00f6 A8       		.byte	0xa8
 1239 00f7 DC000000 		.4byte	0xdc
 1240 00fb 0D       		.uleb128 0xd
 1241 00fc FE010000 		.4byte	.LASF19
 1242 0100 04       		.byte	0x4
 1243 0101 A9       		.byte	0xa9
 1244 0102 07010000 		.4byte	0x107
 1245 0106 00       		.byte	0
 1246 0107 0E       		.uleb128 0xe
 1247 0108 30000000 		.4byte	0x30
 1248 010c 17010000 		.4byte	0x117
 1249 0110 0F       		.uleb128 0xf
 1250 0111 54000000 		.4byte	0x54
 1251 0115 03       		.byte	0x3
ARM GAS  C:\Users\embedded\AppData\Local\Temp\ccZ0blxh.s 			page 28


 1252 0116 00       		.byte	0
 1253 0117 10       		.uleb128 0x10
 1254 0118 08       		.byte	0x8
 1255 0119 04       		.byte	0x4
 1256 011a A3       		.byte	0xa3
 1257 011b 3C010000 		.4byte	0x13c
 1258 011f 11       		.uleb128 0x11
 1259 0120 DE040000 		.4byte	.LASF20
 1260 0124 04       		.byte	0x4
 1261 0125 A5       		.byte	0xa5
 1262 0126 70000000 		.4byte	0x70
 1263 012a 02       		.byte	0x2
 1264 012b 23       		.byte	0x23
 1265 012c 00       		.uleb128 0
 1266 012d 11       		.uleb128 0x11
 1267 012e ED040000 		.4byte	.LASF21
 1268 0132 04       		.byte	0x4
 1269 0133 AA       		.byte	0xaa
 1270 0134 E8000000 		.4byte	0xe8
 1271 0138 02       		.byte	0x2
 1272 0139 23       		.byte	0x23
 1273 013a 04       		.uleb128 0x4
 1274 013b 00       		.byte	0
 1275 013c 04       		.uleb128 0x4
 1276 013d 6A040000 		.4byte	.LASF22
 1277 0141 04       		.byte	0x4
 1278 0142 AB       		.byte	0xab
 1279 0143 17010000 		.4byte	0x117
 1280 0147 04       		.uleb128 0x4
 1281 0148 B4010000 		.4byte	.LASF23
 1282 014c 04       		.byte	0x4
 1283 014d AF       		.byte	0xaf
 1284 014e AF000000 		.4byte	0xaf
 1285 0152 04       		.uleb128 0x4
 1286 0153 73050000 		.4byte	.LASF24
 1287 0157 06       		.byte	0x6
 1288 0158 16       		.byte	0x16
 1289 0159 9F000000 		.4byte	0x9f
 1290 015d 12       		.uleb128 0x12
 1291 015e C5010000 		.4byte	.LASF29
 1292 0162 18       		.byte	0x18
 1293 0163 06       		.byte	0x6
 1294 0164 2F       		.byte	0x2f
 1295 0165 BC010000 		.4byte	0x1bc
 1296 0169 11       		.uleb128 0x11
 1297 016a 30050000 		.4byte	.LASF25
 1298 016e 06       		.byte	0x6
 1299 016f 31       		.byte	0x31
 1300 0170 BC010000 		.4byte	0x1bc
 1301 0174 02       		.byte	0x2
 1302 0175 23       		.byte	0x23
 1303 0176 00       		.uleb128 0
 1304 0177 13       		.uleb128 0x13
 1305 0178 5F6B00   		.ascii	"_k\000"
 1306 017b 06       		.byte	0x6
 1307 017c 32       		.byte	0x32
 1308 017d 70000000 		.4byte	0x70
ARM GAS  C:\Users\embedded\AppData\Local\Temp\ccZ0blxh.s 			page 29


 1309 0181 02       		.byte	0x2
 1310 0182 23       		.byte	0x23
 1311 0183 04       		.uleb128 0x4
 1312 0184 11       		.uleb128 0x11
 1313 0185 4C050000 		.4byte	.LASF26
 1314 0189 06       		.byte	0x6
 1315 018a 32       		.byte	0x32
 1316 018b 70000000 		.4byte	0x70
 1317 018f 02       		.byte	0x2
 1318 0190 23       		.byte	0x23
 1319 0191 08       		.uleb128 0x8
 1320 0192 11       		.uleb128 0x11
 1321 0193 AE010000 		.4byte	.LASF27
 1322 0197 06       		.byte	0x6
 1323 0198 32       		.byte	0x32
 1324 0199 70000000 		.4byte	0x70
 1325 019d 02       		.byte	0x2
 1326 019e 23       		.byte	0x23
 1327 019f 0C       		.uleb128 0xc
 1328 01a0 11       		.uleb128 0x11
 1329 01a1 CD050000 		.4byte	.LASF28
 1330 01a5 06       		.byte	0x6
 1331 01a6 32       		.byte	0x32
 1332 01a7 70000000 		.4byte	0x70
 1333 01ab 02       		.byte	0x2
 1334 01ac 23       		.byte	0x23
 1335 01ad 10       		.uleb128 0x10
 1336 01ae 13       		.uleb128 0x13
 1337 01af 5F7800   		.ascii	"_x\000"
 1338 01b2 06       		.byte	0x6
 1339 01b3 33       		.byte	0x33
 1340 01b4 C2010000 		.4byte	0x1c2
 1341 01b8 02       		.byte	0x2
 1342 01b9 23       		.byte	0x23
 1343 01ba 14       		.uleb128 0x14
 1344 01bb 00       		.byte	0
 1345 01bc 09       		.uleb128 0x9
 1346 01bd 04       		.byte	0x4
 1347 01be 5D010000 		.4byte	0x15d
 1348 01c2 0E       		.uleb128 0xe
 1349 01c3 52010000 		.4byte	0x152
 1350 01c7 D2010000 		.4byte	0x1d2
 1351 01cb 0F       		.uleb128 0xf
 1352 01cc 54000000 		.4byte	0x54
 1353 01d0 00       		.byte	0
 1354 01d1 00       		.byte	0
 1355 01d2 12       		.uleb128 0x12
 1356 01d3 EC010000 		.4byte	.LASF30
 1357 01d7 24       		.byte	0x24
 1358 01d8 06       		.byte	0x6
 1359 01d9 37       		.byte	0x37
 1360 01da 5D020000 		.4byte	0x25d
 1361 01de 11       		.uleb128 0x11
 1362 01df C5000000 		.4byte	.LASF31
 1363 01e3 06       		.byte	0x6
 1364 01e4 39       		.byte	0x39
 1365 01e5 70000000 		.4byte	0x70
ARM GAS  C:\Users\embedded\AppData\Local\Temp\ccZ0blxh.s 			page 30


 1366 01e9 02       		.byte	0x2
 1367 01ea 23       		.byte	0x23
 1368 01eb 00       		.uleb128 0
 1369 01ec 11       		.uleb128 0x11
 1370 01ed 21050000 		.4byte	.LASF32
 1371 01f1 06       		.byte	0x6
 1372 01f2 3A       		.byte	0x3a
 1373 01f3 70000000 		.4byte	0x70
 1374 01f7 02       		.byte	0x2
 1375 01f8 23       		.byte	0x23
 1376 01f9 04       		.uleb128 0x4
 1377 01fa 11       		.uleb128 0x11
 1378 01fb F4000000 		.4byte	.LASF33
 1379 01ff 06       		.byte	0x6
 1380 0200 3B       		.byte	0x3b
 1381 0201 70000000 		.4byte	0x70
 1382 0205 02       		.byte	0x2
 1383 0206 23       		.byte	0x23
 1384 0207 08       		.uleb128 0x8
 1385 0208 11       		.uleb128 0x11
 1386 0209 76060000 		.4byte	.LASF34
 1387 020d 06       		.byte	0x6
 1388 020e 3C       		.byte	0x3c
 1389 020f 70000000 		.4byte	0x70
 1390 0213 02       		.byte	0x2
 1391 0214 23       		.byte	0x23
 1392 0215 0C       		.uleb128 0xc
 1393 0216 11       		.uleb128 0x11
 1394 0217 15030000 		.4byte	.LASF35
 1395 021b 06       		.byte	0x6
 1396 021c 3D       		.byte	0x3d
 1397 021d 70000000 		.4byte	0x70
 1398 0221 02       		.byte	0x2
 1399 0222 23       		.byte	0x23
 1400 0223 10       		.uleb128 0x10
 1401 0224 11       		.uleb128 0x11
 1402 0225 E3020000 		.4byte	.LASF36
 1403 0229 06       		.byte	0x6
 1404 022a 3E       		.byte	0x3e
 1405 022b 70000000 		.4byte	0x70
 1406 022f 02       		.byte	0x2
 1407 0230 23       		.byte	0x23
 1408 0231 14       		.uleb128 0x14
 1409 0232 11       		.uleb128 0x11
 1410 0233 D2050000 		.4byte	.LASF37
 1411 0237 06       		.byte	0x6
 1412 0238 3F       		.byte	0x3f
 1413 0239 70000000 		.4byte	0x70
 1414 023d 02       		.byte	0x2
 1415 023e 23       		.byte	0x23
 1416 023f 18       		.uleb128 0x18
 1417 0240 11       		.uleb128 0x11
 1418 0241 40040000 		.4byte	.LASF38
 1419 0245 06       		.byte	0x6
 1420 0246 40       		.byte	0x40
 1421 0247 70000000 		.4byte	0x70
 1422 024b 02       		.byte	0x2
ARM GAS  C:\Users\embedded\AppData\Local\Temp\ccZ0blxh.s 			page 31


 1423 024c 23       		.byte	0x23
 1424 024d 1C       		.uleb128 0x1c
 1425 024e 11       		.uleb128 0x11
 1426 024f 23060000 		.4byte	.LASF39
 1427 0253 06       		.byte	0x6
 1428 0254 41       		.byte	0x41
 1429 0255 70000000 		.4byte	0x70
 1430 0259 02       		.byte	0x2
 1431 025a 23       		.byte	0x23
 1432 025b 20       		.uleb128 0x20
 1433 025c 00       		.byte	0
 1434 025d 14       		.uleb128 0x14
 1435 025e 03010000 		.4byte	.LASF40
 1436 0262 0801     		.2byte	0x108
 1437 0264 06       		.byte	0x6
 1438 0265 4A       		.byte	0x4a
 1439 0266 A6020000 		.4byte	0x2a6
 1440 026a 11       		.uleb128 0x11
 1441 026b A1010000 		.4byte	.LASF41
 1442 026f 06       		.byte	0x6
 1443 0270 4B       		.byte	0x4b
 1444 0271 A6020000 		.4byte	0x2a6
 1445 0275 02       		.byte	0x2
 1446 0276 23       		.byte	0x23
 1447 0277 00       		.uleb128 0
 1448 0278 11       		.uleb128 0x11
 1449 0279 00000000 		.4byte	.LASF42
 1450 027d 06       		.byte	0x6
 1451 027e 4C       		.byte	0x4c
 1452 027f A6020000 		.4byte	0x2a6
 1453 0283 03       		.byte	0x3
 1454 0284 23       		.byte	0x23
 1455 0285 8001     		.uleb128 0x80
 1456 0287 11       		.uleb128 0x11
 1457 0288 43050000 		.4byte	.LASF43
 1458 028c 06       		.byte	0x6
 1459 028d 4E       		.byte	0x4e
 1460 028e 52010000 		.4byte	0x152
 1461 0292 03       		.byte	0x3
 1462 0293 23       		.byte	0x23
 1463 0294 8002     		.uleb128 0x100
 1464 0296 11       		.uleb128 0x11
 1465 0297 36010000 		.4byte	.LASF44
 1466 029b 06       		.byte	0x6
 1467 029c 51       		.byte	0x51
 1468 029d 52010000 		.4byte	0x152
 1469 02a1 03       		.byte	0x3
 1470 02a2 23       		.byte	0x23
 1471 02a3 8402     		.uleb128 0x104
 1472 02a5 00       		.byte	0
 1473 02a6 0E       		.uleb128 0xe
 1474 02a7 AD000000 		.4byte	0xad
 1475 02ab B6020000 		.4byte	0x2b6
 1476 02af 0F       		.uleb128 0xf
 1477 02b0 54000000 		.4byte	0x54
 1478 02b4 1F       		.byte	0x1f
 1479 02b5 00       		.byte	0
ARM GAS  C:\Users\embedded\AppData\Local\Temp\ccZ0blxh.s 			page 32


 1480 02b6 14       		.uleb128 0x14
 1481 02b7 1E030000 		.4byte	.LASF45
 1482 02bb 9001     		.2byte	0x190
 1483 02bd 06       		.byte	0x6
 1484 02be 5D       		.byte	0x5d
 1485 02bf FD020000 		.4byte	0x2fd
 1486 02c3 11       		.uleb128 0x11
 1487 02c4 30050000 		.4byte	.LASF25
 1488 02c8 06       		.byte	0x6
 1489 02c9 5E       		.byte	0x5e
 1490 02ca FD020000 		.4byte	0x2fd
 1491 02ce 02       		.byte	0x2
 1492 02cf 23       		.byte	0x23
 1493 02d0 00       		.uleb128 0
 1494 02d1 11       		.uleb128 0x11
 1495 02d2 9C040000 		.4byte	.LASF46
 1496 02d6 06       		.byte	0x6
 1497 02d7 5F       		.byte	0x5f
 1498 02d8 70000000 		.4byte	0x70
 1499 02dc 02       		.byte	0x2
 1500 02dd 23       		.byte	0x23
 1501 02de 04       		.uleb128 0x4
 1502 02df 11       		.uleb128 0x11
 1503 02e0 A9010000 		.4byte	.LASF47
 1504 02e4 06       		.byte	0x6
 1505 02e5 61       		.byte	0x61
 1506 02e6 03030000 		.4byte	0x303
 1507 02ea 02       		.byte	0x2
 1508 02eb 23       		.byte	0x23
 1509 02ec 08       		.uleb128 0x8
 1510 02ed 11       		.uleb128 0x11
 1511 02ee 03010000 		.4byte	.LASF40
 1512 02f2 06       		.byte	0x6
 1513 02f3 62       		.byte	0x62
 1514 02f4 5D020000 		.4byte	0x25d
 1515 02f8 03       		.byte	0x3
 1516 02f9 23       		.byte	0x23
 1517 02fa 8801     		.uleb128 0x88
 1518 02fc 00       		.byte	0
 1519 02fd 09       		.uleb128 0x9
 1520 02fe 04       		.byte	0x4
 1521 02ff B6020000 		.4byte	0x2b6
 1522 0303 0E       		.uleb128 0xe
 1523 0304 13030000 		.4byte	0x313
 1524 0308 13030000 		.4byte	0x313
 1525 030c 0F       		.uleb128 0xf
 1526 030d 54000000 		.4byte	0x54
 1527 0311 1F       		.byte	0x1f
 1528 0312 00       		.byte	0
 1529 0313 09       		.uleb128 0x9
 1530 0314 04       		.byte	0x4
 1531 0315 19030000 		.4byte	0x319
 1532 0319 15       		.uleb128 0x15
 1533 031a 01       		.byte	0x1
 1534 031b 12       		.uleb128 0x12
 1535 031c 4A040000 		.4byte	.LASF48
 1536 0320 08       		.byte	0x8
ARM GAS  C:\Users\embedded\AppData\Local\Temp\ccZ0blxh.s 			page 33


 1537 0321 06       		.byte	0x6
 1538 0322 75       		.byte	0x75
 1539 0323 44030000 		.4byte	0x344
 1540 0327 11       		.uleb128 0x11
 1541 0328 EE000000 		.4byte	.LASF49
 1542 032c 06       		.byte	0x6
 1543 032d 76       		.byte	0x76
 1544 032e 44030000 		.4byte	0x344
 1545 0332 02       		.byte	0x2
 1546 0333 23       		.byte	0x23
 1547 0334 00       		.uleb128 0
 1548 0335 11       		.uleb128 0x11
 1549 0336 1B000000 		.4byte	.LASF50
 1550 033a 06       		.byte	0x6
 1551 033b 77       		.byte	0x77
 1552 033c 70000000 		.4byte	0x70
 1553 0340 02       		.byte	0x2
 1554 0341 23       		.byte	0x23
 1555 0342 04       		.uleb128 0x4
 1556 0343 00       		.byte	0
 1557 0344 09       		.uleb128 0x9
 1558 0345 04       		.byte	0x4
 1559 0346 30000000 		.4byte	0x30
 1560 034a 12       		.uleb128 0x12
 1561 034b 75040000 		.4byte	.LASF51
 1562 034f 68       		.byte	0x68
 1563 0350 06       		.byte	0x6
 1564 0351 B5       		.byte	0xb5
 1565 0352 A4040000 		.4byte	0x4a4
 1566 0356 13       		.uleb128 0x13
 1567 0357 5F7000   		.ascii	"_p\000"
 1568 035a 06       		.byte	0x6
 1569 035b B6       		.byte	0xb6
 1570 035c 44030000 		.4byte	0x344
 1571 0360 02       		.byte	0x2
 1572 0361 23       		.byte	0x23
 1573 0362 00       		.uleb128 0
 1574 0363 13       		.uleb128 0x13
 1575 0364 5F7200   		.ascii	"_r\000"
 1576 0367 06       		.byte	0x6
 1577 0368 B7       		.byte	0xb7
 1578 0369 70000000 		.4byte	0x70
 1579 036d 02       		.byte	0x2
 1580 036e 23       		.byte	0x23
 1581 036f 04       		.uleb128 0x4
 1582 0370 13       		.uleb128 0x13
 1583 0371 5F7700   		.ascii	"_w\000"
 1584 0374 06       		.byte	0x6
 1585 0375 B8       		.byte	0xb8
 1586 0376 70000000 		.4byte	0x70
 1587 037a 02       		.byte	0x2
 1588 037b 23       		.byte	0x23
 1589 037c 08       		.uleb128 0x8
 1590 037d 11       		.uleb128 0x11
 1591 037e 2F010000 		.4byte	.LASF52
 1592 0382 06       		.byte	0x6
 1593 0383 B9       		.byte	0xb9
ARM GAS  C:\Users\embedded\AppData\Local\Temp\ccZ0blxh.s 			page 34


 1594 0384 69000000 		.4byte	0x69
 1595 0388 02       		.byte	0x2
 1596 0389 23       		.byte	0x23
 1597 038a 0C       		.uleb128 0xc
 1598 038b 11       		.uleb128 0x11
 1599 038c 4A020000 		.4byte	.LASF53
 1600 0390 06       		.byte	0x6
 1601 0391 BA       		.byte	0xba
 1602 0392 69000000 		.4byte	0x69
 1603 0396 02       		.byte	0x2
 1604 0397 23       		.byte	0x23
 1605 0398 0E       		.uleb128 0xe
 1606 0399 13       		.uleb128 0x13
 1607 039a 5F626600 		.ascii	"_bf\000"
 1608 039e 06       		.byte	0x6
 1609 039f BB       		.byte	0xbb
 1610 03a0 1B030000 		.4byte	0x31b
 1611 03a4 02       		.byte	0x2
 1612 03a5 23       		.byte	0x23
 1613 03a6 10       		.uleb128 0x10
 1614 03a7 11       		.uleb128 0x11
 1615 03a8 93000000 		.4byte	.LASF54
 1616 03ac 06       		.byte	0x6
 1617 03ad BC       		.byte	0xbc
 1618 03ae 70000000 		.4byte	0x70
 1619 03b2 02       		.byte	0x2
 1620 03b3 23       		.byte	0x23
 1621 03b4 18       		.uleb128 0x18
 1622 03b5 11       		.uleb128 0x11
 1623 03b6 11010000 		.4byte	.LASF55
 1624 03ba 06       		.byte	0x6
 1625 03bb C3       		.byte	0xc3
 1626 03bc AD000000 		.4byte	0xad
 1627 03c0 02       		.byte	0x2
 1628 03c1 23       		.byte	0x23
 1629 03c2 1C       		.uleb128 0x1c
 1630 03c3 11       		.uleb128 0x11
 1631 03c4 DC010000 		.4byte	.LASF56
 1632 03c8 06       		.byte	0x6
 1633 03c9 C5       		.byte	0xc5
 1634 03ca 3E060000 		.4byte	0x63e
 1635 03ce 02       		.byte	0x2
 1636 03cf 23       		.byte	0x23
 1637 03d0 20       		.uleb128 0x20
 1638 03d1 11       		.uleb128 0x11
 1639 03d2 DC020000 		.4byte	.LASF57
 1640 03d6 06       		.byte	0x6
 1641 03d7 C7       		.byte	0xc7
 1642 03d8 69060000 		.4byte	0x669
 1643 03dc 02       		.byte	0x2
 1644 03dd 23       		.byte	0x23
 1645 03de 24       		.uleb128 0x24
 1646 03df 11       		.uleb128 0x11
 1647 03e0 F5040000 		.4byte	.LASF58
 1648 03e4 06       		.byte	0x6
 1649 03e5 CA       		.byte	0xca
 1650 03e6 8E060000 		.4byte	0x68e
ARM GAS  C:\Users\embedded\AppData\Local\Temp\ccZ0blxh.s 			page 35


 1651 03ea 02       		.byte	0x2
 1652 03eb 23       		.byte	0x23
 1653 03ec 28       		.uleb128 0x28
 1654 03ed 11       		.uleb128 0x11
 1655 03ee 3D060000 		.4byte	.LASF59
 1656 03f2 06       		.byte	0x6
 1657 03f3 CB       		.byte	0xcb
 1658 03f4 A9060000 		.4byte	0x6a9
 1659 03f8 02       		.byte	0x2
 1660 03f9 23       		.byte	0x23
 1661 03fa 2C       		.uleb128 0x2c
 1662 03fb 13       		.uleb128 0x13
 1663 03fc 5F756200 		.ascii	"_ub\000"
 1664 0400 06       		.byte	0x6
 1665 0401 CE       		.byte	0xce
 1666 0402 1B030000 		.4byte	0x31b
 1667 0406 02       		.byte	0x2
 1668 0407 23       		.byte	0x23
 1669 0408 30       		.uleb128 0x30
 1670 0409 13       		.uleb128 0x13
 1671 040a 5F757000 		.ascii	"_up\000"
 1672 040e 06       		.byte	0x6
 1673 040f CF       		.byte	0xcf
 1674 0410 44030000 		.4byte	0x344
 1675 0414 02       		.byte	0x2
 1676 0415 23       		.byte	0x23
 1677 0416 38       		.uleb128 0x38
 1678 0417 13       		.uleb128 0x13
 1679 0418 5F757200 		.ascii	"_ur\000"
 1680 041c 06       		.byte	0x6
 1681 041d D0       		.byte	0xd0
 1682 041e 70000000 		.4byte	0x70
 1683 0422 02       		.byte	0x2
 1684 0423 23       		.byte	0x23
 1685 0424 3C       		.uleb128 0x3c
 1686 0425 11       		.uleb128 0x11
 1687 0426 E8000000 		.4byte	.LASF60
 1688 042a 06       		.byte	0x6
 1689 042b D3       		.byte	0xd3
 1690 042c AF060000 		.4byte	0x6af
 1691 0430 02       		.byte	0x2
 1692 0431 23       		.byte	0x23
 1693 0432 40       		.uleb128 0x40
 1694 0433 11       		.uleb128 0x11
 1695 0434 15060000 		.4byte	.LASF61
 1696 0438 06       		.byte	0x6
 1697 0439 D4       		.byte	0xd4
 1698 043a BF060000 		.4byte	0x6bf
 1699 043e 02       		.byte	0x2
 1700 043f 23       		.byte	0x23
 1701 0440 43       		.uleb128 0x43
 1702 0441 13       		.uleb128 0x13
 1703 0442 5F6C6200 		.ascii	"_lb\000"
 1704 0446 06       		.byte	0x6
 1705 0447 D7       		.byte	0xd7
 1706 0448 1B030000 		.4byte	0x31b
 1707 044c 02       		.byte	0x2
ARM GAS  C:\Users\embedded\AppData\Local\Temp\ccZ0blxh.s 			page 36


 1708 044d 23       		.byte	0x23
 1709 044e 44       		.uleb128 0x44
 1710 044f 11       		.uleb128 0x11
 1711 0450 62010000 		.4byte	.LASF62
 1712 0454 06       		.byte	0x6
 1713 0455 DA       		.byte	0xda
 1714 0456 70000000 		.4byte	0x70
 1715 045a 02       		.byte	0x2
 1716 045b 23       		.byte	0x23
 1717 045c 4C       		.uleb128 0x4c
 1718 045d 11       		.uleb128 0x11
 1719 045e 7A010000 		.4byte	.LASF63
 1720 0462 06       		.byte	0x6
 1721 0463 DB       		.byte	0xdb
 1722 0464 C6000000 		.4byte	0xc6
 1723 0468 02       		.byte	0x2
 1724 0469 23       		.byte	0x23
 1725 046a 50       		.uleb128 0x50
 1726 046b 11       		.uleb128 0x11
 1727 046c 3E000000 		.4byte	.LASF64
 1728 0470 06       		.byte	0x6
 1729 0471 DE       		.byte	0xde
 1730 0472 C3040000 		.4byte	0x4c3
 1731 0476 02       		.byte	0x2
 1732 0477 23       		.byte	0x23
 1733 0478 54       		.uleb128 0x54
 1734 0479 11       		.uleb128 0x11
 1735 047a C3020000 		.4byte	.LASF65
 1736 047e 06       		.byte	0x6
 1737 047f E2       		.byte	0xe2
 1738 0480 47010000 		.4byte	0x147
 1739 0484 02       		.byte	0x2
 1740 0485 23       		.byte	0x23
 1741 0486 58       		.uleb128 0x58
 1742 0487 11       		.uleb128 0x11
 1743 0488 7D040000 		.4byte	.LASF66
 1744 048c 06       		.byte	0x6
 1745 048d E4       		.byte	0xe4
 1746 048e 3C010000 		.4byte	0x13c
 1747 0492 02       		.byte	0x2
 1748 0493 23       		.byte	0x23
 1749 0494 5C       		.uleb128 0x5c
 1750 0495 11       		.uleb128 0x11
 1751 0496 51040000 		.4byte	.LASF67
 1752 049a 06       		.byte	0x6
 1753 049b E5       		.byte	0xe5
 1754 049c 70000000 		.4byte	0x70
 1755 04a0 02       		.byte	0x2
 1756 04a1 23       		.byte	0x23
 1757 04a2 64       		.uleb128 0x64
 1758 04a3 00       		.byte	0
 1759 04a4 16       		.uleb128 0x16
 1760 04a5 01       		.byte	0x1
 1761 04a6 70000000 		.4byte	0x70
 1762 04aa C3040000 		.4byte	0x4c3
 1763 04ae 17       		.uleb128 0x17
 1764 04af C3040000 		.4byte	0x4c3
ARM GAS  C:\Users\embedded\AppData\Local\Temp\ccZ0blxh.s 			page 37


 1765 04b3 17       		.uleb128 0x17
 1766 04b4 AD000000 		.4byte	0xad
 1767 04b8 17       		.uleb128 0x17
 1768 04b9 2C060000 		.4byte	0x62c
 1769 04bd 17       		.uleb128 0x17
 1770 04be 70000000 		.4byte	0x70
 1771 04c2 00       		.byte	0
 1772 04c3 09       		.uleb128 0x9
 1773 04c4 04       		.byte	0x4
 1774 04c5 CE040000 		.4byte	0x4ce
 1775 04c9 18       		.uleb128 0x18
 1776 04ca C3040000 		.4byte	0x4c3
 1777 04ce 19       		.uleb128 0x19
 1778 04cf D1040000 		.4byte	.LASF68
 1779 04d3 2804     		.2byte	0x428
 1780 04d5 06       		.byte	0x6
 1781 04d6 6002     		.2byte	0x260
 1782 04d8 2C060000 		.4byte	0x62c
 1783 04dc 1A       		.uleb128 0x1a
 1784 04dd 15050000 		.4byte	.LASF69
 1785 04e1 06       		.byte	0x6
 1786 04e2 6202     		.2byte	0x262
 1787 04e4 70000000 		.4byte	0x70
 1788 04e8 02       		.byte	0x2
 1789 04e9 23       		.byte	0x23
 1790 04ea 00       		.uleb128 0
 1791 04eb 1A       		.uleb128 0x1a
 1792 04ec 3E010000 		.4byte	.LASF70
 1793 04f0 06       		.byte	0x6
 1794 04f1 6702     		.2byte	0x267
 1795 04f3 1C070000 		.4byte	0x71c
 1796 04f7 02       		.byte	0x2
 1797 04f8 23       		.byte	0x23
 1798 04f9 04       		.uleb128 0x4
 1799 04fa 1A       		.uleb128 0x1a
 1800 04fb 11020000 		.4byte	.LASF71
 1801 04ff 06       		.byte	0x6
 1802 0500 6702     		.2byte	0x267
 1803 0502 1C070000 		.4byte	0x71c
 1804 0506 02       		.byte	0x2
 1805 0507 23       		.byte	0x23
 1806 0508 08       		.uleb128 0x8
 1807 0509 1A       		.uleb128 0x1a
 1808 050a BD010000 		.4byte	.LASF72
 1809 050e 06       		.byte	0x6
 1810 050f 6702     		.2byte	0x267
 1811 0511 1C070000 		.4byte	0x71c
 1812 0515 02       		.byte	0x2
 1813 0516 23       		.byte	0x23
 1814 0517 0C       		.uleb128 0xc
 1815 0518 1A       		.uleb128 0x1a
 1816 0519 97040000 		.4byte	.LASF73
 1817 051d 06       		.byte	0x6
 1818 051e 6902     		.2byte	0x269
 1819 0520 70000000 		.4byte	0x70
 1820 0524 02       		.byte	0x2
 1821 0525 23       		.byte	0x23
ARM GAS  C:\Users\embedded\AppData\Local\Temp\ccZ0blxh.s 			page 38


 1822 0526 10       		.uleb128 0x10
 1823 0527 1A       		.uleb128 0x1a
 1824 0528 29000000 		.4byte	.LASF74
 1825 052c 06       		.byte	0x6
 1826 052d 6A02     		.2byte	0x26a
 1827 052f 37090000 		.4byte	0x937
 1828 0533 02       		.byte	0x2
 1829 0534 23       		.byte	0x23
 1830 0535 14       		.uleb128 0x14
 1831 0536 1A       		.uleb128 0x1a
 1832 0537 B3040000 		.4byte	.LASF75
 1833 053b 06       		.byte	0x6
 1834 053c 6D02     		.2byte	0x26d
 1835 053e 70000000 		.4byte	0x70
 1836 0542 02       		.byte	0x2
 1837 0543 23       		.byte	0x23
 1838 0544 30       		.uleb128 0x30
 1839 0545 1A       		.uleb128 0x1a
 1840 0546 A1040000 		.4byte	.LASF76
 1841 054a 06       		.byte	0x6
 1842 054b 6E02     		.2byte	0x26e
 1843 054d 4D090000 		.4byte	0x94d
 1844 0551 02       		.byte	0x2
 1845 0552 23       		.byte	0x23
 1846 0553 34       		.uleb128 0x34
 1847 0554 1A       		.uleb128 0x1a
 1848 0555 26030000 		.4byte	.LASF77
 1849 0559 06       		.byte	0x6
 1850 055a 7002     		.2byte	0x270
 1851 055c 70000000 		.4byte	0x70
 1852 0560 02       		.byte	0x2
 1853 0561 23       		.byte	0x23
 1854 0562 38       		.uleb128 0x38
 1855 0563 1A       		.uleb128 0x1a
 1856 0564 A9040000 		.4byte	.LASF78
 1857 0568 06       		.byte	0x6
 1858 0569 7202     		.2byte	0x272
 1859 056b 5F090000 		.4byte	0x95f
 1860 056f 02       		.byte	0x2
 1861 0570 23       		.byte	0x23
 1862 0571 3C       		.uleb128 0x3c
 1863 0572 1A       		.uleb128 0x1a
 1864 0573 98020000 		.4byte	.LASF79
 1865 0577 06       		.byte	0x6
 1866 0578 7502     		.2byte	0x275
 1867 057a BC010000 		.4byte	0x1bc
 1868 057e 02       		.byte	0x2
 1869 057f 23       		.byte	0x23
 1870 0580 40       		.uleb128 0x40
 1871 0581 1A       		.uleb128 0x1a
 1872 0582 E2010000 		.4byte	.LASF80
 1873 0586 06       		.byte	0x6
 1874 0587 7602     		.2byte	0x276
 1875 0589 70000000 		.4byte	0x70
 1876 058d 02       		.byte	0x2
 1877 058e 23       		.byte	0x23
 1878 058f 44       		.uleb128 0x44
ARM GAS  C:\Users\embedded\AppData\Local\Temp\ccZ0blxh.s 			page 39


 1879 0590 1A       		.uleb128 0x1a
 1880 0591 6C060000 		.4byte	.LASF81
 1881 0595 06       		.byte	0x6
 1882 0596 7702     		.2byte	0x277
 1883 0598 BC010000 		.4byte	0x1bc
 1884 059c 02       		.byte	0x2
 1885 059d 23       		.byte	0x23
 1886 059e 48       		.uleb128 0x48
 1887 059f 1A       		.uleb128 0x1a
 1888 05a0 59040000 		.4byte	.LASF82
 1889 05a4 06       		.byte	0x6
 1890 05a5 7802     		.2byte	0x278
 1891 05a7 65090000 		.4byte	0x965
 1892 05ab 02       		.byte	0x2
 1893 05ac 23       		.byte	0x23
 1894 05ad 4C       		.uleb128 0x4c
 1895 05ae 1A       		.uleb128 0x1a
 1896 05af 19020000 		.4byte	.LASF83
 1897 05b3 06       		.byte	0x6
 1898 05b4 7B02     		.2byte	0x27b
 1899 05b6 70000000 		.4byte	0x70
 1900 05ba 02       		.byte	0x2
 1901 05bb 23       		.byte	0x23
 1902 05bc 50       		.uleb128 0x50
 1903 05bd 1A       		.uleb128 0x1a
 1904 05be 72010000 		.4byte	.LASF84
 1905 05c2 06       		.byte	0x6
 1906 05c3 7C02     		.2byte	0x27c
 1907 05c5 2C060000 		.4byte	0x62c
 1908 05c9 02       		.byte	0x2
 1909 05ca 23       		.byte	0x23
 1910 05cb 54       		.uleb128 0x54
 1911 05cc 1A       		.uleb128 0x1a
 1912 05cd 28040000 		.4byte	.LASF85
 1913 05d1 06       		.byte	0x6
 1914 05d2 9F02     		.2byte	0x29f
 1915 05d4 15090000 		.4byte	0x915
 1916 05d8 02       		.byte	0x2
 1917 05d9 23       		.byte	0x23
 1918 05da 58       		.uleb128 0x58
 1919 05db 1A       		.uleb128 0x1a
 1920 05dc 1E030000 		.4byte	.LASF45
 1921 05e0 06       		.byte	0x6
 1922 05e1 A302     		.2byte	0x2a3
 1923 05e3 FD020000 		.4byte	0x2fd
 1924 05e7 03       		.byte	0x3
 1925 05e8 23       		.byte	0x23
 1926 05e9 C802     		.uleb128 0x148
 1927 05eb 1A       		.uleb128 0x1a
 1928 05ec 6A020000 		.4byte	.LASF86
 1929 05f0 06       		.byte	0x6
 1930 05f1 A402     		.2byte	0x2a4
 1931 05f3 B6020000 		.4byte	0x2b6
 1932 05f7 03       		.byte	0x3
 1933 05f8 23       		.byte	0x23
 1934 05f9 CC02     		.uleb128 0x14c
 1935 05fb 1A       		.uleb128 0x1a
ARM GAS  C:\Users\embedded\AppData\Local\Temp\ccZ0blxh.s 			page 40


 1936 05fc 05060000 		.4byte	.LASF87
 1937 0600 06       		.byte	0x6
 1938 0601 A802     		.2byte	0x2a8
 1939 0603 77090000 		.4byte	0x977
 1940 0607 03       		.byte	0x3
 1941 0608 23       		.byte	0x23
 1942 0609 DC05     		.uleb128 0x2dc
 1943 060b 1A       		.uleb128 0x1a
 1944 060c 19010000 		.4byte	.LASF88
 1945 0610 06       		.byte	0x6
 1946 0611 AD02     		.2byte	0x2ad
 1947 0613 DB060000 		.4byte	0x6db
 1948 0617 03       		.byte	0x3
 1949 0618 23       		.byte	0x23
 1950 0619 E005     		.uleb128 0x2e0
 1951 061b 1A       		.uleb128 0x1a
 1952 061c FE000000 		.4byte	.LASF89
 1953 0620 06       		.byte	0x6
 1954 0621 AF02     		.2byte	0x2af
 1955 0623 83090000 		.4byte	0x983
 1956 0627 03       		.byte	0x3
 1957 0628 23       		.byte	0x23
 1958 0629 EC05     		.uleb128 0x2ec
 1959 062b 00       		.byte	0
 1960 062c 09       		.uleb128 0x9
 1961 062d 04       		.byte	0x4
 1962 062e 32060000 		.4byte	0x632
 1963 0632 03       		.uleb128 0x3
 1964 0633 01       		.byte	0x1
 1965 0634 08       		.byte	0x8
 1966 0635 1C050000 		.4byte	.LASF90
 1967 0639 18       		.uleb128 0x18
 1968 063a 32060000 		.4byte	0x632
 1969 063e 09       		.uleb128 0x9
 1970 063f 04       		.byte	0x4
 1971 0640 A4040000 		.4byte	0x4a4
 1972 0644 16       		.uleb128 0x16
 1973 0645 01       		.byte	0x1
 1974 0646 70000000 		.4byte	0x70
 1975 064a 63060000 		.4byte	0x663
 1976 064e 17       		.uleb128 0x17
 1977 064f C3040000 		.4byte	0x4c3
 1978 0653 17       		.uleb128 0x17
 1979 0654 AD000000 		.4byte	0xad
 1980 0658 17       		.uleb128 0x17
 1981 0659 63060000 		.4byte	0x663
 1982 065d 17       		.uleb128 0x17
 1983 065e 70000000 		.4byte	0x70
 1984 0662 00       		.byte	0
 1985 0663 09       		.uleb128 0x9
 1986 0664 04       		.byte	0x4
 1987 0665 39060000 		.4byte	0x639
 1988 0669 09       		.uleb128 0x9
 1989 066a 04       		.byte	0x4
 1990 066b 44060000 		.4byte	0x644
 1991 066f 16       		.uleb128 0x16
 1992 0670 01       		.byte	0x1
ARM GAS  C:\Users\embedded\AppData\Local\Temp\ccZ0blxh.s 			page 41


 1993 0671 D1000000 		.4byte	0xd1
 1994 0675 8E060000 		.4byte	0x68e
 1995 0679 17       		.uleb128 0x17
 1996 067a C3040000 		.4byte	0x4c3
 1997 067e 17       		.uleb128 0x17
 1998 067f AD000000 		.4byte	0xad
 1999 0683 17       		.uleb128 0x17
 2000 0684 D1000000 		.4byte	0xd1
 2001 0688 17       		.uleb128 0x17
 2002 0689 70000000 		.4byte	0x70
 2003 068d 00       		.byte	0
 2004 068e 09       		.uleb128 0x9
 2005 068f 04       		.byte	0x4
 2006 0690 6F060000 		.4byte	0x66f
 2007 0694 16       		.uleb128 0x16
 2008 0695 01       		.byte	0x1
 2009 0696 70000000 		.4byte	0x70
 2010 069a A9060000 		.4byte	0x6a9
 2011 069e 17       		.uleb128 0x17
 2012 069f C3040000 		.4byte	0x4c3
 2013 06a3 17       		.uleb128 0x17
 2014 06a4 AD000000 		.4byte	0xad
 2015 06a8 00       		.byte	0
 2016 06a9 09       		.uleb128 0x9
 2017 06aa 04       		.byte	0x4
 2018 06ab 94060000 		.4byte	0x694
 2019 06af 0E       		.uleb128 0xe
 2020 06b0 30000000 		.4byte	0x30
 2021 06b4 BF060000 		.4byte	0x6bf
 2022 06b8 0F       		.uleb128 0xf
 2023 06b9 54000000 		.4byte	0x54
 2024 06bd 02       		.byte	0x2
 2025 06be 00       		.byte	0
 2026 06bf 0E       		.uleb128 0xe
 2027 06c0 30000000 		.4byte	0x30
 2028 06c4 CF060000 		.4byte	0x6cf
 2029 06c8 0F       		.uleb128 0xf
 2030 06c9 54000000 		.4byte	0x54
 2031 06cd 00       		.byte	0
 2032 06ce 00       		.byte	0
 2033 06cf 0B       		.uleb128 0xb
 2034 06d0 63040000 		.4byte	.LASF91
 2035 06d4 06       		.byte	0x6
 2036 06d5 1F01     		.2byte	0x11f
 2037 06d7 4A030000 		.4byte	0x34a
 2038 06db 1B       		.uleb128 0x1b
 2039 06dc DC050000 		.4byte	.LASF92
 2040 06e0 0C       		.byte	0xc
 2041 06e1 06       		.byte	0x6
 2042 06e2 2301     		.2byte	0x123
 2043 06e4 16070000 		.4byte	0x716
 2044 06e8 1A       		.uleb128 0x1a
 2045 06e9 30050000 		.4byte	.LASF25
 2046 06ed 06       		.byte	0x6
 2047 06ee 2501     		.2byte	0x125
 2048 06f0 16070000 		.4byte	0x716
 2049 06f4 02       		.byte	0x2
ARM GAS  C:\Users\embedded\AppData\Local\Temp\ccZ0blxh.s 			page 42


 2050 06f5 23       		.byte	0x23
 2051 06f6 00       		.uleb128 0
 2052 06f7 1A       		.uleb128 0x1a
 2053 06f8 50020000 		.4byte	.LASF93
 2054 06fc 06       		.byte	0x6
 2055 06fd 2601     		.2byte	0x126
 2056 06ff 70000000 		.4byte	0x70
 2057 0703 02       		.byte	0x2
 2058 0704 23       		.byte	0x23
 2059 0705 04       		.uleb128 0x4
 2060 0706 1A       		.uleb128 0x1a
 2061 0707 91040000 		.4byte	.LASF94
 2062 070b 06       		.byte	0x6
 2063 070c 2701     		.2byte	0x127
 2064 070e 1C070000 		.4byte	0x71c
 2065 0712 02       		.byte	0x2
 2066 0713 23       		.byte	0x23
 2067 0714 08       		.uleb128 0x8
 2068 0715 00       		.byte	0
 2069 0716 09       		.uleb128 0x9
 2070 0717 04       		.byte	0x4
 2071 0718 DB060000 		.4byte	0x6db
 2072 071c 09       		.uleb128 0x9
 2073 071d 04       		.byte	0x4
 2074 071e CF060000 		.4byte	0x6cf
 2075 0722 1B       		.uleb128 0x1b
 2076 0723 21000000 		.4byte	.LASF95
 2077 0727 0E       		.byte	0xe
 2078 0728 06       		.byte	0x6
 2079 0729 3F01     		.2byte	0x13f
 2080 072b 5D070000 		.4byte	0x75d
 2081 072f 1A       		.uleb128 0x1a
 2082 0730 D8040000 		.4byte	.LASF96
 2083 0734 06       		.byte	0x6
 2084 0735 4001     		.2byte	0x140
 2085 0737 5D070000 		.4byte	0x75d
 2086 073b 02       		.byte	0x2
 2087 073c 23       		.byte	0x23
 2088 073d 00       		.uleb128 0
 2089 073e 1A       		.uleb128 0x1a
 2090 073f 2A050000 		.4byte	.LASF97
 2091 0743 06       		.byte	0x6
 2092 0744 4101     		.2byte	0x141
 2093 0746 5D070000 		.4byte	0x75d
 2094 074a 02       		.byte	0x2
 2095 074b 23       		.byte	0x23
 2096 074c 06       		.uleb128 0x6
 2097 074d 1A       		.uleb128 0x1a
 2098 074e 6E050000 		.4byte	.LASF98
 2099 0752 06       		.byte	0x6
 2100 0753 4201     		.2byte	0x142
 2101 0755 42000000 		.4byte	0x42
 2102 0759 02       		.byte	0x2
 2103 075a 23       		.byte	0x23
 2104 075b 0C       		.uleb128 0xc
 2105 075c 00       		.byte	0
 2106 075d 0E       		.uleb128 0xe
ARM GAS  C:\Users\embedded\AppData\Local\Temp\ccZ0blxh.s 			page 43


 2107 075e 42000000 		.4byte	0x42
 2108 0762 6D070000 		.4byte	0x76d
 2109 0766 0F       		.uleb128 0xf
 2110 0767 54000000 		.4byte	0x54
 2111 076b 02       		.byte	0x2
 2112 076c 00       		.byte	0
 2113 076d 1C       		.uleb128 0x1c
 2114 076e D0       		.byte	0xd0
 2115 076f 06       		.byte	0x6
 2116 0770 8002     		.2byte	0x280
 2117 0772 9D080000 		.4byte	0x89d
 2118 0776 1A       		.uleb128 0x1a
 2119 0777 C0050000 		.4byte	.LASF99
 2120 077b 06       		.byte	0x6
 2121 077c 8202     		.2byte	0x282
 2122 077e 54000000 		.4byte	0x54
 2123 0782 02       		.byte	0x2
 2124 0783 23       		.byte	0x23
 2125 0784 00       		.uleb128 0
 2126 0785 1A       		.uleb128 0x1a
 2127 0786 36050000 		.4byte	.LASF100
 2128 078a 06       		.byte	0x6
 2129 078b 8302     		.2byte	0x283
 2130 078d 2C060000 		.4byte	0x62c
 2131 0791 02       		.byte	0x2
 2132 0792 23       		.byte	0x23
 2133 0793 04       		.uleb128 0x4
 2134 0794 1A       		.uleb128 0x1a
 2135 0795 7F020000 		.4byte	.LASF101
 2136 0799 06       		.byte	0x6
 2137 079a 8402     		.2byte	0x284
 2138 079c 9D080000 		.4byte	0x89d
 2139 07a0 02       		.byte	0x2
 2140 07a1 23       		.byte	0x23
 2141 07a2 08       		.uleb128 0x8
 2142 07a3 1A       		.uleb128 0x1a
 2143 07a4 2E060000 		.4byte	.LASF102
 2144 07a8 06       		.byte	0x6
 2145 07a9 8502     		.2byte	0x285
 2146 07ab D2010000 		.4byte	0x1d2
 2147 07af 02       		.byte	0x2
 2148 07b0 23       		.byte	0x23
 2149 07b1 24       		.uleb128 0x24
 2150 07b2 1A       		.uleb128 0x1a
 2151 07b3 CD010000 		.4byte	.LASF103
 2152 07b7 06       		.byte	0x6
 2153 07b8 8602     		.2byte	0x286
 2154 07ba 70000000 		.4byte	0x70
 2155 07be 02       		.byte	0x2
 2156 07bf 23       		.byte	0x23
 2157 07c0 48       		.uleb128 0x48
 2158 07c1 1A       		.uleb128 0x1a
 2159 07c2 86040000 		.4byte	.LASF104
 2160 07c6 06       		.byte	0x6
 2161 07c7 8702     		.2byte	0x287
 2162 07c9 5B000000 		.4byte	0x5b
 2163 07cd 02       		.byte	0x2
ARM GAS  C:\Users\embedded\AppData\Local\Temp\ccZ0blxh.s 			page 44


 2164 07ce 23       		.byte	0x23
 2165 07cf 50       		.uleb128 0x50
 2166 07d0 1A       		.uleb128 0x1a
 2167 07d1 44060000 		.4byte	.LASF105
 2168 07d5 06       		.byte	0x6
 2169 07d6 8802     		.2byte	0x288
 2170 07d8 22070000 		.4byte	0x722
 2171 07dc 02       		.byte	0x2
 2172 07dd 23       		.byte	0x23
 2173 07de 58       		.uleb128 0x58
 2174 07df 1A       		.uleb128 0x1a
 2175 07e0 0D040000 		.4byte	.LASF106
 2176 07e4 06       		.byte	0x6
 2177 07e5 8902     		.2byte	0x289
 2178 07e7 3C010000 		.4byte	0x13c
 2179 07eb 02       		.byte	0x2
 2180 07ec 23       		.byte	0x23
 2181 07ed 68       		.uleb128 0x68
 2182 07ee 1A       		.uleb128 0x1a
 2183 07ef 58060000 		.4byte	.LASF107
 2184 07f3 06       		.byte	0x6
 2185 07f4 8A02     		.2byte	0x28a
 2186 07f6 3C010000 		.4byte	0x13c
 2187 07fa 02       		.byte	0x2
 2188 07fb 23       		.byte	0x23
 2189 07fc 70       		.uleb128 0x70
 2190 07fd 1A       		.uleb128 0x1a
 2191 07fe F1030000 		.4byte	.LASF108
 2192 0802 06       		.byte	0x6
 2193 0803 8B02     		.2byte	0x28b
 2194 0805 3C010000 		.4byte	0x13c
 2195 0809 02       		.byte	0x2
 2196 080a 23       		.byte	0x23
 2197 080b 78       		.uleb128 0x78
 2198 080c 1A       		.uleb128 0x1a
 2199 080d FB050000 		.4byte	.LASF109
 2200 0811 06       		.byte	0x6
 2201 0812 8C02     		.2byte	0x28c
 2202 0814 AD080000 		.4byte	0x8ad
 2203 0818 03       		.byte	0x3
 2204 0819 23       		.byte	0x23
 2205 081a 8001     		.uleb128 0x80
 2206 081c 1A       		.uleb128 0x1a
 2207 081d 73020000 		.4byte	.LASF110
 2208 0821 06       		.byte	0x6
 2209 0822 8D02     		.2byte	0x28d
 2210 0824 BD080000 		.4byte	0x8bd
 2211 0828 03       		.byte	0x3
 2212 0829 23       		.byte	0x23
 2213 082a 8801     		.uleb128 0x88
 2214 082c 1A       		.uleb128 0x1a
 2215 082d 81050000 		.4byte	.LASF111
 2216 0831 06       		.byte	0x6
 2217 0832 8E02     		.2byte	0x28e
 2218 0834 70000000 		.4byte	0x70
 2219 0838 03       		.byte	0x3
 2220 0839 23       		.byte	0x23
ARM GAS  C:\Users\embedded\AppData\Local\Temp\ccZ0blxh.s 			page 45


 2221 083a A001     		.uleb128 0xa0
 2222 083c 1A       		.uleb128 0x1a
 2223 083d 93010000 		.4byte	.LASF112
 2224 0841 06       		.byte	0x6
 2225 0842 8F02     		.2byte	0x28f
 2226 0844 3C010000 		.4byte	0x13c
 2227 0848 03       		.byte	0x3
 2228 0849 23       		.byte	0x23
 2229 084a A401     		.uleb128 0xa4
 2230 084c 1A       		.uleb128 0x1a
 2231 084d B6000000 		.4byte	.LASF113
 2232 0851 06       		.byte	0x6
 2233 0852 9002     		.2byte	0x290
 2234 0854 3C010000 		.4byte	0x13c
 2235 0858 03       		.byte	0x3
 2236 0859 23       		.byte	0x23
 2237 085a AC01     		.uleb128 0xac
 2238 085c 1A       		.uleb128 0x1a
 2239 085d 82010000 		.4byte	.LASF114
 2240 0861 06       		.byte	0x6
 2241 0862 9102     		.2byte	0x291
 2242 0864 3C010000 		.4byte	0x13c
 2243 0868 03       		.byte	0x3
 2244 0869 23       		.byte	0x23
 2245 086a B401     		.uleb128 0xb4
 2246 086c 1A       		.uleb128 0x1a
 2247 086d 4D000000 		.4byte	.LASF115
 2248 0871 06       		.byte	0x6
 2249 0872 9202     		.2byte	0x292
 2250 0874 3C010000 		.4byte	0x13c
 2251 0878 03       		.byte	0x3
 2252 0879 23       		.byte	0x23
 2253 087a BC01     		.uleb128 0xbc
 2254 087c 1A       		.uleb128 0x1a
 2255 087d 5C000000 		.4byte	.LASF116
 2256 0881 06       		.byte	0x6
 2257 0882 9302     		.2byte	0x293
 2258 0884 3C010000 		.4byte	0x13c
 2259 0888 03       		.byte	0x3
 2260 0889 23       		.byte	0x23
 2261 088a C401     		.uleb128 0xc4
 2262 088c 1A       		.uleb128 0x1a
 2263 088d 2D040000 		.4byte	.LASF117
 2264 0891 06       		.byte	0x6
 2265 0892 9402     		.2byte	0x294
 2266 0894 70000000 		.4byte	0x70
 2267 0898 03       		.byte	0x3
 2268 0899 23       		.byte	0x23
 2269 089a CC01     		.uleb128 0xcc
 2270 089c 00       		.byte	0
 2271 089d 0E       		.uleb128 0xe
 2272 089e 32060000 		.4byte	0x632
 2273 08a2 AD080000 		.4byte	0x8ad
 2274 08a6 0F       		.uleb128 0xf
 2275 08a7 54000000 		.4byte	0x54
 2276 08ab 19       		.byte	0x19
 2277 08ac 00       		.byte	0
ARM GAS  C:\Users\embedded\AppData\Local\Temp\ccZ0blxh.s 			page 46


 2278 08ad 0E       		.uleb128 0xe
 2279 08ae 32060000 		.4byte	0x632
 2280 08b2 BD080000 		.4byte	0x8bd
 2281 08b6 0F       		.uleb128 0xf
 2282 08b7 54000000 		.4byte	0x54
 2283 08bb 07       		.byte	0x7
 2284 08bc 00       		.byte	0
 2285 08bd 0E       		.uleb128 0xe
 2286 08be 32060000 		.4byte	0x632
 2287 08c2 CD080000 		.4byte	0x8cd
 2288 08c6 0F       		.uleb128 0xf
 2289 08c7 54000000 		.4byte	0x54
 2290 08cb 17       		.byte	0x17
 2291 08cc 00       		.byte	0
 2292 08cd 1C       		.uleb128 0x1c
 2293 08ce F0       		.byte	0xf0
 2294 08cf 06       		.byte	0x6
 2295 08d0 9902     		.2byte	0x299
 2296 08d2 F5080000 		.4byte	0x8f5
 2297 08d6 1A       		.uleb128 0x1a
 2298 08d7 0E030000 		.4byte	.LASF118
 2299 08db 06       		.byte	0x6
 2300 08dc 9C02     		.2byte	0x29c
 2301 08de F5080000 		.4byte	0x8f5
 2302 08e2 02       		.byte	0x2
 2303 08e3 23       		.byte	0x23
 2304 08e4 00       		.uleb128 0
 2305 08e5 1A       		.uleb128 0x1a
 2306 08e6 F2050000 		.4byte	.LASF119
 2307 08ea 06       		.byte	0x6
 2308 08eb 9D02     		.2byte	0x29d
 2309 08ed 05090000 		.4byte	0x905
 2310 08f1 02       		.byte	0x2
 2311 08f2 23       		.byte	0x23
 2312 08f3 78       		.uleb128 0x78
 2313 08f4 00       		.byte	0
 2314 08f5 0E       		.uleb128 0xe
 2315 08f6 44030000 		.4byte	0x344
 2316 08fa 05090000 		.4byte	0x905
 2317 08fe 0F       		.uleb128 0xf
 2318 08ff 54000000 		.4byte	0x54
 2319 0903 1D       		.byte	0x1d
 2320 0904 00       		.byte	0
 2321 0905 0E       		.uleb128 0xe
 2322 0906 54000000 		.4byte	0x54
 2323 090a 15090000 		.4byte	0x915
 2324 090e 0F       		.uleb128 0xf
 2325 090f 54000000 		.4byte	0x54
 2326 0913 1D       		.byte	0x1d
 2327 0914 00       		.byte	0
 2328 0915 1D       		.uleb128 0x1d
 2329 0916 F0       		.byte	0xf0
 2330 0917 06       		.byte	0x6
 2331 0918 7E02     		.2byte	0x27e
 2332 091a 37090000 		.4byte	0x937
 2333 091e 1E       		.uleb128 0x1e
 2334 091f D1040000 		.4byte	.LASF68
ARM GAS  C:\Users\embedded\AppData\Local\Temp\ccZ0blxh.s 			page 47


 2335 0923 06       		.byte	0x6
 2336 0924 9502     		.2byte	0x295
 2337 0926 6D070000 		.4byte	0x76d
 2338 092a 1E       		.uleb128 0x1e
 2339 092b 1B060000 		.4byte	.LASF120
 2340 092f 06       		.byte	0x6
 2341 0930 9E02     		.2byte	0x29e
 2342 0932 CD080000 		.4byte	0x8cd
 2343 0936 00       		.byte	0
 2344 0937 0E       		.uleb128 0xe
 2345 0938 32060000 		.4byte	0x632
 2346 093c 47090000 		.4byte	0x947
 2347 0940 0F       		.uleb128 0xf
 2348 0941 54000000 		.4byte	0x54
 2349 0945 18       		.byte	0x18
 2350 0946 00       		.byte	0
 2351 0947 0A       		.uleb128 0xa
 2352 0948 9C000000 		.4byte	.LASF122
 2353 094c 01       		.byte	0x1
 2354 094d 09       		.uleb128 0x9
 2355 094e 04       		.byte	0x4
 2356 094f 47090000 		.4byte	0x947
 2357 0953 1F       		.uleb128 0x1f
 2358 0954 01       		.byte	0x1
 2359 0955 5F090000 		.4byte	0x95f
 2360 0959 17       		.uleb128 0x17
 2361 095a C3040000 		.4byte	0x4c3
 2362 095e 00       		.byte	0
 2363 095f 09       		.uleb128 0x9
 2364 0960 04       		.byte	0x4
 2365 0961 53090000 		.4byte	0x953
 2366 0965 09       		.uleb128 0x9
 2367 0966 04       		.byte	0x4
 2368 0967 BC010000 		.4byte	0x1bc
 2369 096b 1F       		.uleb128 0x1f
 2370 096c 01       		.byte	0x1
 2371 096d 77090000 		.4byte	0x977
 2372 0971 17       		.uleb128 0x17
 2373 0972 70000000 		.4byte	0x70
 2374 0976 00       		.byte	0
 2375 0977 09       		.uleb128 0x9
 2376 0978 04       		.byte	0x4
 2377 0979 7D090000 		.4byte	0x97d
 2378 097d 09       		.uleb128 0x9
 2379 097e 04       		.byte	0x4
 2380 097f 6B090000 		.4byte	0x96b
 2381 0983 0E       		.uleb128 0xe
 2382 0984 CF060000 		.4byte	0x6cf
 2383 0988 93090000 		.4byte	0x993
 2384 098c 0F       		.uleb128 0xf
 2385 098d 54000000 		.4byte	0x54
 2386 0991 02       		.byte	0x2
 2387 0992 00       		.byte	0
 2388 0993 20       		.uleb128 0x20
 2389 0994 FB040000 		.4byte	.LASF123
 2390 0998 06       		.byte	0x6
 2391 0999 2E03     		.2byte	0x32e
ARM GAS  C:\Users\embedded\AppData\Local\Temp\ccZ0blxh.s 			page 48


 2392 099b C3040000 		.4byte	0x4c3
 2393 099f 01       		.byte	0x1
 2394 09a0 01       		.byte	0x1
 2395 09a1 20       		.uleb128 0x20
 2396 09a2 9F050000 		.4byte	.LASF124
 2397 09a6 06       		.byte	0x6
 2398 09a7 2F03     		.2byte	0x32f
 2399 09a9 C9040000 		.4byte	0x4c9
 2400 09ad 01       		.byte	0x1
 2401 09ae 01       		.byte	0x1
 2402 09af 03       		.uleb128 0x3
 2403 09b0 04       		.byte	0x4
 2404 09b1 04       		.byte	0x4
 2405 09b2 65030000 		.4byte	.LASF125
 2406 09b6 03       		.uleb128 0x3
 2407 09b7 08       		.byte	0x8
 2408 09b8 04       		.byte	0x4
 2409 09b9 6B010000 		.4byte	.LASF126
 2410 09bd 21       		.uleb128 0x21
 2411 09be 8E050000 		.4byte	.LASF156
 2412 09c2 05       		.byte	0x5
 2413 09c3 01       		.byte	0x1
 2414 09c4 62000000 		.4byte	0x62
 2415 09c8 07       		.byte	0x7
 2416 09c9 8202     		.2byte	0x282
 2417 09cb E8090000 		.4byte	0x9e8
 2418 09cf 22       		.uleb128 0x22
 2419 09d0 B2050000 		.4byte	.LASF127
 2420 09d4 7F       		.sleb128 -1
 2421 09d5 07       		.uleb128 0x7
 2422 09d6 45010000 		.4byte	.LASF128
 2423 09da 00       		.byte	0
 2424 09db 07       		.uleb128 0x7
 2425 09dc A7000000 		.4byte	.LASF129
 2426 09e0 01       		.byte	0x1
 2427 09e1 07       		.uleb128 0x7
 2428 09e2 84000000 		.4byte	.LASF130
 2429 09e6 02       		.byte	0x2
 2430 09e7 00       		.byte	0
 2431 09e8 20       		.uleb128 0x20
 2432 09e9 E2050000 		.4byte	.LASF131
 2433 09ed 07       		.byte	0x7
 2434 09ee 8D02     		.2byte	0x28d
 2435 09f0 BD090000 		.4byte	0x9bd
 2436 09f4 01       		.byte	0x1
 2437 09f5 01       		.byte	0x1
 2438 09f6 23       		.uleb128 0x23
 2439 09f7 01       		.byte	0x1
 2440 09f8 71060000 		.4byte	.LASF157
 2441 09fc 01       		.byte	0x1
 2442 09fd 69       		.byte	0x69
 2443 09fe 01       		.byte	0x1
 2444 09ff 70000000 		.4byte	0x70
 2445 0a03 14010000 		.4byte	.LFB4
 2446 0a07 BC060000 		.4byte	.LFE4
 2447 0a0b 00000000 		.4byte	.LLST1
 2448 0a0f 01       		.byte	0x1
ARM GAS  C:\Users\embedded\AppData\Local\Temp\ccZ0blxh.s 			page 49


 2449 0a10 D60C0000 		.4byte	0xcd6
 2450 0a14 24       		.uleb128 0x24
 2451 0a15 53010000 		.4byte	.LASF132
 2452 0a19 01       		.byte	0x1
 2453 0a1a 6B       		.byte	0x6b
 2454 0a1b 25000000 		.4byte	0x25
 2455 0a1f 02       		.byte	0x2
 2456 0a20 91       		.byte	0x91
 2457 0a21 5D       		.sleb128 -35
 2458 0a22 25       		.uleb128 0x25
 2459 0a23 01       		.byte	0x1
 2460 0a24 62050000 		.4byte	.LASF143
 2461 0a28 01       		.byte	0x1
 2462 0a29 6E       		.byte	0x6e
 2463 0a2a 70000000 		.4byte	0x70
 2464 0a2e 01       		.byte	0x1
 2465 0a2f 350A0000 		.4byte	0xa35
 2466 0a33 26       		.uleb128 0x26
 2467 0a34 00       		.byte	0
 2468 0a35 24       		.uleb128 0x24
 2469 0a36 05020000 		.4byte	.LASF133
 2470 0a3a 01       		.byte	0x1
 2471 0a3b 6F       		.byte	0x6f
 2472 0a3c 25000000 		.4byte	0x25
 2473 0a40 02       		.byte	0x2
 2474 0a41 91       		.byte	0x91
 2475 0a42 5C       		.sleb128 -36
 2476 0a43 24       		.uleb128 0x24
 2477 0a44 49060000 		.4byte	.LASF134
 2478 0a48 01       		.byte	0x1
 2479 0a49 87       		.byte	0x87
 2480 0a4a 25000000 		.4byte	0x25
 2481 0a4e 02       		.byte	0x2
 2482 0a4f 91       		.byte	0x91
 2483 0a50 6F       		.sleb128 -17
 2484 0a51 24       		.uleb128 0x24
 2485 0a52 8C020000 		.4byte	.LASF135
 2486 0a56 01       		.byte	0x1
 2487 0a57 88       		.byte	0x88
 2488 0a58 37000000 		.4byte	0x37
 2489 0a5c 02       		.byte	0x2
 2490 0a5d 91       		.byte	0x91
 2491 0a5e 6C       		.sleb128 -20
 2492 0a5f 24       		.uleb128 0x24
 2493 0a60 34000000 		.4byte	.LASF136
 2494 0a64 01       		.byte	0x1
 2495 0a65 89       		.byte	0x89
 2496 0a66 D60C0000 		.4byte	0xcd6
 2497 0a6a 02       		.byte	0x2
 2498 0a6b 91       		.byte	0x91
 2499 0a6c 50       		.sleb128 -48
 2500 0a6d 27       		.uleb128 0x27
 2501 0a6e 0C000000 		.4byte	.LASF158
 2502 0a72 01       		.byte	0x1
 2503 0a73 8A       		.byte	0x8a
 2504 0a74 E60C0000 		.4byte	0xce6
 2505 0a78 24       		.uleb128 0x24
ARM GAS  C:\Users\embedded\AppData\Local\Temp\ccZ0blxh.s 			page 50


 2506 0a79 54050000 		.4byte	.LASF137
 2507 0a7d 01       		.byte	0x1
 2508 0a7e 8B       		.byte	0x8b
 2509 0a7f EC0C0000 		.4byte	0xcec
 2510 0a83 03       		.byte	0x3
 2511 0a84 91       		.byte	0x91
 2512 0a85 D07E     		.sleb128 -176
 2513 0a87 24       		.uleb128 0x24
 2514 0a88 ED020000 		.4byte	.LASF138
 2515 0a8c 01       		.byte	0x1
 2516 0a8d 8C       		.byte	0x8c
 2517 0a8e FC0C0000 		.4byte	0xcfc
 2518 0a92 03       		.byte	0x3
 2519 0a93 91       		.byte	0x91
 2520 0a94 CC7E     		.sleb128 -180
 2521 0a96 24       		.uleb128 0x24
 2522 0a97 CE020000 		.4byte	.LASF139
 2523 0a9b 01       		.byte	0x1
 2524 0a9c 9A       		.byte	0x9a
 2525 0a9d 49000000 		.4byte	0x49
 2526 0aa1 02       		.byte	0x2
 2527 0aa2 91       		.byte	0x91
 2528 0aa3 68       		.sleb128 -24
 2529 0aa4 24       		.uleb128 0x24
 2530 0aa5 21020000 		.4byte	.LASF140
 2531 0aa9 01       		.byte	0x1
 2532 0aaa 9B       		.byte	0x9b
 2533 0aab 49000000 		.4byte	0x49
 2534 0aaf 02       		.byte	0x2
 2535 0ab0 91       		.byte	0x91
 2536 0ab1 64       		.sleb128 -28
 2537 0ab2 24       		.uleb128 0x24
 2538 0ab3 5B030000 		.4byte	.LASF141
 2539 0ab7 01       		.byte	0x1
 2540 0ab8 9C       		.byte	0x9c
 2541 0ab9 49000000 		.4byte	0x49
 2542 0abd 02       		.byte	0x2
 2543 0abe 91       		.byte	0x91
 2544 0abf 60       		.sleb128 -32
 2545 0ac0 28       		.uleb128 0x28
 2546 0ac1 34020000 		.4byte	.LBB5
 2547 0ac5 A4060000 		.4byte	.LBE5
 2548 0ac9 24       		.uleb128 0x24
 2549 0aca D7020000 		.4byte	.LASF142
 2550 0ace 01       		.byte	0x1
 2551 0acf EC       		.byte	0xec
 2552 0ad0 37000000 		.4byte	0x37
 2553 0ad4 02       		.byte	0x2
 2554 0ad5 91       		.byte	0x91
 2555 0ad6 5E       		.sleb128 -34
 2556 0ad7 28       		.uleb128 0x28
 2557 0ad8 82040000 		.4byte	.LBB6
 2558 0adc 64060000 		.4byte	.LBE6
 2559 0ae0 25       		.uleb128 0x25
 2560 0ae1 01       		.byte	0x1
 2561 0ae2 3C020000 		.4byte	.LASF144
 2562 0ae6 01       		.byte	0x1
ARM GAS  C:\Users\embedded\AppData\Local\Temp\ccZ0blxh.s 			page 51


 2563 0ae7 EF       		.byte	0xef
 2564 0ae8 70000000 		.4byte	0x70
 2565 0aec 01       		.byte	0x1
 2566 0aed F30A0000 		.4byte	0xaf3
 2567 0af1 26       		.uleb128 0x26
 2568 0af2 00       		.byte	0
 2569 0af3 29       		.uleb128 0x29
 2570 0af4 01       		.byte	0x1
 2571 0af5 FF030000 		.4byte	.LASF145
 2572 0af9 01       		.byte	0x1
 2573 0afa 0F01     		.2byte	0x10f
 2574 0afc 70000000 		.4byte	0x70
 2575 0b00 01       		.byte	0x1
 2576 0b01 070B0000 		.4byte	0xb07
 2577 0b05 26       		.uleb128 0x26
 2578 0b06 00       		.byte	0
 2579 0b07 2A       		.uleb128 0x2a
 2580 0b08 8E040000 		.4byte	.LBB7
 2581 0b0c 96040000 		.4byte	.LBE7
 2582 0b10 240B0000 		.4byte	0xb24
 2583 0b14 2B       		.uleb128 0x2b
 2584 0b15 01       		.byte	0x1
 2585 0b16 3C020000 		.4byte	.LASF144
 2586 0b1a 01       		.byte	0x1
 2587 0b1b EF       		.byte	0xef
 2588 0b1c 70000000 		.4byte	0x70
 2589 0b20 01       		.byte	0x1
 2590 0b21 26       		.uleb128 0x26
 2591 0b22 00       		.byte	0
 2592 0b23 00       		.byte	0
 2593 0b24 2A       		.uleb128 0x2a
 2594 0b25 A4040000 		.4byte	.LBB8
 2595 0b29 AC040000 		.4byte	.LBE8
 2596 0b2d 410B0000 		.4byte	0xb41
 2597 0b31 2B       		.uleb128 0x2b
 2598 0b32 01       		.byte	0x1
 2599 0b33 3C020000 		.4byte	.LASF144
 2600 0b37 01       		.byte	0x1
 2601 0b38 EF       		.byte	0xef
 2602 0b39 70000000 		.4byte	0x70
 2603 0b3d 01       		.byte	0x1
 2604 0b3e 26       		.uleb128 0x26
 2605 0b3f 00       		.byte	0
 2606 0b40 00       		.byte	0
 2607 0b41 2A       		.uleb128 0x2a
 2608 0b42 B8040000 		.4byte	.LBB9
 2609 0b46 C0040000 		.4byte	.LBE9
 2610 0b4a 5E0B0000 		.4byte	0xb5e
 2611 0b4e 2B       		.uleb128 0x2b
 2612 0b4f 01       		.byte	0x1
 2613 0b50 3C020000 		.4byte	.LASF144
 2614 0b54 01       		.byte	0x1
 2615 0b55 EF       		.byte	0xef
 2616 0b56 70000000 		.4byte	0x70
 2617 0b5a 01       		.byte	0x1
 2618 0b5b 26       		.uleb128 0x26
 2619 0b5c 00       		.byte	0
ARM GAS  C:\Users\embedded\AppData\Local\Temp\ccZ0blxh.s 			page 52


 2620 0b5d 00       		.byte	0
 2621 0b5e 2A       		.uleb128 0x2a
 2622 0b5f CE040000 		.4byte	.LBB10
 2623 0b63 D6040000 		.4byte	.LBE10
 2624 0b67 7B0B0000 		.4byte	0xb7b
 2625 0b6b 2B       		.uleb128 0x2b
 2626 0b6c 01       		.byte	0x1
 2627 0b6d 3C020000 		.4byte	.LASF144
 2628 0b71 01       		.byte	0x1
 2629 0b72 EF       		.byte	0xef
 2630 0b73 70000000 		.4byte	0x70
 2631 0b77 01       		.byte	0x1
 2632 0b78 26       		.uleb128 0x26
 2633 0b79 00       		.byte	0
 2634 0b7a 00       		.byte	0
 2635 0b7b 2A       		.uleb128 0x2a
 2636 0b7c E2040000 		.4byte	.LBB11
 2637 0b80 EA040000 		.4byte	.LBE11
 2638 0b84 980B0000 		.4byte	0xb98
 2639 0b88 2B       		.uleb128 0x2b
 2640 0b89 01       		.byte	0x1
 2641 0b8a 3C020000 		.4byte	.LASF144
 2642 0b8e 01       		.byte	0x1
 2643 0b8f EF       		.byte	0xef
 2644 0b90 70000000 		.4byte	0x70
 2645 0b94 01       		.byte	0x1
 2646 0b95 26       		.uleb128 0x26
 2647 0b96 00       		.byte	0
 2648 0b97 00       		.byte	0
 2649 0b98 2A       		.uleb128 0x2a
 2650 0b99 F8040000 		.4byte	.LBB12
 2651 0b9d 00050000 		.4byte	.LBE12
 2652 0ba1 B50B0000 		.4byte	0xbb5
 2653 0ba5 2B       		.uleb128 0x2b
 2654 0ba6 01       		.byte	0x1
 2655 0ba7 3C020000 		.4byte	.LASF144
 2656 0bab 01       		.byte	0x1
 2657 0bac EF       		.byte	0xef
 2658 0bad 70000000 		.4byte	0x70
 2659 0bb1 01       		.byte	0x1
 2660 0bb2 26       		.uleb128 0x26
 2661 0bb3 00       		.byte	0
 2662 0bb4 00       		.byte	0
 2663 0bb5 2A       		.uleb128 0x2a
 2664 0bb6 0C050000 		.4byte	.LBB13
 2665 0bba 14050000 		.4byte	.LBE13
 2666 0bbe D20B0000 		.4byte	0xbd2
 2667 0bc2 2B       		.uleb128 0x2b
 2668 0bc3 01       		.byte	0x1
 2669 0bc4 3C020000 		.4byte	.LASF144
 2670 0bc8 01       		.byte	0x1
 2671 0bc9 EF       		.byte	0xef
 2672 0bca 70000000 		.4byte	0x70
 2673 0bce 01       		.byte	0x1
 2674 0bcf 26       		.uleb128 0x26
 2675 0bd0 00       		.byte	0
 2676 0bd1 00       		.byte	0
ARM GAS  C:\Users\embedded\AppData\Local\Temp\ccZ0blxh.s 			page 53


 2677 0bd2 2A       		.uleb128 0x2a
 2678 0bd3 22050000 		.4byte	.LBB14
 2679 0bd7 2A050000 		.4byte	.LBE14
 2680 0bdb EF0B0000 		.4byte	0xbef
 2681 0bdf 2B       		.uleb128 0x2b
 2682 0be0 01       		.byte	0x1
 2683 0be1 3C020000 		.4byte	.LASF144
 2684 0be5 01       		.byte	0x1
 2685 0be6 EF       		.byte	0xef
 2686 0be7 70000000 		.4byte	0x70
 2687 0beb 01       		.byte	0x1
 2688 0bec 26       		.uleb128 0x26
 2689 0bed 00       		.byte	0
 2690 0bee 00       		.byte	0
 2691 0bef 2A       		.uleb128 0x2a
 2692 0bf0 36050000 		.4byte	.LBB15
 2693 0bf4 3E050000 		.4byte	.LBE15
 2694 0bf8 0C0C0000 		.4byte	0xc0c
 2695 0bfc 2B       		.uleb128 0x2b
 2696 0bfd 01       		.byte	0x1
 2697 0bfe 3C020000 		.4byte	.LASF144
 2698 0c02 01       		.byte	0x1
 2699 0c03 EF       		.byte	0xef
 2700 0c04 70000000 		.4byte	0x70
 2701 0c08 01       		.byte	0x1
 2702 0c09 26       		.uleb128 0x26
 2703 0c0a 00       		.byte	0
 2704 0c0b 00       		.byte	0
 2705 0c0c 2A       		.uleb128 0x2a
 2706 0c0d 4C050000 		.4byte	.LBB16
 2707 0c11 54050000 		.4byte	.LBE16
 2708 0c15 290C0000 		.4byte	0xc29
 2709 0c19 2B       		.uleb128 0x2b
 2710 0c1a 01       		.byte	0x1
 2711 0c1b 3C020000 		.4byte	.LASF144
 2712 0c1f 01       		.byte	0x1
 2713 0c20 EF       		.byte	0xef
 2714 0c21 70000000 		.4byte	0x70
 2715 0c25 01       		.byte	0x1
 2716 0c26 26       		.uleb128 0x26
 2717 0c27 00       		.byte	0
 2718 0c28 00       		.byte	0
 2719 0c29 2A       		.uleb128 0x2a
 2720 0c2a 60050000 		.4byte	.LBB17
 2721 0c2e 68050000 		.4byte	.LBE17
 2722 0c32 460C0000 		.4byte	0xc46
 2723 0c36 2B       		.uleb128 0x2b
 2724 0c37 01       		.byte	0x1
 2725 0c38 3C020000 		.4byte	.LASF144
 2726 0c3c 01       		.byte	0x1
 2727 0c3d EF       		.byte	0xef
 2728 0c3e 70000000 		.4byte	0x70
 2729 0c42 01       		.byte	0x1
 2730 0c43 26       		.uleb128 0x26
 2731 0c44 00       		.byte	0
 2732 0c45 00       		.byte	0
 2733 0c46 2A       		.uleb128 0x2a
ARM GAS  C:\Users\embedded\AppData\Local\Temp\ccZ0blxh.s 			page 54


 2734 0c47 76050000 		.4byte	.LBB18
 2735 0c4b 7E050000 		.4byte	.LBE18
 2736 0c4f 630C0000 		.4byte	0xc63
 2737 0c53 2B       		.uleb128 0x2b
 2738 0c54 01       		.byte	0x1
 2739 0c55 3C020000 		.4byte	.LASF144
 2740 0c59 01       		.byte	0x1
 2741 0c5a EF       		.byte	0xef
 2742 0c5b 70000000 		.4byte	0x70
 2743 0c5f 01       		.byte	0x1
 2744 0c60 26       		.uleb128 0x26
 2745 0c61 00       		.byte	0
 2746 0c62 00       		.byte	0
 2747 0c63 2A       		.uleb128 0x2a
 2748 0c64 8A050000 		.4byte	.LBB19
 2749 0c68 92050000 		.4byte	.LBE19
 2750 0c6c 800C0000 		.4byte	0xc80
 2751 0c70 2B       		.uleb128 0x2b
 2752 0c71 01       		.byte	0x1
 2753 0c72 3C020000 		.4byte	.LASF144
 2754 0c76 01       		.byte	0x1
 2755 0c77 EF       		.byte	0xef
 2756 0c78 70000000 		.4byte	0x70
 2757 0c7c 01       		.byte	0x1
 2758 0c7d 26       		.uleb128 0x26
 2759 0c7e 00       		.byte	0
 2760 0c7f 00       		.byte	0
 2761 0c80 2A       		.uleb128 0x2a
 2762 0c81 A0050000 		.4byte	.LBB20
 2763 0c85 A8050000 		.4byte	.LBE20
 2764 0c89 9D0C0000 		.4byte	0xc9d
 2765 0c8d 2B       		.uleb128 0x2b
 2766 0c8e 01       		.byte	0x1
 2767 0c8f 3C020000 		.4byte	.LASF144
 2768 0c93 01       		.byte	0x1
 2769 0c94 EF       		.byte	0xef
 2770 0c95 70000000 		.4byte	0x70
 2771 0c99 01       		.byte	0x1
 2772 0c9a 26       		.uleb128 0x26
 2773 0c9b 00       		.byte	0
 2774 0c9c 00       		.byte	0
 2775 0c9d 2A       		.uleb128 0x2a
 2776 0c9e B4050000 		.4byte	.LBB21
 2777 0ca2 BC050000 		.4byte	.LBE21
 2778 0ca6 BA0C0000 		.4byte	0xcba
 2779 0caa 2B       		.uleb128 0x2b
 2780 0cab 01       		.byte	0x1
 2781 0cac 3C020000 		.4byte	.LASF144
 2782 0cb0 01       		.byte	0x1
 2783 0cb1 EF       		.byte	0xef
 2784 0cb2 70000000 		.4byte	0x70
 2785 0cb6 01       		.byte	0x1
 2786 0cb7 26       		.uleb128 0x26
 2787 0cb8 00       		.byte	0
 2788 0cb9 00       		.byte	0
 2789 0cba 28       		.uleb128 0x28
 2790 0cbb CA050000 		.4byte	.LBB22
ARM GAS  C:\Users\embedded\AppData\Local\Temp\ccZ0blxh.s 			page 55


 2791 0cbf D2050000 		.4byte	.LBE22
 2792 0cc3 2B       		.uleb128 0x2b
 2793 0cc4 01       		.byte	0x1
 2794 0cc5 3C020000 		.4byte	.LASF144
 2795 0cc9 01       		.byte	0x1
 2796 0cca EF       		.byte	0xef
 2797 0ccb 70000000 		.4byte	0x70
 2798 0ccf 01       		.byte	0x1
 2799 0cd0 26       		.uleb128 0x26
 2800 0cd1 00       		.byte	0
 2801 0cd2 00       		.byte	0
 2802 0cd3 00       		.byte	0
 2803 0cd4 00       		.byte	0
 2804 0cd5 00       		.byte	0
 2805 0cd6 0E       		.uleb128 0xe
 2806 0cd7 25000000 		.4byte	0x25
 2807 0cdb E60C0000 		.4byte	0xce6
 2808 0cdf 0F       		.uleb128 0xf
 2809 0ce0 54000000 		.4byte	0x54
 2810 0ce4 09       		.byte	0x9
 2811 0ce5 00       		.byte	0
 2812 0ce6 09       		.uleb128 0x9
 2813 0ce7 04       		.byte	0x4
 2814 0ce8 25000000 		.4byte	0x25
 2815 0cec 0E       		.uleb128 0xe
 2816 0ced 25000000 		.4byte	0x25
 2817 0cf1 FC0C0000 		.4byte	0xcfc
 2818 0cf5 0F       		.uleb128 0xf
 2819 0cf6 54000000 		.4byte	0x54
 2820 0cfa 7F       		.byte	0x7f
 2821 0cfb 00       		.byte	0
 2822 0cfc 0E       		.uleb128 0xe
 2823 0cfd 25000000 		.4byte	0x25
 2824 0d01 0C0D0000 		.4byte	0xd0c
 2825 0d05 0F       		.uleb128 0xf
 2826 0d06 54000000 		.4byte	0x54
 2827 0d0a 01       		.byte	0x1
 2828 0d0b 00       		.byte	0
 2829 0d0c 2C       		.uleb128 0x2c
 2830 0d0d 01       		.byte	0x1
 2831 0d0e 44000000 		.4byte	.LASF159
 2832 0d12 01       		.byte	0x1
 2833 0d13 34       		.byte	0x34
 2834 0d14 01       		.byte	0x1
 2835 0d15 00000000 		.4byte	.LFB3
 2836 0d19 14010000 		.4byte	.LFE3
 2837 0d1d 3A000000 		.4byte	.LLST0
 2838 0d21 01       		.byte	0x1
 2839 0d22 CB0D0000 		.4byte	0xdcb
 2840 0d26 2D       		.uleb128 0x2d
 2841 0d27 73656300 		.ascii	"sec\000"
 2842 0d2b 01       		.byte	0x1
 2843 0d2c 34       		.byte	0x34
 2844 0d2d 49000000 		.4byte	0x49
 2845 0d31 02       		.byte	0x2
 2846 0d32 91       		.byte	0x91
 2847 0d33 54       		.sleb128 -44
ARM GAS  C:\Users\embedded\AppData\Local\Temp\ccZ0blxh.s 			page 56


 2848 0d34 2D       		.uleb128 0x2d
 2849 0d35 6D696E00 		.ascii	"min\000"
 2850 0d39 01       		.byte	0x1
 2851 0d3a 34       		.byte	0x34
 2852 0d3b 49000000 		.4byte	0x49
 2853 0d3f 02       		.byte	0x2
 2854 0d40 91       		.byte	0x91
 2855 0d41 50       		.sleb128 -48
 2856 0d42 2E       		.uleb128 0x2e
 2857 0d43 38030000 		.4byte	.LASF146
 2858 0d47 01       		.byte	0x1
 2859 0d48 34       		.byte	0x34
 2860 0d49 49000000 		.4byte	0x49
 2861 0d4d 02       		.byte	0x2
 2862 0d4e 91       		.byte	0x91
 2863 0d4f 4C       		.sleb128 -52
 2864 0d50 24       		.uleb128 0x24
 2865 0d51 09030000 		.4byte	.LASF147
 2866 0d55 01       		.byte	0x1
 2867 0d56 3F       		.byte	0x3f
 2868 0d57 CB0D0000 		.4byte	0xdcb
 2869 0d5b 02       		.byte	0x2
 2870 0d5c 91       		.byte	0x91
 2871 0d5d 60       		.sleb128 -32
 2872 0d5e 24       		.uleb128 0x24
 2873 0d5f BC020000 		.4byte	.LASF148
 2874 0d63 01       		.byte	0x1
 2875 0d64 41       		.byte	0x41
 2876 0d65 CB0D0000 		.4byte	0xdcb
 2877 0d69 02       		.byte	0x2
 2878 0d6a 91       		.byte	0x91
 2879 0d6b 5C       		.sleb128 -36
 2880 0d6c 24       		.uleb128 0x24
 2881 0d6d 66060000 		.4byte	.LASF149
 2882 0d71 01       		.byte	0x1
 2883 0d72 43       		.byte	0x43
 2884 0d73 CB0D0000 		.4byte	0xdcb
 2885 0d77 02       		.byte	0x2
 2886 0d78 91       		.byte	0x91
 2887 0d79 58       		.sleb128 -40
 2888 0d7a 2A       		.uleb128 0x2a
 2889 0d7b 4E000000 		.4byte	.LBB2
 2890 0d7f 68000000 		.4byte	.LBE2
 2891 0d83 960D0000 		.4byte	0xd96
 2892 0d87 24       		.uleb128 0x24
 2893 0d88 0F050000 		.4byte	.LASF150
 2894 0d8c 01       		.byte	0x1
 2895 0d8d 4B       		.byte	0x4b
 2896 0d8e 25000000 		.4byte	0x25
 2897 0d92 02       		.byte	0x2
 2898 0d93 91       		.byte	0x91
 2899 0d94 67       		.sleb128 -25
 2900 0d95 00       		.byte	0
 2901 0d96 2A       		.uleb128 0x2a
 2902 0d97 6E000000 		.4byte	.LBB3
 2903 0d9b 88000000 		.4byte	.LBE3
 2904 0d9f B20D0000 		.4byte	0xdb2
ARM GAS  C:\Users\embedded\AppData\Local\Temp\ccZ0blxh.s 			page 57


 2905 0da3 24       		.uleb128 0x24
 2906 0da4 0F060000 		.4byte	.LASF151
 2907 0da8 01       		.byte	0x1
 2908 0da9 50       		.byte	0x50
 2909 0daa 25000000 		.4byte	0x25
 2910 0dae 02       		.byte	0x2
 2911 0daf 91       		.byte	0x91
 2912 0db0 66       		.sleb128 -26
 2913 0db1 00       		.byte	0
 2914 0db2 28       		.uleb128 0x28
 2915 0db3 8E000000 		.4byte	.LBB4
 2916 0db7 A8000000 		.4byte	.LBE4
 2917 0dbb 24       		.uleb128 0x24
 2918 0dbc 7B050000 		.4byte	.LASF152
 2919 0dc0 01       		.byte	0x1
 2920 0dc1 55       		.byte	0x55
 2921 0dc2 25000000 		.4byte	0x25
 2922 0dc6 02       		.byte	0x2
 2923 0dc7 91       		.byte	0x91
 2924 0dc8 65       		.sleb128 -27
 2925 0dc9 00       		.byte	0
 2926 0dca 00       		.byte	0
 2927 0dcb 2F       		.uleb128 0x2f
 2928 0dcc 25000000 		.4byte	0x25
 2929 0dd0 0F       		.uleb128 0xf
 2930 0dd1 54000000 		.4byte	0x54
 2931 0dd5 02       		.byte	0x2
 2932 0dd6 00       		.byte	0
 2933 0dd7 00       		.byte	0
 2934              		.section	.debug_abbrev,"",%progbits
 2935              	.Ldebug_abbrev0:
 2936 0000 01       		.uleb128 0x1
 2937 0001 11       		.uleb128 0x11
 2938 0002 01       		.byte	0x1
 2939 0003 25       		.uleb128 0x25
 2940 0004 0E       		.uleb128 0xe
 2941 0005 13       		.uleb128 0x13
 2942 0006 0B       		.uleb128 0xb
 2943 0007 03       		.uleb128 0x3
 2944 0008 0E       		.uleb128 0xe
 2945 0009 1B       		.uleb128 0x1b
 2946 000a 0E       		.uleb128 0xe
 2947 000b 11       		.uleb128 0x11
 2948 000c 01       		.uleb128 0x1
 2949 000d 12       		.uleb128 0x12
 2950 000e 01       		.uleb128 0x1
 2951 000f 10       		.uleb128 0x10
 2952 0010 06       		.uleb128 0x6
 2953 0011 00       		.byte	0
 2954 0012 00       		.byte	0
 2955 0013 02       		.uleb128 0x2
 2956 0014 16       		.uleb128 0x16
 2957 0015 00       		.byte	0
 2958 0016 03       		.uleb128 0x3
 2959 0017 08       		.uleb128 0x8
 2960 0018 3A       		.uleb128 0x3a
 2961 0019 0B       		.uleb128 0xb
ARM GAS  C:\Users\embedded\AppData\Local\Temp\ccZ0blxh.s 			page 58


 2962 001a 3B       		.uleb128 0x3b
 2963 001b 0B       		.uleb128 0xb
 2964 001c 49       		.uleb128 0x49
 2965 001d 13       		.uleb128 0x13
 2966 001e 00       		.byte	0
 2967 001f 00       		.byte	0
 2968 0020 03       		.uleb128 0x3
 2969 0021 24       		.uleb128 0x24
 2970 0022 00       		.byte	0
 2971 0023 0B       		.uleb128 0xb
 2972 0024 0B       		.uleb128 0xb
 2973 0025 3E       		.uleb128 0x3e
 2974 0026 0B       		.uleb128 0xb
 2975 0027 03       		.uleb128 0x3
 2976 0028 0E       		.uleb128 0xe
 2977 0029 00       		.byte	0
 2978 002a 00       		.byte	0
 2979 002b 04       		.uleb128 0x4
 2980 002c 16       		.uleb128 0x16
 2981 002d 00       		.byte	0
 2982 002e 03       		.uleb128 0x3
 2983 002f 0E       		.uleb128 0xe
 2984 0030 3A       		.uleb128 0x3a
 2985 0031 0B       		.uleb128 0xb
 2986 0032 3B       		.uleb128 0x3b
 2987 0033 0B       		.uleb128 0xb
 2988 0034 49       		.uleb128 0x49
 2989 0035 13       		.uleb128 0x13
 2990 0036 00       		.byte	0
 2991 0037 00       		.byte	0
 2992 0038 05       		.uleb128 0x5
 2993 0039 24       		.uleb128 0x24
 2994 003a 00       		.byte	0
 2995 003b 0B       		.uleb128 0xb
 2996 003c 0B       		.uleb128 0xb
 2997 003d 3E       		.uleb128 0x3e
 2998 003e 0B       		.uleb128 0xb
 2999 003f 03       		.uleb128 0x3
 3000 0040 08       		.uleb128 0x8
 3001 0041 00       		.byte	0
 3002 0042 00       		.byte	0
 3003 0043 06       		.uleb128 0x6
 3004 0044 04       		.uleb128 0x4
 3005 0045 01       		.byte	0x1
 3006 0046 3E       		.uleb128 0x3e
 3007 0047 0B       		.uleb128 0xb
 3008 0048 0B       		.uleb128 0xb
 3009 0049 0B       		.uleb128 0xb
 3010 004a 49       		.uleb128 0x49
 3011 004b 13       		.uleb128 0x13
 3012 004c 3A       		.uleb128 0x3a
 3013 004d 0B       		.uleb128 0xb
 3014 004e 3B       		.uleb128 0x3b
 3015 004f 0B       		.uleb128 0xb
 3016 0050 01       		.uleb128 0x1
 3017 0051 13       		.uleb128 0x13
 3018 0052 00       		.byte	0
ARM GAS  C:\Users\embedded\AppData\Local\Temp\ccZ0blxh.s 			page 59


 3019 0053 00       		.byte	0
 3020 0054 07       		.uleb128 0x7
 3021 0055 28       		.uleb128 0x28
 3022 0056 00       		.byte	0
 3023 0057 03       		.uleb128 0x3
 3024 0058 0E       		.uleb128 0xe
 3025 0059 1C       		.uleb128 0x1c
 3026 005a 0B       		.uleb128 0xb
 3027 005b 00       		.byte	0
 3028 005c 00       		.byte	0
 3029 005d 08       		.uleb128 0x8
 3030 005e 0F       		.uleb128 0xf
 3031 005f 00       		.byte	0
 3032 0060 0B       		.uleb128 0xb
 3033 0061 0B       		.uleb128 0xb
 3034 0062 00       		.byte	0
 3035 0063 00       		.byte	0
 3036 0064 09       		.uleb128 0x9
 3037 0065 0F       		.uleb128 0xf
 3038 0066 00       		.byte	0
 3039 0067 0B       		.uleb128 0xb
 3040 0068 0B       		.uleb128 0xb
 3041 0069 49       		.uleb128 0x49
 3042 006a 13       		.uleb128 0x13
 3043 006b 00       		.byte	0
 3044 006c 00       		.byte	0
 3045 006d 0A       		.uleb128 0xa
 3046 006e 13       		.uleb128 0x13
 3047 006f 00       		.byte	0
 3048 0070 03       		.uleb128 0x3
 3049 0071 0E       		.uleb128 0xe
 3050 0072 3C       		.uleb128 0x3c
 3051 0073 0C       		.uleb128 0xc
 3052 0074 00       		.byte	0
 3053 0075 00       		.byte	0
 3054 0076 0B       		.uleb128 0xb
 3055 0077 16       		.uleb128 0x16
 3056 0078 00       		.byte	0
 3057 0079 03       		.uleb128 0x3
 3058 007a 0E       		.uleb128 0xe
 3059 007b 3A       		.uleb128 0x3a
 3060 007c 0B       		.uleb128 0xb
 3061 007d 3B       		.uleb128 0x3b
 3062 007e 05       		.uleb128 0x5
 3063 007f 49       		.uleb128 0x49
 3064 0080 13       		.uleb128 0x13
 3065 0081 00       		.byte	0
 3066 0082 00       		.byte	0
 3067 0083 0C       		.uleb128 0xc
 3068 0084 17       		.uleb128 0x17
 3069 0085 01       		.byte	0x1
 3070 0086 0B       		.uleb128 0xb
 3071 0087 0B       		.uleb128 0xb
 3072 0088 3A       		.uleb128 0x3a
 3073 0089 0B       		.uleb128 0xb
 3074 008a 3B       		.uleb128 0x3b
 3075 008b 0B       		.uleb128 0xb
ARM GAS  C:\Users\embedded\AppData\Local\Temp\ccZ0blxh.s 			page 60


 3076 008c 01       		.uleb128 0x1
 3077 008d 13       		.uleb128 0x13
 3078 008e 00       		.byte	0
 3079 008f 00       		.byte	0
 3080 0090 0D       		.uleb128 0xd
 3081 0091 0D       		.uleb128 0xd
 3082 0092 00       		.byte	0
 3083 0093 03       		.uleb128 0x3
 3084 0094 0E       		.uleb128 0xe
 3085 0095 3A       		.uleb128 0x3a
 3086 0096 0B       		.uleb128 0xb
 3087 0097 3B       		.uleb128 0x3b
 3088 0098 0B       		.uleb128 0xb
 3089 0099 49       		.uleb128 0x49
 3090 009a 13       		.uleb128 0x13
 3091 009b 00       		.byte	0
 3092 009c 00       		.byte	0
 3093 009d 0E       		.uleb128 0xe
 3094 009e 01       		.uleb128 0x1
 3095 009f 01       		.byte	0x1
 3096 00a0 49       		.uleb128 0x49
 3097 00a1 13       		.uleb128 0x13
 3098 00a2 01       		.uleb128 0x1
 3099 00a3 13       		.uleb128 0x13
 3100 00a4 00       		.byte	0
 3101 00a5 00       		.byte	0
 3102 00a6 0F       		.uleb128 0xf
 3103 00a7 21       		.uleb128 0x21
 3104 00a8 00       		.byte	0
 3105 00a9 49       		.uleb128 0x49
 3106 00aa 13       		.uleb128 0x13
 3107 00ab 2F       		.uleb128 0x2f
 3108 00ac 0B       		.uleb128 0xb
 3109 00ad 00       		.byte	0
 3110 00ae 00       		.byte	0
 3111 00af 10       		.uleb128 0x10
 3112 00b0 13       		.uleb128 0x13
 3113 00b1 01       		.byte	0x1
 3114 00b2 0B       		.uleb128 0xb
 3115 00b3 0B       		.uleb128 0xb
 3116 00b4 3A       		.uleb128 0x3a
 3117 00b5 0B       		.uleb128 0xb
 3118 00b6 3B       		.uleb128 0x3b
 3119 00b7 0B       		.uleb128 0xb
 3120 00b8 01       		.uleb128 0x1
 3121 00b9 13       		.uleb128 0x13
 3122 00ba 00       		.byte	0
 3123 00bb 00       		.byte	0
 3124 00bc 11       		.uleb128 0x11
 3125 00bd 0D       		.uleb128 0xd
 3126 00be 00       		.byte	0
 3127 00bf 03       		.uleb128 0x3
 3128 00c0 0E       		.uleb128 0xe
 3129 00c1 3A       		.uleb128 0x3a
 3130 00c2 0B       		.uleb128 0xb
 3131 00c3 3B       		.uleb128 0x3b
 3132 00c4 0B       		.uleb128 0xb
ARM GAS  C:\Users\embedded\AppData\Local\Temp\ccZ0blxh.s 			page 61


 3133 00c5 49       		.uleb128 0x49
 3134 00c6 13       		.uleb128 0x13
 3135 00c7 38       		.uleb128 0x38
 3136 00c8 0A       		.uleb128 0xa
 3137 00c9 00       		.byte	0
 3138 00ca 00       		.byte	0
 3139 00cb 12       		.uleb128 0x12
 3140 00cc 13       		.uleb128 0x13
 3141 00cd 01       		.byte	0x1
 3142 00ce 03       		.uleb128 0x3
 3143 00cf 0E       		.uleb128 0xe
 3144 00d0 0B       		.uleb128 0xb
 3145 00d1 0B       		.uleb128 0xb
 3146 00d2 3A       		.uleb128 0x3a
 3147 00d3 0B       		.uleb128 0xb
 3148 00d4 3B       		.uleb128 0x3b
 3149 00d5 0B       		.uleb128 0xb
 3150 00d6 01       		.uleb128 0x1
 3151 00d7 13       		.uleb128 0x13
 3152 00d8 00       		.byte	0
 3153 00d9 00       		.byte	0
 3154 00da 13       		.uleb128 0x13
 3155 00db 0D       		.uleb128 0xd
 3156 00dc 00       		.byte	0
 3157 00dd 03       		.uleb128 0x3
 3158 00de 08       		.uleb128 0x8
 3159 00df 3A       		.uleb128 0x3a
 3160 00e0 0B       		.uleb128 0xb
 3161 00e1 3B       		.uleb128 0x3b
 3162 00e2 0B       		.uleb128 0xb
 3163 00e3 49       		.uleb128 0x49
 3164 00e4 13       		.uleb128 0x13
 3165 00e5 38       		.uleb128 0x38
 3166 00e6 0A       		.uleb128 0xa
 3167 00e7 00       		.byte	0
 3168 00e8 00       		.byte	0
 3169 00e9 14       		.uleb128 0x14
 3170 00ea 13       		.uleb128 0x13
 3171 00eb 01       		.byte	0x1
 3172 00ec 03       		.uleb128 0x3
 3173 00ed 0E       		.uleb128 0xe
 3174 00ee 0B       		.uleb128 0xb
 3175 00ef 05       		.uleb128 0x5
 3176 00f0 3A       		.uleb128 0x3a
 3177 00f1 0B       		.uleb128 0xb
 3178 00f2 3B       		.uleb128 0x3b
 3179 00f3 0B       		.uleb128 0xb
 3180 00f4 01       		.uleb128 0x1
 3181 00f5 13       		.uleb128 0x13
 3182 00f6 00       		.byte	0
 3183 00f7 00       		.byte	0
 3184 00f8 15       		.uleb128 0x15
 3185 00f9 15       		.uleb128 0x15
 3186 00fa 00       		.byte	0
 3187 00fb 27       		.uleb128 0x27
 3188 00fc 0C       		.uleb128 0xc
 3189 00fd 00       		.byte	0
ARM GAS  C:\Users\embedded\AppData\Local\Temp\ccZ0blxh.s 			page 62


 3190 00fe 00       		.byte	0
 3191 00ff 16       		.uleb128 0x16
 3192 0100 15       		.uleb128 0x15
 3193 0101 01       		.byte	0x1
 3194 0102 27       		.uleb128 0x27
 3195 0103 0C       		.uleb128 0xc
 3196 0104 49       		.uleb128 0x49
 3197 0105 13       		.uleb128 0x13
 3198 0106 01       		.uleb128 0x1
 3199 0107 13       		.uleb128 0x13
 3200 0108 00       		.byte	0
 3201 0109 00       		.byte	0
 3202 010a 17       		.uleb128 0x17
 3203 010b 05       		.uleb128 0x5
 3204 010c 00       		.byte	0
 3205 010d 49       		.uleb128 0x49
 3206 010e 13       		.uleb128 0x13
 3207 010f 00       		.byte	0
 3208 0110 00       		.byte	0
 3209 0111 18       		.uleb128 0x18
 3210 0112 26       		.uleb128 0x26
 3211 0113 00       		.byte	0
 3212 0114 49       		.uleb128 0x49
 3213 0115 13       		.uleb128 0x13
 3214 0116 00       		.byte	0
 3215 0117 00       		.byte	0
 3216 0118 19       		.uleb128 0x19
 3217 0119 13       		.uleb128 0x13
 3218 011a 01       		.byte	0x1
 3219 011b 03       		.uleb128 0x3
 3220 011c 0E       		.uleb128 0xe
 3221 011d 0B       		.uleb128 0xb
 3222 011e 05       		.uleb128 0x5
 3223 011f 3A       		.uleb128 0x3a
 3224 0120 0B       		.uleb128 0xb
 3225 0121 3B       		.uleb128 0x3b
 3226 0122 05       		.uleb128 0x5
 3227 0123 01       		.uleb128 0x1
 3228 0124 13       		.uleb128 0x13
 3229 0125 00       		.byte	0
 3230 0126 00       		.byte	0
 3231 0127 1A       		.uleb128 0x1a
 3232 0128 0D       		.uleb128 0xd
 3233 0129 00       		.byte	0
 3234 012a 03       		.uleb128 0x3
 3235 012b 0E       		.uleb128 0xe
 3236 012c 3A       		.uleb128 0x3a
 3237 012d 0B       		.uleb128 0xb
 3238 012e 3B       		.uleb128 0x3b
 3239 012f 05       		.uleb128 0x5
 3240 0130 49       		.uleb128 0x49
 3241 0131 13       		.uleb128 0x13
 3242 0132 38       		.uleb128 0x38
 3243 0133 0A       		.uleb128 0xa
 3244 0134 00       		.byte	0
 3245 0135 00       		.byte	0
 3246 0136 1B       		.uleb128 0x1b
ARM GAS  C:\Users\embedded\AppData\Local\Temp\ccZ0blxh.s 			page 63


 3247 0137 13       		.uleb128 0x13
 3248 0138 01       		.byte	0x1
 3249 0139 03       		.uleb128 0x3
 3250 013a 0E       		.uleb128 0xe
 3251 013b 0B       		.uleb128 0xb
 3252 013c 0B       		.uleb128 0xb
 3253 013d 3A       		.uleb128 0x3a
 3254 013e 0B       		.uleb128 0xb
 3255 013f 3B       		.uleb128 0x3b
 3256 0140 05       		.uleb128 0x5
 3257 0141 01       		.uleb128 0x1
 3258 0142 13       		.uleb128 0x13
 3259 0143 00       		.byte	0
 3260 0144 00       		.byte	0
 3261 0145 1C       		.uleb128 0x1c
 3262 0146 13       		.uleb128 0x13
 3263 0147 01       		.byte	0x1
 3264 0148 0B       		.uleb128 0xb
 3265 0149 0B       		.uleb128 0xb
 3266 014a 3A       		.uleb128 0x3a
 3267 014b 0B       		.uleb128 0xb
 3268 014c 3B       		.uleb128 0x3b
 3269 014d 05       		.uleb128 0x5
 3270 014e 01       		.uleb128 0x1
 3271 014f 13       		.uleb128 0x13
 3272 0150 00       		.byte	0
 3273 0151 00       		.byte	0
 3274 0152 1D       		.uleb128 0x1d
 3275 0153 17       		.uleb128 0x17
 3276 0154 01       		.byte	0x1
 3277 0155 0B       		.uleb128 0xb
 3278 0156 0B       		.uleb128 0xb
 3279 0157 3A       		.uleb128 0x3a
 3280 0158 0B       		.uleb128 0xb
 3281 0159 3B       		.uleb128 0x3b
 3282 015a 05       		.uleb128 0x5
 3283 015b 01       		.uleb128 0x1
 3284 015c 13       		.uleb128 0x13
 3285 015d 00       		.byte	0
 3286 015e 00       		.byte	0
 3287 015f 1E       		.uleb128 0x1e
 3288 0160 0D       		.uleb128 0xd
 3289 0161 00       		.byte	0
 3290 0162 03       		.uleb128 0x3
 3291 0163 0E       		.uleb128 0xe
 3292 0164 3A       		.uleb128 0x3a
 3293 0165 0B       		.uleb128 0xb
 3294 0166 3B       		.uleb128 0x3b
 3295 0167 05       		.uleb128 0x5
 3296 0168 49       		.uleb128 0x49
 3297 0169 13       		.uleb128 0x13
 3298 016a 00       		.byte	0
 3299 016b 00       		.byte	0
 3300 016c 1F       		.uleb128 0x1f
 3301 016d 15       		.uleb128 0x15
 3302 016e 01       		.byte	0x1
 3303 016f 27       		.uleb128 0x27
ARM GAS  C:\Users\embedded\AppData\Local\Temp\ccZ0blxh.s 			page 64


 3304 0170 0C       		.uleb128 0xc
 3305 0171 01       		.uleb128 0x1
 3306 0172 13       		.uleb128 0x13
 3307 0173 00       		.byte	0
 3308 0174 00       		.byte	0
 3309 0175 20       		.uleb128 0x20
 3310 0176 34       		.uleb128 0x34
 3311 0177 00       		.byte	0
 3312 0178 03       		.uleb128 0x3
 3313 0179 0E       		.uleb128 0xe
 3314 017a 3A       		.uleb128 0x3a
 3315 017b 0B       		.uleb128 0xb
 3316 017c 3B       		.uleb128 0x3b
 3317 017d 05       		.uleb128 0x5
 3318 017e 49       		.uleb128 0x49
 3319 017f 13       		.uleb128 0x13
 3320 0180 3F       		.uleb128 0x3f
 3321 0181 0C       		.uleb128 0xc
 3322 0182 3C       		.uleb128 0x3c
 3323 0183 0C       		.uleb128 0xc
 3324 0184 00       		.byte	0
 3325 0185 00       		.byte	0
 3326 0186 21       		.uleb128 0x21
 3327 0187 04       		.uleb128 0x4
 3328 0188 01       		.byte	0x1
 3329 0189 03       		.uleb128 0x3
 3330 018a 0E       		.uleb128 0xe
 3331 018b 3E       		.uleb128 0x3e
 3332 018c 0B       		.uleb128 0xb
 3333 018d 0B       		.uleb128 0xb
 3334 018e 0B       		.uleb128 0xb
 3335 018f 49       		.uleb128 0x49
 3336 0190 13       		.uleb128 0x13
 3337 0191 3A       		.uleb128 0x3a
 3338 0192 0B       		.uleb128 0xb
 3339 0193 3B       		.uleb128 0x3b
 3340 0194 05       		.uleb128 0x5
 3341 0195 01       		.uleb128 0x1
 3342 0196 13       		.uleb128 0x13
 3343 0197 00       		.byte	0
 3344 0198 00       		.byte	0
 3345 0199 22       		.uleb128 0x22
 3346 019a 28       		.uleb128 0x28
 3347 019b 00       		.byte	0
 3348 019c 03       		.uleb128 0x3
 3349 019d 0E       		.uleb128 0xe
 3350 019e 1C       		.uleb128 0x1c
 3351 019f 0D       		.uleb128 0xd
 3352 01a0 00       		.byte	0
 3353 01a1 00       		.byte	0
 3354 01a2 23       		.uleb128 0x23
 3355 01a3 2E       		.uleb128 0x2e
 3356 01a4 01       		.byte	0x1
 3357 01a5 3F       		.uleb128 0x3f
 3358 01a6 0C       		.uleb128 0xc
 3359 01a7 03       		.uleb128 0x3
 3360 01a8 0E       		.uleb128 0xe
ARM GAS  C:\Users\embedded\AppData\Local\Temp\ccZ0blxh.s 			page 65


 3361 01a9 3A       		.uleb128 0x3a
 3362 01aa 0B       		.uleb128 0xb
 3363 01ab 3B       		.uleb128 0x3b
 3364 01ac 0B       		.uleb128 0xb
 3365 01ad 27       		.uleb128 0x27
 3366 01ae 0C       		.uleb128 0xc
 3367 01af 49       		.uleb128 0x49
 3368 01b0 13       		.uleb128 0x13
 3369 01b1 11       		.uleb128 0x11
 3370 01b2 01       		.uleb128 0x1
 3371 01b3 12       		.uleb128 0x12
 3372 01b4 01       		.uleb128 0x1
 3373 01b5 40       		.uleb128 0x40
 3374 01b6 06       		.uleb128 0x6
 3375 01b7 9642     		.uleb128 0x2116
 3376 01b9 0C       		.uleb128 0xc
 3377 01ba 01       		.uleb128 0x1
 3378 01bb 13       		.uleb128 0x13
 3379 01bc 00       		.byte	0
 3380 01bd 00       		.byte	0
 3381 01be 24       		.uleb128 0x24
 3382 01bf 34       		.uleb128 0x34
 3383 01c0 00       		.byte	0
 3384 01c1 03       		.uleb128 0x3
 3385 01c2 0E       		.uleb128 0xe
 3386 01c3 3A       		.uleb128 0x3a
 3387 01c4 0B       		.uleb128 0xb
 3388 01c5 3B       		.uleb128 0x3b
 3389 01c6 0B       		.uleb128 0xb
 3390 01c7 49       		.uleb128 0x49
 3391 01c8 13       		.uleb128 0x13
 3392 01c9 02       		.uleb128 0x2
 3393 01ca 0A       		.uleb128 0xa
 3394 01cb 00       		.byte	0
 3395 01cc 00       		.byte	0
 3396 01cd 25       		.uleb128 0x25
 3397 01ce 2E       		.uleb128 0x2e
 3398 01cf 01       		.byte	0x1
 3399 01d0 3F       		.uleb128 0x3f
 3400 01d1 0C       		.uleb128 0xc
 3401 01d2 03       		.uleb128 0x3
 3402 01d3 0E       		.uleb128 0xe
 3403 01d4 3A       		.uleb128 0x3a
 3404 01d5 0B       		.uleb128 0xb
 3405 01d6 3B       		.uleb128 0x3b
 3406 01d7 0B       		.uleb128 0xb
 3407 01d8 49       		.uleb128 0x49
 3408 01d9 13       		.uleb128 0x13
 3409 01da 3C       		.uleb128 0x3c
 3410 01db 0C       		.uleb128 0xc
 3411 01dc 01       		.uleb128 0x1
 3412 01dd 13       		.uleb128 0x13
 3413 01de 00       		.byte	0
 3414 01df 00       		.byte	0
 3415 01e0 26       		.uleb128 0x26
 3416 01e1 18       		.uleb128 0x18
 3417 01e2 00       		.byte	0
ARM GAS  C:\Users\embedded\AppData\Local\Temp\ccZ0blxh.s 			page 66


 3418 01e3 00       		.byte	0
 3419 01e4 00       		.byte	0
 3420 01e5 27       		.uleb128 0x27
 3421 01e6 34       		.uleb128 0x34
 3422 01e7 00       		.byte	0
 3423 01e8 03       		.uleb128 0x3
 3424 01e9 0E       		.uleb128 0xe
 3425 01ea 3A       		.uleb128 0x3a
 3426 01eb 0B       		.uleb128 0xb
 3427 01ec 3B       		.uleb128 0x3b
 3428 01ed 0B       		.uleb128 0xb
 3429 01ee 49       		.uleb128 0x49
 3430 01ef 13       		.uleb128 0x13
 3431 01f0 00       		.byte	0
 3432 01f1 00       		.byte	0
 3433 01f2 28       		.uleb128 0x28
 3434 01f3 0B       		.uleb128 0xb
 3435 01f4 01       		.byte	0x1
 3436 01f5 11       		.uleb128 0x11
 3437 01f6 01       		.uleb128 0x1
 3438 01f7 12       		.uleb128 0x12
 3439 01f8 01       		.uleb128 0x1
 3440 01f9 00       		.byte	0
 3441 01fa 00       		.byte	0
 3442 01fb 29       		.uleb128 0x29
 3443 01fc 2E       		.uleb128 0x2e
 3444 01fd 01       		.byte	0x1
 3445 01fe 3F       		.uleb128 0x3f
 3446 01ff 0C       		.uleb128 0xc
 3447 0200 03       		.uleb128 0x3
 3448 0201 0E       		.uleb128 0xe
 3449 0202 3A       		.uleb128 0x3a
 3450 0203 0B       		.uleb128 0xb
 3451 0204 3B       		.uleb128 0x3b
 3452 0205 05       		.uleb128 0x5
 3453 0206 49       		.uleb128 0x49
 3454 0207 13       		.uleb128 0x13
 3455 0208 3C       		.uleb128 0x3c
 3456 0209 0C       		.uleb128 0xc
 3457 020a 01       		.uleb128 0x1
 3458 020b 13       		.uleb128 0x13
 3459 020c 00       		.byte	0
 3460 020d 00       		.byte	0
 3461 020e 2A       		.uleb128 0x2a
 3462 020f 0B       		.uleb128 0xb
 3463 0210 01       		.byte	0x1
 3464 0211 11       		.uleb128 0x11
 3465 0212 01       		.uleb128 0x1
 3466 0213 12       		.uleb128 0x12
 3467 0214 01       		.uleb128 0x1
 3468 0215 01       		.uleb128 0x1
 3469 0216 13       		.uleb128 0x13
 3470 0217 00       		.byte	0
 3471 0218 00       		.byte	0
 3472 0219 2B       		.uleb128 0x2b
 3473 021a 2E       		.uleb128 0x2e
 3474 021b 01       		.byte	0x1
ARM GAS  C:\Users\embedded\AppData\Local\Temp\ccZ0blxh.s 			page 67


 3475 021c 3F       		.uleb128 0x3f
 3476 021d 0C       		.uleb128 0xc
 3477 021e 03       		.uleb128 0x3
 3478 021f 0E       		.uleb128 0xe
 3479 0220 3A       		.uleb128 0x3a
 3480 0221 0B       		.uleb128 0xb
 3481 0222 3B       		.uleb128 0x3b
 3482 0223 0B       		.uleb128 0xb
 3483 0224 49       		.uleb128 0x49
 3484 0225 13       		.uleb128 0x13
 3485 0226 3C       		.uleb128 0x3c
 3486 0227 0C       		.uleb128 0xc
 3487 0228 00       		.byte	0
 3488 0229 00       		.byte	0
 3489 022a 2C       		.uleb128 0x2c
 3490 022b 2E       		.uleb128 0x2e
 3491 022c 01       		.byte	0x1
 3492 022d 3F       		.uleb128 0x3f
 3493 022e 0C       		.uleb128 0xc
 3494 022f 03       		.uleb128 0x3
 3495 0230 0E       		.uleb128 0xe
 3496 0231 3A       		.uleb128 0x3a
 3497 0232 0B       		.uleb128 0xb
 3498 0233 3B       		.uleb128 0x3b
 3499 0234 0B       		.uleb128 0xb
 3500 0235 27       		.uleb128 0x27
 3501 0236 0C       		.uleb128 0xc
 3502 0237 11       		.uleb128 0x11
 3503 0238 01       		.uleb128 0x1
 3504 0239 12       		.uleb128 0x12
 3505 023a 01       		.uleb128 0x1
 3506 023b 40       		.uleb128 0x40
 3507 023c 06       		.uleb128 0x6
 3508 023d 9642     		.uleb128 0x2116
 3509 023f 0C       		.uleb128 0xc
 3510 0240 01       		.uleb128 0x1
 3511 0241 13       		.uleb128 0x13
 3512 0242 00       		.byte	0
 3513 0243 00       		.byte	0
 3514 0244 2D       		.uleb128 0x2d
 3515 0245 05       		.uleb128 0x5
 3516 0246 00       		.byte	0
 3517 0247 03       		.uleb128 0x3
 3518 0248 08       		.uleb128 0x8
 3519 0249 3A       		.uleb128 0x3a
 3520 024a 0B       		.uleb128 0xb
 3521 024b 3B       		.uleb128 0x3b
 3522 024c 0B       		.uleb128 0xb
 3523 024d 49       		.uleb128 0x49
 3524 024e 13       		.uleb128 0x13
 3525 024f 02       		.uleb128 0x2
 3526 0250 0A       		.uleb128 0xa
 3527 0251 00       		.byte	0
 3528 0252 00       		.byte	0
 3529 0253 2E       		.uleb128 0x2e
 3530 0254 05       		.uleb128 0x5
 3531 0255 00       		.byte	0
ARM GAS  C:\Users\embedded\AppData\Local\Temp\ccZ0blxh.s 			page 68


 3532 0256 03       		.uleb128 0x3
 3533 0257 0E       		.uleb128 0xe
 3534 0258 3A       		.uleb128 0x3a
 3535 0259 0B       		.uleb128 0xb
 3536 025a 3B       		.uleb128 0x3b
 3537 025b 0B       		.uleb128 0xb
 3538 025c 49       		.uleb128 0x49
 3539 025d 13       		.uleb128 0x13
 3540 025e 02       		.uleb128 0x2
 3541 025f 0A       		.uleb128 0xa
 3542 0260 00       		.byte	0
 3543 0261 00       		.byte	0
 3544 0262 2F       		.uleb128 0x2f
 3545 0263 01       		.uleb128 0x1
 3546 0264 01       		.byte	0x1
 3547 0265 49       		.uleb128 0x49
 3548 0266 13       		.uleb128 0x13
 3549 0267 00       		.byte	0
 3550 0268 00       		.byte	0
 3551 0269 00       		.byte	0
 3552              		.section	.debug_loc,"",%progbits
 3553              	.Ldebug_loc0:
 3554              	.LLST1:
 3555 0000 14010000 		.4byte	.LFB4-.Ltext0
 3556 0004 16010000 		.4byte	.LCFI3-.Ltext0
 3557 0008 0200     		.2byte	0x2
 3558 000a 7D       		.byte	0x7d
 3559 000b 00       		.sleb128 0
 3560 000c 16010000 		.4byte	.LCFI3-.Ltext0
 3561 0010 18010000 		.4byte	.LCFI4-.Ltext0
 3562 0014 0200     		.2byte	0x2
 3563 0016 7D       		.byte	0x7d
 3564 0017 0C       		.sleb128 12
 3565 0018 18010000 		.4byte	.LCFI4-.Ltext0
 3566 001c 1A010000 		.4byte	.LCFI5-.Ltext0
 3567 0020 0300     		.2byte	0x3
 3568 0022 7D       		.byte	0x7d
 3569 0023 B801     		.sleb128 184
 3570 0025 1A010000 		.4byte	.LCFI5-.Ltext0
 3571 0029 BC060000 		.4byte	.LFE4-.Ltext0
 3572 002d 0300     		.2byte	0x3
 3573 002f 77       		.byte	0x77
 3574 0030 B801     		.sleb128 184
 3575 0032 00000000 		.4byte	0
 3576 0036 00000000 		.4byte	0
 3577              	.LLST0:
 3578 003a 00000000 		.4byte	.LFB3-.Ltext0
 3579 003e 02000000 		.4byte	.LCFI0-.Ltext0
 3580 0042 0200     		.2byte	0x2
 3581 0044 7D       		.byte	0x7d
 3582 0045 00       		.sleb128 0
 3583 0046 02000000 		.4byte	.LCFI0-.Ltext0
 3584 004a 04000000 		.4byte	.LCFI1-.Ltext0
 3585 004e 0200     		.2byte	0x2
 3586 0050 7D       		.byte	0x7d
 3587 0051 14       		.sleb128 20
 3588 0052 04000000 		.4byte	.LCFI1-.Ltext0
ARM GAS  C:\Users\embedded\AppData\Local\Temp\ccZ0blxh.s 			page 69


 3589 0056 06000000 		.4byte	.LCFI2-.Ltext0
 3590 005a 0200     		.2byte	0x2
 3591 005c 7D       		.byte	0x7d
 3592 005d 38       		.sleb128 56
 3593 005e 06000000 		.4byte	.LCFI2-.Ltext0
 3594 0062 14010000 		.4byte	.LFE3-.Ltext0
 3595 0066 0200     		.2byte	0x2
 3596 0068 77       		.byte	0x77
 3597 0069 38       		.sleb128 56
 3598 006a 00000000 		.4byte	0
 3599 006e 00000000 		.4byte	0
 3600              		.section	.debug_aranges,"",%progbits
 3601 0000 1C000000 		.4byte	0x1c
 3602 0004 0200     		.2byte	0x2
 3603 0006 00000000 		.4byte	.Ldebug_info0
 3604 000a 04       		.byte	0x4
 3605 000b 00       		.byte	0
 3606 000c 0000     		.2byte	0
 3607 000e 0000     		.2byte	0
 3608 0010 00000000 		.4byte	.Ltext0
 3609 0014 BC060000 		.4byte	.Letext0-.Ltext0
 3610 0018 00000000 		.4byte	0
 3611 001c 00000000 		.4byte	0
 3612              		.section	.debug_line,"",%progbits
 3613              	.Ldebug_line0:
 3614 0000 24020000 		.section	.debug_str,"MS",%progbits,1
 3614      0200EB00 
 3614      00000201 
 3614      FB0E0D00 
 3614      01010101 
 3615              	.LASF42:
 3616 0000 5F64736F 		.ascii	"_dso_handle\000"
 3616      5F68616E 
 3616      646C6500 
 3617              	.LASF158:
 3618 000c 6D657373 		.ascii	"messagePointer\000"
 3618      61676550 
 3618      6F696E74 
 3618      657200
 3619              	.LASF50:
 3620 001b 5F73697A 		.ascii	"_size\000"
 3620      6500
 3621              	.LASF95:
 3622 0021 5F72616E 		.ascii	"_rand48\000"
 3622      64343800 
 3623              	.LASF74:
 3624 0029 5F656D65 		.ascii	"_emergency\000"
 3624      7267656E 
 3624      637900
 3625              	.LASF136:
 3626 0034 63686172 		.ascii	"charArray\000"
 3626      41727261 
 3626      7900
 3627              	.LASF64:
 3628 003e 5F646174 		.ascii	"_data\000"
 3628      6100
 3629              	.LASF159:
ARM GAS  C:\Users\embedded\AppData\Local\Temp\ccZ0blxh.s 			page 70


 3630 0044 73686F77 		.ascii	"showTime\000"
 3630      54696D65 
 3630      00
 3631              	.LASF115:
 3632 004d 5F776372 		.ascii	"_wcrtomb_state\000"
 3632      746F6D62 
 3632      5F737461 
 3632      746500
 3633              	.LASF116:
 3634 005c 5F776373 		.ascii	"_wcsrtombs_state\000"
 3634      72746F6D 
 3634      62735F73 
 3634      74617465 
 3634      00
 3635              	.LASF5:
 3636 006d 6C6F6E67 		.ascii	"long long unsigned int\000"
 3636      206C6F6E 
 3636      6720756E 
 3636      7369676E 
 3636      65642069 
 3637              	.LASF130:
 3638 0084 5F5F6664 		.ascii	"__fdlibm_posix\000"
 3638      6C69626D 
 3638      5F706F73 
 3638      697800
 3639              	.LASF54:
 3640 0093 5F6C6266 		.ascii	"_lbfsize\000"
 3640      73697A65 
 3640      00
 3641              	.LASF122:
 3642 009c 5F5F6C6F 		.ascii	"__locale_t\000"
 3642      63616C65 
 3642      5F7400
 3643              	.LASF129:
 3644 00a7 5F5F6664 		.ascii	"__fdlibm_xopen\000"
 3644      6C69626D 
 3644      5F786F70 
 3644      656E00
 3645              	.LASF113:
 3646 00b6 5F6D6272 		.ascii	"_mbrtowc_state\000"
 3646      746F7763 
 3646      5F737461 
 3646      746500
 3647              	.LASF31:
 3648 00c5 5F5F746D 		.ascii	"__tm_sec\000"
 3648      5F736563 
 3648      00
 3649              	.LASF8:
 3650 00ce 6C6F6E67 		.ascii	"long long int\000"
 3650      206C6F6E 
 3650      6720696E 
 3650      7400
 3651              	.LASF6:
 3652 00dc 7369676E 		.ascii	"signed char\000"
 3652      65642063 
 3652      68617200 
 3653              	.LASF60:
ARM GAS  C:\Users\embedded\AppData\Local\Temp\ccZ0blxh.s 			page 71


 3654 00e8 5F756275 		.ascii	"_ubuf\000"
 3654      6600
 3655              	.LASF49:
 3656 00ee 5F626173 		.ascii	"_base\000"
 3656      6500
 3657              	.LASF33:
 3658 00f4 5F5F746D 		.ascii	"__tm_hour\000"
 3658      5F686F75 
 3658      7200
 3659              	.LASF89:
 3660 00fe 5F5F7366 		.ascii	"__sf\000"
 3660      00
 3661              	.LASF40:
 3662 0103 5F6F6E5F 		.ascii	"_on_exit_args\000"
 3662      65786974 
 3662      5F617267 
 3662      7300
 3663              	.LASF55:
 3664 0111 5F636F6F 		.ascii	"_cookie\000"
 3664      6B696500 
 3665              	.LASF88:
 3666 0119 5F5F7367 		.ascii	"__sglue\000"
 3666      6C756500 
 3667              	.LASF0:
 3668 0121 74553136 		.ascii	"tU16\000"
 3668      00
 3669              	.LASF11:
 3670 0126 6C6F6E67 		.ascii	"long int\000"
 3670      20696E74 
 3670      00
 3671              	.LASF52:
 3672 012f 5F666C61 		.ascii	"_flags\000"
 3672      677300
 3673              	.LASF44:
 3674 0136 5F69735F 		.ascii	"_is_cxa\000"
 3674      63786100 
 3675              	.LASF70:
 3676 013e 5F737464 		.ascii	"_stdin\000"
 3676      696E00
 3677              	.LASF128:
 3678 0145 5F5F6664 		.ascii	"__fdlibm_svid\000"
 3678      6C69626D 
 3678      5F737669 
 3678      6400
 3679              	.LASF132:
 3680 0153 70636139 		.ascii	"pca9532Present\000"
 3680      35333250 
 3680      72657365 
 3680      6E7400
 3681              	.LASF62:
 3682 0162 5F626C6B 		.ascii	"_blksize\000"
 3682      73697A65 
 3682      00
 3683              	.LASF126:
 3684 016b 646F7562 		.ascii	"double\000"
 3684      6C6500
 3685              	.LASF84:
ARM GAS  C:\Users\embedded\AppData\Local\Temp\ccZ0blxh.s 			page 72


 3686 0172 5F637674 		.ascii	"_cvtbuf\000"
 3686      62756600 
 3687              	.LASF63:
 3688 017a 5F6F6666 		.ascii	"_offset\000"
 3688      73657400 
 3689              	.LASF114:
 3690 0182 5F6D6273 		.ascii	"_mbsrtowcs_state\000"
 3690      72746F77 
 3690      63735F73 
 3690      74617465 
 3690      00
 3691              	.LASF112:
 3692 0193 5F6D6272 		.ascii	"_mbrlen_state\000"
 3692      6C656E5F 
 3692      73746174 
 3692      6500
 3693              	.LASF41:
 3694 01a1 5F666E61 		.ascii	"_fnargs\000"
 3694      72677300 
 3695              	.LASF47:
 3696 01a9 5F666E73 		.ascii	"_fns\000"
 3696      00
 3697              	.LASF27:
 3698 01ae 5F736967 		.ascii	"_sign\000"
 3698      6E00
 3699              	.LASF23:
 3700 01b4 5F666C6F 		.ascii	"_flock_t\000"
 3700      636B5F74 
 3700      00
 3701              	.LASF72:
 3702 01bd 5F737464 		.ascii	"_stderr\000"
 3702      65727200 
 3703              	.LASF29:
 3704 01c5 5F426967 		.ascii	"_Bigint\000"
 3704      696E7400 
 3705              	.LASF103:
 3706 01cd 5F67616D 		.ascii	"_gamma_signgam\000"
 3706      6D615F73 
 3706      69676E67 
 3706      616D00
 3707              	.LASF56:
 3708 01dc 5F726561 		.ascii	"_read\000"
 3708      6400
 3709              	.LASF80:
 3710 01e2 5F726573 		.ascii	"_result_k\000"
 3710      756C745F 
 3710      6B00
 3711              	.LASF30:
 3712 01ec 5F5F746D 		.ascii	"__tm\000"
 3712      00
 3713              	.LASF4:
 3714 01f1 756E7369 		.ascii	"unsigned int\000"
 3714      676E6564 
 3714      20696E74 
 3714      00
 3715              	.LASF19:
 3716 01fe 5F5F7763 		.ascii	"__wchb\000"
ARM GAS  C:\Users\embedded\AppData\Local\Temp\ccZ0blxh.s 			page 73


 3716      686200
 3717              	.LASF133:
 3718 0205 6C6D3735 		.ascii	"lm75address\000"
 3718      61646472 
 3718      65737300 
 3719              	.LASF71:
 3720 0211 5F737464 		.ascii	"_stdout\000"
 3720      6F757400 
 3721              	.LASF83:
 3722 0219 5F637674 		.ascii	"_cvtlen\000"
 3722      6C656E00 
 3723              	.LASF140:
 3724 0221 74656D70 		.ascii	"temp_MIN\000"
 3724      5F4D494E 
 3724      00
 3725              	.LASF12:
 3726 022a 6C6F6E67 		.ascii	"long unsigned int\000"
 3726      20756E73 
 3726      69676E65 
 3726      6420696E 
 3726      7400
 3727              	.LASF144:
 3728 023c 73657450 		.ascii	"setPca9532Pin\000"
 3728      63613935 
 3728      33325069 
 3728      6E00
 3729              	.LASF53:
 3730 024a 5F66696C 		.ascii	"_file\000"
 3730      6500
 3731              	.LASF93:
 3732 0250 5F6E696F 		.ascii	"_niobs\000"
 3732      627300
 3733              	.LASF2:
 3734 0257 73686F72 		.ascii	"short unsigned int\000"
 3734      7420756E 
 3734      7369676E 
 3734      65642069 
 3734      6E7400
 3735              	.LASF86:
 3736 026a 5F617465 		.ascii	"_atexit0\000"
 3736      78697430 
 3736      00
 3737              	.LASF110:
 3738 0273 5F736967 		.ascii	"_signal_buf\000"
 3738      6E616C5F 
 3738      62756600 
 3739              	.LASF101:
 3740 027f 5F617363 		.ascii	"_asctime_buf\000"
 3740      74696D65 
 3740      5F627566 
 3740      00
 3741              	.LASF135:
 3742 028c 63757272 		.ascii	"currentType\000"
 3742      656E7454 
 3742      79706500 
 3743              	.LASF79:
 3744 0298 5F726573 		.ascii	"_result\000"
ARM GAS  C:\Users\embedded\AppData\Local\Temp\ccZ0blxh.s 			page 74


 3744      756C7400 
 3745              	.LASF18:
 3746 02a0 5F5F7763 		.ascii	"__wch\000"
 3746      6800
 3747              	.LASF14:
 3748 02a6 5F4C4F43 		.ascii	"_LOCK_T\000"
 3748      4B5F5400 
 3749              	.LASF154:
 3750 02ae 6D61696E 		.ascii	"main.c\000"
 3750      2E6300
 3751              	.LASF17:
 3752 02b5 77696E74 		.ascii	"wint_t\000"
 3752      5F7400
 3753              	.LASF148:
 3754 02bc 7461624D 		.ascii	"tabMin\000"
 3754      696E00
 3755              	.LASF65:
 3756 02c3 5F6C6F63 		.ascii	"_lock\000"
 3756      6B00
 3757              	.LASF3:
 3758 02c9 74553332 		.ascii	"tU32\000"
 3758      00
 3759              	.LASF139:
 3760 02ce 74656D70 		.ascii	"temp_SEC\000"
 3760      5F534543 
 3760      00
 3761              	.LASF142:
 3762 02d7 6B657973 		.ascii	"keys\000"
 3762      00
 3763              	.LASF57:
 3764 02dc 5F777269 		.ascii	"_write\000"
 3764      746500
 3765              	.LASF36:
 3766 02e3 5F5F746D 		.ascii	"__tm_year\000"
 3766      5F796561 
 3766      7200
 3767              	.LASF138:
 3768 02ed 72656164 		.ascii	"readTemperature\000"
 3768      54656D70 
 3768      65726174 
 3768      75726500 
 3769              	.LASF13:
 3770 02fd 6C6F6E67 		.ascii	"long double\000"
 3770      20646F75 
 3770      626C6500 
 3771              	.LASF147:
 3772 0309 74616253 		.ascii	"tabS\000"
 3772      00
 3773              	.LASF118:
 3774 030e 5F6E6578 		.ascii	"_nextf\000"
 3774      746600
 3775              	.LASF35:
 3776 0315 5F5F746D 		.ascii	"__tm_mon\000"
 3776      5F6D6F6E 
 3776      00
 3777              	.LASF45:
 3778 031e 5F617465 		.ascii	"_atexit\000"
ARM GAS  C:\Users\embedded\AppData\Local\Temp\ccZ0blxh.s 			page 75


 3778      78697400 
 3779              	.LASF77:
 3780 0326 5F5F7364 		.ascii	"__sdidinit\000"
 3780      6964696E 
 3780      697400
 3781              	.LASF15:
 3782 0331 5F6F6666 		.ascii	"_off_t\000"
 3782      5F7400
 3783              	.LASF146:
 3784 0338 686F7572 		.ascii	"hour\000"
 3784      00
 3785              	.LASF155:
 3786 033d 433A5C45 		.ascii	"C:\\Embedded\\2138MiniDemo\\2138\000"
 3786      6D626564 
 3786      6465645C 
 3786      32313338 
 3786      4D696E69 
 3787              	.LASF141:
 3788 035b 74656D70 		.ascii	"temp_HOUR\000"
 3788      5F484F55 
 3788      5200
 3789              	.LASF125:
 3790 0365 666C6F61 		.ascii	"float\000"
 3790      7400
 3791              	.LASF9:
 3792 036b 46414C53 		.ascii	"FALSE\000"
 3792      4500
 3793              	.LASF153:
 3794 0371 474E5520 		.ascii	"GNU C11 7.3.1 20180622 (release) [ARM/embedded-7-br"
 3794      43313120 
 3794      372E332E 
 3794      31203230 
 3794      31383036 
 3795 03a4 616E6368 		.ascii	"anch revision 261907] -mcpu=arm7tdmi -mthumb -mthum"
 3795      20726576 
 3795      6973696F 
 3795      6E203236 
 3795      31393037 
 3796 03d7 622D696E 		.ascii	"b-interwork -gdwarf-2 -O0\000"
 3796      74657277 
 3796      6F726B20 
 3796      2D676477 
 3796      6172662D 
 3797              	.LASF108:
 3798 03f1 5F776374 		.ascii	"_wctomb_state\000"
 3798      6F6D625F 
 3798      73746174 
 3798      6500
 3799              	.LASF145:
 3800 03ff 67657450 		.ascii	"getPca9532Pin\000"
 3800      63613935 
 3800      33325069 
 3800      6E00
 3801              	.LASF106:
 3802 040d 5F6D626C 		.ascii	"_mblen_state\000"
 3802      656E5F73 
 3802      74617465 
ARM GAS  C:\Users\embedded\AppData\Local\Temp\ccZ0blxh.s 			page 76


 3802      00
 3803              	.LASF1:
 3804 041a 756E7369 		.ascii	"unsigned char\000"
 3804      676E6564 
 3804      20636861 
 3804      7200
 3805              	.LASF85:
 3806 0428 5F6E6577 		.ascii	"_new\000"
 3806      00
 3807              	.LASF117:
 3808 042d 5F685F65 		.ascii	"_h_errno\000"
 3808      72726E6F 
 3808      00
 3809              	.LASF7:
 3810 0436 73686F72 		.ascii	"short int\000"
 3810      7420696E 
 3810      7400
 3811              	.LASF38:
 3812 0440 5F5F746D 		.ascii	"__tm_yday\000"
 3812      5F796461 
 3812      7900
 3813              	.LASF48:
 3814 044a 5F5F7362 		.ascii	"__sbuf\000"
 3814      756600
 3815              	.LASF67:
 3816 0451 5F666C61 		.ascii	"_flags2\000"
 3816      67733200 
 3817              	.LASF82:
 3818 0459 5F667265 		.ascii	"_freelist\000"
 3818      656C6973 
 3818      7400
 3819              	.LASF91:
 3820 0463 5F5F4649 		.ascii	"__FILE\000"
 3820      4C4500
 3821              	.LASF22:
 3822 046a 5F6D6273 		.ascii	"_mbstate_t\000"
 3822      74617465 
 3822      5F7400
 3823              	.LASF51:
 3824 0475 5F5F7346 		.ascii	"__sFILE\000"
 3824      494C4500 
 3825              	.LASF66:
 3826 047d 5F6D6273 		.ascii	"_mbstate\000"
 3826      74617465 
 3826      00
 3827              	.LASF104:
 3828 0486 5F72616E 		.ascii	"_rand_next\000"
 3828      645F6E65 
 3828      787400
 3829              	.LASF94:
 3830 0491 5F696F62 		.ascii	"_iobs\000"
 3830      7300
 3831              	.LASF73:
 3832 0497 5F696E63 		.ascii	"_inc\000"
 3832      00
 3833              	.LASF46:
 3834 049c 5F696E64 		.ascii	"_ind\000"
ARM GAS  C:\Users\embedded\AppData\Local\Temp\ccZ0blxh.s 			page 77


 3834      00
 3835              	.LASF76:
 3836 04a1 5F6C6F63 		.ascii	"_locale\000"
 3836      616C6500 
 3837              	.LASF78:
 3838 04a9 5F5F636C 		.ascii	"__cleanup\000"
 3838      65616E75 
 3838      7000
 3839              	.LASF75:
 3840 04b3 5F756E73 		.ascii	"_unspecified_locale_info\000"
 3840      70656369 
 3840      66696564 
 3840      5F6C6F63 
 3840      616C655F 
 3841              	.LASF10:
 3842 04cc 54525545 		.ascii	"TRUE\000"
 3842      00
 3843              	.LASF68:
 3844 04d1 5F726565 		.ascii	"_reent\000"
 3844      6E7400
 3845              	.LASF96:
 3846 04d8 5F736565 		.ascii	"_seed\000"
 3846      6400
 3847              	.LASF20:
 3848 04de 5F5F636F 		.ascii	"__count\000"
 3848      756E7400 
 3849              	.LASF121:
 3850 04e6 5F5F6C6F 		.ascii	"__lock\000"
 3850      636B00
 3851              	.LASF21:
 3852 04ed 5F5F7661 		.ascii	"__value\000"
 3852      6C756500 
 3853              	.LASF58:
 3854 04f5 5F736565 		.ascii	"_seek\000"
 3854      6B00
 3855              	.LASF123:
 3856 04fb 5F696D70 		.ascii	"_impure_ptr\000"
 3856      7572655F 
 3856      70747200 
 3857              	.LASF16:
 3858 0507 5F66706F 		.ascii	"_fpos_t\000"
 3858      735F7400 
 3859              	.LASF150:
 3860 050f 74656D70 		.ascii	"temp1\000"
 3860      3100
 3861              	.LASF69:
 3862 0515 5F657272 		.ascii	"_errno\000"
 3862      6E6F00
 3863              	.LASF90:
 3864 051c 63686172 		.ascii	"char\000"
 3864      00
 3865              	.LASF32:
 3866 0521 5F5F746D 		.ascii	"__tm_min\000"
 3866      5F6D696E 
 3866      00
 3867              	.LASF97:
 3868 052a 5F6D756C 		.ascii	"_mult\000"
ARM GAS  C:\Users\embedded\AppData\Local\Temp\ccZ0blxh.s 			page 78


 3868      7400
 3869              	.LASF25:
 3870 0530 5F6E6578 		.ascii	"_next\000"
 3870      7400
 3871              	.LASF100:
 3872 0536 5F737472 		.ascii	"_strtok_last\000"
 3872      746F6B5F 
 3872      6C617374 
 3872      00
 3873              	.LASF43:
 3874 0543 5F666E74 		.ascii	"_fntypes\000"
 3874      79706573 
 3874      00
 3875              	.LASF26:
 3876 054c 5F6D6178 		.ascii	"_maxwds\000"
 3876      77647300 
 3877              	.LASF137:
 3878 0554 6D657373 		.ascii	"messageHolder\000"
 3878      61676548 
 3878      6F6C6465 
 3878      7200
 3879              	.LASF143:
 3880 0562 70636139 		.ascii	"pca9532Init\000"
 3880      35333249 
 3880      6E697400 
 3881              	.LASF98:
 3882 056e 5F616464 		.ascii	"_add\000"
 3882      00
 3883              	.LASF24:
 3884 0573 5F5F554C 		.ascii	"__ULong\000"
 3884      6F6E6700 
 3885              	.LASF152:
 3886 057b 74656D70 		.ascii	"temp3\000"
 3886      3300
 3887              	.LASF111:
 3888 0581 5F676574 		.ascii	"_getdate_err\000"
 3888      64617465 
 3888      5F657272 
 3888      00
 3889              	.LASF156:
 3890 058e 5F5F6664 		.ascii	"__fdlibm_version\000"
 3890      6C69626D 
 3890      5F766572 
 3890      73696F6E 
 3890      00
 3891              	.LASF124:
 3892 059f 5F676C6F 		.ascii	"_global_impure_ptr\000"
 3892      62616C5F 
 3892      696D7075 
 3892      72655F70 
 3892      747200
 3893              	.LASF127:
 3894 05b2 5F5F6664 		.ascii	"__fdlibm_ieee\000"
 3894      6C69626D 
 3894      5F696565 
 3894      6500
 3895              	.LASF99:
ARM GAS  C:\Users\embedded\AppData\Local\Temp\ccZ0blxh.s 			page 79


 3896 05c0 5F756E75 		.ascii	"_unused_rand\000"
 3896      7365645F 
 3896      72616E64 
 3896      00
 3897              	.LASF28:
 3898 05cd 5F776473 		.ascii	"_wds\000"
 3898      00
 3899              	.LASF37:
 3900 05d2 5F5F746D 		.ascii	"__tm_wday\000"
 3900      5F776461 
 3900      7900
 3901              	.LASF92:
 3902 05dc 5F676C75 		.ascii	"_glue\000"
 3902      6500
 3903              	.LASF131:
 3904 05e2 5F5F6664 		.ascii	"__fdlib_version\000"
 3904      6C69625F 
 3904      76657273 
 3904      696F6E00 
 3905              	.LASF119:
 3906 05f2 5F6E6D61 		.ascii	"_nmalloc\000"
 3906      6C6C6F63 
 3906      00
 3907              	.LASF109:
 3908 05fb 5F6C3634 		.ascii	"_l64a_buf\000"
 3908      615F6275 
 3908      6600
 3909              	.LASF87:
 3910 0605 5F736967 		.ascii	"_sig_func\000"
 3910      5F66756E 
 3910      6300
 3911              	.LASF151:
 3912 060f 74656D70 		.ascii	"temp2\000"
 3912      3200
 3913              	.LASF61:
 3914 0615 5F6E6275 		.ascii	"_nbuf\000"
 3914      6600
 3915              	.LASF120:
 3916 061b 5F756E75 		.ascii	"_unused\000"
 3916      73656400 
 3917              	.LASF39:
 3918 0623 5F5F746D 		.ascii	"__tm_isdst\000"
 3918      5F697364 
 3918      737400
 3919              	.LASF102:
 3920 062e 5F6C6F63 		.ascii	"_localtime_buf\000"
 3920      616C7469 
 3920      6D655F62 
 3920      756600
 3921              	.LASF59:
 3922 063d 5F636C6F 		.ascii	"_close\000"
 3922      736500
 3923              	.LASF105:
 3924 0644 5F723438 		.ascii	"_r48\000"
 3924      00
 3925              	.LASF134:
 3926 0649 69735469 		.ascii	"isTimeBeingSet\000"
ARM GAS  C:\Users\embedded\AppData\Local\Temp\ccZ0blxh.s 			page 80


 3926      6D654265 
 3926      696E6753 
 3926      657400
 3927              	.LASF107:
 3928 0658 5F6D6274 		.ascii	"_mbtowc_state\000"
 3928      6F77635F 
 3928      73746174 
 3928      6500
 3929              	.LASF149:
 3930 0666 74616248 		.ascii	"tabHr\000"
 3930      7200
 3931              	.LASF81:
 3932 066c 5F703573 		.ascii	"_p5s\000"
 3932      00
 3933              	.LASF157:
 3934 0671 6D61696E 		.ascii	"main\000"
 3934      00
 3935              	.LASF34:
 3936 0676 5F5F746D 		.ascii	"__tm_mday\000"
 3936      5F6D6461 
 3936      7900
 3937              		.ident	"GCC: (GNU Tools for Arm Embedded Processors 7-2018-q2-update) 7.3.1 20180622 (release) [AR
ARM GAS  C:\Users\embedded\AppData\Local\Temp\ccZ0blxh.s 			page 81


DEFINED SYMBOLS
                            *ABS*:00000000 main.c
C:\Users\embedded\AppData\Local\Temp\ccZ0blxh.s:16     .rodata:00000000 $d
C:\Users\embedded\AppData\Local\Temp\ccZ0blxh.s:30     .text:00000000 showTime
C:\Users\embedded\AppData\Local\Temp\ccZ0blxh.s:38     .text:00000000 $t
C:\Users\embedded\AppData\Local\Temp\ccZ0blxh.s:211    .text:0000010c $d
C:\Users\embedded\AppData\Local\Temp\ccZ0blxh.s:224    .text:00000114 $t
C:\Users\embedded\AppData\Local\Temp\ccZ0blxh.s:231    .text:00000114 main
C:\Users\embedded\AppData\Local\Temp\ccZ0blxh.s:639    .text:0000039c $d
C:\Users\embedded\AppData\Local\Temp\ccZ0blxh.s:655    .text:000003d4 $t
C:\Users\embedded\AppData\Local\Temp\ccZ0blxh.s:1100   .text:000006a8 $d

UNDEFINED SYMBOLS
sprintf
lcdGotoxy
lcdPuts
i2cInit
pca9532Init
printf_init
lcdInit
lcdColor
lcdClrscr
memset
sdelay
setPca9532Pin
getPca9532Pin
measureTemperature
calculateTemperatureValue
