ARM GAS  C:\Users\embedded\AppData\Local\Temp\ccOrxL0D.s 			page 1


   1              		.cpu arm7tdmi
   2              		.eabi_attribute 20, 1
   3              		.eabi_attribute 21, 1
   4              		.eabi_attribute 23, 3
   5              		.eabi_attribute 24, 1
   6              		.eabi_attribute 25, 1
   7              		.eabi_attribute 26, 1
   8              		.eabi_attribute 30, 6
   9              		.eabi_attribute 34, 0
  10              		.eabi_attribute 18, 4
  11              		.file	"main.c"
  12              		.text
  13              	.Ltext0:
  14              		.cfi_sections	.debug_frame
  15              		.comm	samples,1,4
  16              		.section	.rodata
  17              		.align	2
  18              	.LC18:
  19 0000 256400   		.ascii	"%d\000"
  20 0003 00       		.align	2
  21              	.LC0:
  22 0004 54656D70 		.ascii	"Temperatura: \000\000"
  22      65726174 
  22      7572613A 
  22      200000
  23 0013 00       		.align	2
  24              	.LC2:
  25 0014 73742E20 		.ascii	"st. C \000\000"
  25      43200000 
  26              		.align	2
  27              	.LC4:
  28 001c 57696C67 		.ascii	"Wilgotnosc:\000\000"
  28      6F746E6F 
  28      73633A00 
  28      00
  29 0029 000000   		.align	2
  30              	.LC6:
  31 002c 250000   		.ascii	"%\000\000"
  32 002f 00       		.align	2
  33              	.LC8:
  34 0030 52202D20 		.ascii	"R - ustaw budzik \000\000"
  34      75737461 
  34      77206275 
  34      647A696B 
  34      200000
  35 0043 00       		.align	2
  36              	.LC10:
  37 0044 57616B65 		.ascii	"Wake up!\000\000"
  37      20757021 
  37      0000
  38 004e 0000     		.align	2
  39              	.LC12:
  40 0050 55202D20 		.ascii	"U - zwieksz\000\000"
  40      7A776965 
  40      6B737A00 
  40      00
  41 005d 000000   		.align	2
ARM GAS  C:\Users\embedded\AppData\Local\Temp\ccOrxL0D.s 			page 2


  42              	.LC14:
  43 0060 44202D20 		.ascii	"D - zmniejsz\000\000"
  43      7A6D6E69 
  43      656A737A 
  43      0000
  44 006e 0000     		.align	2
  45              	.LC16:
  46 0070 52202D20 		.ascii	"R - zatwierdz\000\000"
  46      7A617477 
  46      69657264 
  46      7A0000
  47              		.text
  48              		.align	1
  49              		.global	main
  50              		.syntax unified
  51              		.code	16
  52              		.thumb_func
  53              		.fpu softvfp
  54              		.type	main, %function
  55              	main:
  56              	.LFB3:
  57              		.file 1 "main.c"
   1:main.c        **** #include "general.h"
   2:main.c        **** #include <lpc2xxx.h>
   3:main.c        **** #include <printf_P.h>
   4:main.c        **** #include <printf_init.h>
   5:main.c        **** #include <consol.h>
   6:main.c        **** #include <config.h>
   7:main.c        **** #include "irq/irq_handler.h"
   8:main.c        **** #include "timer.h"
   9:main.c        **** #include "VIC.h"
  10:main.c        **** #include "i2c.h"
  11:main.c        **** #include <stdio.h>
  12:main.c        **** #include <string.h>
  13:main.c        **** #include "sound.h"
  14:main.c        **** #include "rtc.h"
  15:main.c        **** #include "lm75.h"
  16:main.c        **** #include "htu21df.h"
  17:main.c        **** #include "lcd.h"
  18:main.c        **** #include "pca9532.h"
  19:main.c        **** #include "additional.h"
  20:main.c        **** 
  21:main.c        **** #include "Common_Def.h"
  22:main.c        **** 
  23:main.c        **** 
  24:main.c        **** 
  25:main.c        **** 
  26:main.c        **** tU8 init(void);
  27:main.c        **** 
  28:main.c        **** int main(void)
  29:main.c        **** {
  58              		.loc 1 29 0
  59              		.cfi_startproc
  60              		@ Function supports interworking.
  61              		@ args = 0, pretend = 0, frame = 168
  62              		@ frame_needed = 1, uses_anonymous_args = 0
  63 0000 B0B5     		push	{r4, r5, r7, lr}
ARM GAS  C:\Users\embedded\AppData\Local\Temp\ccOrxL0D.s 			page 3


  64              	.LCFI0:
  65              		.cfi_def_cfa_offset 16
  66              		.cfi_offset 4, -16
  67              		.cfi_offset 5, -12
  68              		.cfi_offset 7, -8
  69              		.cfi_offset 14, -4
  70 0002 AAB0     		sub	sp, sp, #168
  71              	.LCFI1:
  72              		.cfi_def_cfa_offset 184
  73 0004 00AF     		add	r7, sp, #0
  74              	.LCFI2:
  75              		.cfi_def_cfa_register 7
  30:main.c        **** 	tU8 pca9532Present;
  31:main.c        **** 	pca9532Present = init();
  76              		.loc 1 31 0
  77 0006 A223     		movs	r3, #162
  78 0008 FC18     		adds	r4, r7, r3
  79 000a FFF7FEFF 		bl	init
  80 000e 0300     		movs	r3, r0
  81 0010 2370     		strb	r3, [r4]
  32:main.c        **** 	// I2C initalization
  33:main.c        **** 	tU8 lm75address = (((tU8)0x48 << 1) | (tU8)1);
  82              		.loc 1 33 0
  83 0012 A123     		movs	r3, #161
  84 0014 FB18     		adds	r3, r7, r3
  85 0016 9122     		movs	r2, #145
  86 0018 1A70     		strb	r2, [r3]
  34:main.c        **** 	//printf_init();
  35:main.c        **** 	// LCD display initialization
  36:main.c        **** 
  37:main.c        **** 
  38:main.c        **** 
  39:main.c        **** 	tU8 isTimeBeingSet = FALSE;
  87              		.loc 1 39 0
  88 001a A723     		movs	r3, #167
  89 001c FB18     		adds	r3, r7, r3
  90 001e 0022     		movs	r2, #0
  91 0020 1A70     		strb	r2, [r3]
  40:main.c        **** 	tU8 currentType = 0;
  92              		.loc 1 40 0
  93 0022 A623     		movs	r3, #166
  94 0024 FB18     		adds	r3, r7, r3
  95 0026 0022     		movs	r2, #0
  96 0028 1A70     		strb	r2, [r3]
  41:main.c        **** 	tU8 humidityString[10] = {0};
  97              		.loc 1 41 0
  98 002a 9023     		movs	r3, #144
  99 002c FB18     		adds	r3, r7, r3
 100 002e 1800     		movs	r0, r3
 101 0030 0A23     		movs	r3, #10
 102 0032 1A00     		movs	r2, r3
 103 0034 0021     		movs	r1, #0
 104 0036 FFF7FEFF 		bl	memset
  42:main.c        **** 	tU8 temperature[2] = {0};
 105              		.loc 1 42 0
 106 003a 8C23     		movs	r3, #140
 107 003c FB18     		adds	r3, r7, r3
ARM GAS  C:\Users\embedded\AppData\Local\Temp\ccOrxL0D.s 			page 4


 108 003e 0022     		movs	r2, #0
 109 0040 1A80     		strh	r2, [r3]
  43:main.c        **** 
  44:main.c        **** 
  45:main.c        **** 	tU8 temp_SEC = RTC_SEC;
 110              		.loc 1 45 0
 111 0042 954B     		ldr	r3, .L34
 112 0044 1A68     		ldr	r2, [r3]
 113 0046 A523     		movs	r3, #165
 114 0048 FB18     		adds	r3, r7, r3
 115 004a 1A70     		strb	r2, [r3]
  46:main.c        **** 	tU8 temp_MIN = RTC_MIN;
 116              		.loc 1 46 0
 117 004c 934B     		ldr	r3, .L34+4
 118 004e 1A68     		ldr	r2, [r3]
 119 0050 A423     		movs	r3, #164
 120 0052 FB18     		adds	r3, r7, r3
 121 0054 1A70     		strb	r2, [r3]
  47:main.c        **** 	tU8 temp_HOUR = RTC_HOUR;
 122              		.loc 1 47 0
 123 0056 924B     		ldr	r3, .L34+8
 124 0058 1A68     		ldr	r2, [r3]
 125 005a A323     		movs	r3, #163
 126 005c FB18     		adds	r3, r7, r3
 127 005e 1A70     		strb	r2, [r3]
  48:main.c        **** 
  49:main.c        **** 	const tU8 tempPrompt[] = "Temperatura: \0";
 128              		.loc 1 49 0
 129 0060 7C23     		movs	r3, #124
 130 0062 FB18     		adds	r3, r7, r3
 131 0064 8F4A     		ldr	r2, .L34+12
 132 0066 13CA     		ldmia	r2!, {r0, r1, r4}
 133 0068 13C3     		stmia	r3!, {r0, r1, r4}
 134 006a 1188     		ldrh	r1, [r2]
 135 006c 1980     		strh	r1, [r3]
 136 006e 9278     		ldrb	r2, [r2, #2]
 137 0070 9A70     		strb	r2, [r3, #2]
  50:main.c        **** 	const tU8 tempUnitPrompt[] = "st. C \0";
 138              		.loc 1 50 0
 139 0072 7423     		movs	r3, #116
 140 0074 FB18     		adds	r3, r7, r3
 141 0076 8C4A     		ldr	r2, .L34+16
 142 0078 03CA     		ldmia	r2!, {r0, r1}
 143 007a 03C3     		stmia	r3!, {r0, r1}
  51:main.c        **** 	const tU8 humidityPrompt[] = "Wilgotnosc:\0";
 144              		.loc 1 51 0
 145 007c 6423     		movs	r3, #100
 146 007e FB18     		adds	r3, r7, r3
 147 0080 8A4A     		ldr	r2, .L34+20
 148 0082 13CA     		ldmia	r2!, {r0, r1, r4}
 149 0084 13C3     		stmia	r3!, {r0, r1, r4}
 150 0086 1278     		ldrb	r2, [r2]
 151 0088 1A70     		strb	r2, [r3]
  52:main.c        **** 	const tU8 percentPrompt[] = "%\0";
 152              		.loc 1 52 0
 153 008a 6023     		movs	r3, #96
 154 008c FB18     		adds	r3, r7, r3
ARM GAS  C:\Users\embedded\AppData\Local\Temp\ccOrxL0D.s 			page 5


 155 008e 884A     		ldr	r2, .L34+24
 156 0090 1188     		ldrh	r1, [r2]
 157 0092 1980     		strh	r1, [r3]
 158 0094 9278     		ldrb	r2, [r2, #2]
 159 0096 9A70     		strb	r2, [r3, #2]
  53:main.c        **** 	const tU8 setAlarmPrompt[] = "R - ustaw budzik \0";
 160              		.loc 1 53 0
 161 0098 4C23     		movs	r3, #76
 162 009a FB18     		adds	r3, r7, r3
 163 009c 854A     		ldr	r2, .L34+28
 164 009e 13CA     		ldmia	r2!, {r0, r1, r4}
 165 00a0 13C3     		stmia	r3!, {r0, r1, r4}
 166 00a2 1168     		ldr	r1, [r2]
 167 00a4 1960     		str	r1, [r3]
 168 00a6 9188     		ldrh	r1, [r2, #4]
 169 00a8 9980     		strh	r1, [r3, #4]
 170 00aa 9279     		ldrb	r2, [r2, #6]
 171 00ac 9A71     		strb	r2, [r3, #6]
  54:main.c        **** 	const tU8 wakeUpPrompt[] = "Wake up!\0";
 172              		.loc 1 54 0
 173 00ae 4023     		movs	r3, #64
 174 00b0 FB18     		adds	r3, r7, r3
 175 00b2 814A     		ldr	r2, .L34+32
 176 00b4 03CA     		ldmia	r2!, {r0, r1}
 177 00b6 03C3     		stmia	r3!, {r0, r1}
 178 00b8 1288     		ldrh	r2, [r2]
 179 00ba 1A80     		strh	r2, [r3]
  55:main.c        **** 	const tU8 UPrompt[] = "U - zwieksz\0";
 180              		.loc 1 55 0
 181 00bc 3023     		movs	r3, #48
 182 00be FB18     		adds	r3, r7, r3
 183 00c0 7E4A     		ldr	r2, .L34+36
 184 00c2 13CA     		ldmia	r2!, {r0, r1, r4}
 185 00c4 13C3     		stmia	r3!, {r0, r1, r4}
 186 00c6 1278     		ldrb	r2, [r2]
 187 00c8 1A70     		strb	r2, [r3]
  56:main.c        **** 	const tU8 DPrompt[] = "D - zmniejsz\0";
 188              		.loc 1 56 0
 189 00ca 2023     		movs	r3, #32
 190 00cc FB18     		adds	r3, r7, r3
 191 00ce 7C4A     		ldr	r2, .L34+40
 192 00d0 13CA     		ldmia	r2!, {r0, r1, r4}
 193 00d2 13C3     		stmia	r3!, {r0, r1, r4}
 194 00d4 1288     		ldrh	r2, [r2]
 195 00d6 1A80     		strh	r2, [r3]
  57:main.c        **** 	const tU8 RPrompt[] = "R - zatwierdz\0";
 196              		.loc 1 57 0
 197 00d8 1023     		movs	r3, #16
 198 00da FB18     		adds	r3, r7, r3
 199 00dc 794A     		ldr	r2, .L34+44
 200 00de 13CA     		ldmia	r2!, {r0, r1, r4}
 201 00e0 13C3     		stmia	r3!, {r0, r1, r4}
 202 00e2 1188     		ldrh	r1, [r2]
 203 00e4 1980     		strh	r1, [r3]
 204 00e6 9278     		ldrb	r2, [r2, #2]
 205 00e8 9A70     		strb	r2, [r3, #2]
 206              	.L27:
ARM GAS  C:\Users\embedded\AppData\Local\Temp\ccOrxL0D.s 			page 6


 207              	.LBB2:
  58:main.c        **** 
  59:main.c        **** 
  60:main.c        **** 	while (TRUE == TRUE) {
  61:main.c        **** 		showTime(RTC_SEC, RTC_MIN,RTC_HOUR,5);
 208              		.loc 1 61 0
 209 00ea 6B4B     		ldr	r3, .L34
 210 00ec 1B68     		ldr	r3, [r3]
 211 00ee 1B06     		lsls	r3, r3, #24
 212 00f0 180E     		lsrs	r0, r3, #24
 213 00f2 6A4B     		ldr	r3, .L34+4
 214 00f4 1B68     		ldr	r3, [r3]
 215 00f6 1B06     		lsls	r3, r3, #24
 216 00f8 190E     		lsrs	r1, r3, #24
 217 00fa 694B     		ldr	r3, .L34+8
 218 00fc 1B68     		ldr	r3, [r3]
 219 00fe 1B06     		lsls	r3, r3, #24
 220 0100 1A0E     		lsrs	r2, r3, #24
 221 0102 0523     		movs	r3, #5
 222 0104 FFF7FEFF 		bl	showTime
  62:main.c        ****         //check if right key is pressed
  63:main.c        ****         if ((IOPIN & 0x00000800) == 0)//bylo 100
 223              		.loc 1 63 0
 224 0108 6F4B     		ldr	r3, .L34+48
 225 010a 1A68     		ldr	r2, [r3]
 226 010c 8023     		movs	r3, #128
 227 010e 1B01     		lsls	r3, r3, #4
 228 0110 1340     		ands	r3, r2
 229 0112 00D0     		beq	.LCB144
 230 0114 10E1     		b	.L2	@long jump
 231              	.LCB144:
  64:main.c        ****         {
  65:main.c        ****         	lcdClrscr();
 232              		.loc 1 65 0
 233 0116 FFF7FEFF 		bl	lcdClrscr
  66:main.c        ****             isTimeBeingSet = TRUE;
 234              		.loc 1 66 0
 235 011a A723     		movs	r3, #167
 236 011c FB18     		adds	r3, r7, r3
 237 011e 0122     		movs	r2, #1
 238 0120 1A70     		strb	r2, [r3]
  67:main.c        **** 			temp_SEC = RTC_SEC;
 239              		.loc 1 67 0
 240 0122 5D4B     		ldr	r3, .L34
 241 0124 1A68     		ldr	r2, [r3]
 242 0126 A520     		movs	r0, #165
 243 0128 3B18     		adds	r3, r7, r0
 244 012a 1A70     		strb	r2, [r3]
  68:main.c        **** 			temp_MIN = RTC_MIN;
 245              		.loc 1 68 0
 246 012c 5B4B     		ldr	r3, .L34+4
 247 012e 1A68     		ldr	r2, [r3]
 248 0130 A421     		movs	r1, #164
 249 0132 7B18     		adds	r3, r7, r1
 250 0134 1A70     		strb	r2, [r3]
  69:main.c        **** 			temp_HOUR = RTC_HOUR;
 251              		.loc 1 69 0
ARM GAS  C:\Users\embedded\AppData\Local\Temp\ccOrxL0D.s 			page 7


 252 0136 5A4B     		ldr	r3, .L34+8
 253 0138 1A68     		ldr	r2, [r3]
 254 013a A324     		movs	r4, #163
 255 013c 3B19     		adds	r3, r7, r4
 256 013e 1A70     		strb	r2, [r3]
  70:main.c        **** 
  71:main.c        **** 			showTime(temp_SEC,temp_MIN,temp_HOUR,5);
 257              		.loc 1 71 0
 258 0140 3B19     		adds	r3, r7, r4
 259 0142 1A78     		ldrb	r2, [r3]
 260 0144 7B18     		adds	r3, r7, r1
 261 0146 1978     		ldrb	r1, [r3]
 262 0148 3B18     		adds	r3, r7, r0
 263 014a 1878     		ldrb	r0, [r3]
 264 014c 0523     		movs	r3, #5
 265 014e FFF7FEFF 		bl	showTime
  72:main.c        **** 			sdelay(1);
 266              		.loc 1 72 0
 267 0152 0120     		movs	r0, #1
 268 0154 FFF7FEFF 		bl	sdelay
  73:main.c        **** 			while(isTimeBeingSet == TRUE){
 269              		.loc 1 73 0
 270 0158 E6E0     		b	.L3
 271              	.L25:
  74:main.c        **** 				//check if P0.8 center-key is pressed
  75:main.c        **** 				if ((IOPIN & 0x00000800) == 0) //bylo 100
 272              		.loc 1 75 0
 273 015a 5B4B     		ldr	r3, .L34+48
 274 015c 1A68     		ldr	r2, [r3]
 275 015e 8023     		movs	r3, #128
 276 0160 1B01     		lsls	r3, r3, #4
 277 0162 1340     		ands	r3, r2
 278 0164 25D1     		bne	.L4
  76:main.c        **** 				{
  77:main.c        **** 					currentType++;
 279              		.loc 1 77 0
 280 0166 A621     		movs	r1, #166
 281 0168 7B18     		adds	r3, r7, r1
 282 016a 1A78     		ldrb	r2, [r3]
 283 016c 7B18     		adds	r3, r7, r1
 284 016e 0132     		adds	r2, r2, #1
 285 0170 1A70     		strb	r2, [r3]
  78:main.c        **** 					if((currentType< (tU8)0) || (currentType > (tU8)2)){
 286              		.loc 1 78 0
 287 0172 7B18     		adds	r3, r7, r1
 288 0174 1B78     		ldrb	r3, [r3]
 289 0176 022B     		cmp	r3, #2
 290 0178 17D9     		bls	.L5
  79:main.c        **** 						isTimeBeingSet = FALSE;
 291              		.loc 1 79 0
 292 017a A723     		movs	r3, #167
 293 017c FB18     		adds	r3, r7, r3
 294 017e 0022     		movs	r2, #0
 295 0180 1A70     		strb	r2, [r3]
  80:main.c        **** 						setAlarm(temp_SEC,temp_MIN,temp_HOUR);
 296              		.loc 1 80 0
 297 0182 A323     		movs	r3, #163
ARM GAS  C:\Users\embedded\AppData\Local\Temp\ccOrxL0D.s 			page 8


 298 0184 FB18     		adds	r3, r7, r3
 299 0186 1A78     		ldrb	r2, [r3]
 300 0188 A423     		movs	r3, #164
 301 018a FB18     		adds	r3, r7, r3
 302 018c 1978     		ldrb	r1, [r3]
 303 018e A523     		movs	r3, #165
 304 0190 FB18     		adds	r3, r7, r3
 305 0192 1B78     		ldrb	r3, [r3]
 306 0194 1800     		movs	r0, r3
 307 0196 FFF7FEFF 		bl	setAlarm
  81:main.c        **** 						currentType = 0;
 308              		.loc 1 81 0
 309 019a A623     		movs	r3, #166
 310 019c FB18     		adds	r3, r7, r3
 311 019e 0022     		movs	r2, #0
 312 01a0 1A70     		strb	r2, [r3]
  82:main.c        **** 						sdelay(1);
 313              		.loc 1 82 0
 314 01a2 0120     		movs	r0, #1
 315 01a4 FFF7FEFF 		bl	sdelay
 316 01a8 91E0     		b	.L7
 317              	.L5:
  83:main.c        **** 					}
  84:main.c        **** 					else{
  85:main.c        **** 						sdelay(1);
 318              		.loc 1 85 0
 319 01aa 0120     		movs	r0, #1
 320 01ac FFF7FEFF 		bl	sdelay
 321 01b0 8DE0     		b	.L7
 322              	.L4:
  86:main.c        **** 					}
  87:main.c        **** 				}
  88:main.c        **** 				//check if P0.10 up-key is pressed
  89:main.c        **** 				else if((IOPIN & 0x0000400) == 0){
 323              		.loc 1 89 0
 324 01b2 454B     		ldr	r3, .L34+48
 325 01b4 1A68     		ldr	r2, [r3]
 326 01b6 8023     		movs	r3, #128
 327 01b8 DB00     		lsls	r3, r3, #3
 328 01ba 1340     		ands	r3, r2
 329 01bc 2DD1     		bne	.L8
  90:main.c        **** 					switch(currentType){
 330              		.loc 1 90 0
 331 01be A623     		movs	r3, #166
 332 01c0 FB18     		adds	r3, r7, r3
 333 01c2 1B78     		ldrb	r3, [r3]
 334 01c4 012B     		cmp	r3, #1
 335 01c6 10D0     		beq	.L10
 336 01c8 022B     		cmp	r3, #2
 337 01ca 1AD0     		beq	.L11
 338 01cc 002B     		cmp	r3, #0
 339 01ce 00D0     		beq	.L12
  91:main.c        **** 						case 0:
  92:main.c        **** 							if(temp_HOUR<(tU8)23){
  93:main.c        **** 								temp_HOUR++;
  94:main.c        **** 							}
  95:main.c        **** 							break;
ARM GAS  C:\Users\embedded\AppData\Local\Temp\ccOrxL0D.s 			page 9


  96:main.c        **** 						case 1:
  97:main.c        **** 							if(temp_MIN < (tU8)59){
  98:main.c        **** 								temp_MIN++;
  99:main.c        **** 							}
 100:main.c        **** 							break;
 101:main.c        **** 						case 2:
 102:main.c        **** 							if(temp_SEC < (tU8)59){
 103:main.c        **** 								temp_SEC++;
 104:main.c        **** 							}
 105:main.c        **** 							break;
 106:main.c        **** 						default:
 107:main.c        **** 							break;
 340              		.loc 1 107 0
 341 01d0 7DE0     		b	.L7
 342              	.L12:
  92:main.c        **** 								temp_HOUR++;
 343              		.loc 1 92 0
 344 01d2 A323     		movs	r3, #163
 345 01d4 FB18     		adds	r3, r7, r3
 346 01d6 1B78     		ldrb	r3, [r3]
 347 01d8 162B     		cmp	r3, #22
 348 01da 52D8     		bhi	.L28
  93:main.c        **** 							}
 349              		.loc 1 93 0
 350 01dc A321     		movs	r1, #163
 351 01de 7B18     		adds	r3, r7, r1
 352 01e0 1A78     		ldrb	r2, [r3]
 353 01e2 7B18     		adds	r3, r7, r1
 354 01e4 0132     		adds	r2, r2, #1
 355 01e6 1A70     		strb	r2, [r3]
  95:main.c        **** 						case 1:
 356              		.loc 1 95 0
 357 01e8 4BE0     		b	.L28
 358              	.L10:
  97:main.c        **** 								temp_MIN++;
 359              		.loc 1 97 0
 360 01ea A423     		movs	r3, #164
 361 01ec FB18     		adds	r3, r7, r3
 362 01ee 1B78     		ldrb	r3, [r3]
 363 01f0 3A2B     		cmp	r3, #58
 364 01f2 48D8     		bhi	.L29
  98:main.c        **** 							}
 365              		.loc 1 98 0
 366 01f4 A421     		movs	r1, #164
 367 01f6 7B18     		adds	r3, r7, r1
 368 01f8 1A78     		ldrb	r2, [r3]
 369 01fa 7B18     		adds	r3, r7, r1
 370 01fc 0132     		adds	r2, r2, #1
 371 01fe 1A70     		strb	r2, [r3]
 100:main.c        **** 						case 2:
 372              		.loc 1 100 0
 373 0200 41E0     		b	.L29
 374              	.L11:
 102:main.c        **** 								temp_SEC++;
 375              		.loc 1 102 0
 376 0202 A523     		movs	r3, #165
 377 0204 FB18     		adds	r3, r7, r3
ARM GAS  C:\Users\embedded\AppData\Local\Temp\ccOrxL0D.s 			page 10


 378 0206 1B78     		ldrb	r3, [r3]
 379 0208 3A2B     		cmp	r3, #58
 380 020a 3ED8     		bhi	.L30
 103:main.c        **** 							}
 381              		.loc 1 103 0
 382 020c A521     		movs	r1, #165
 383 020e 7B18     		adds	r3, r7, r1
 384 0210 1A78     		ldrb	r2, [r3]
 385 0212 7B18     		adds	r3, r7, r1
 386 0214 0132     		adds	r2, r2, #1
 387 0216 1A70     		strb	r2, [r3]
 105:main.c        **** 						default:
 388              		.loc 1 105 0
 389 0218 37E0     		b	.L30
 390              	.L8:
 108:main.c        **** 					}
 109:main.c        **** 				}
 110:main.c        **** 				//check if P0.12 down-key is pressed
 111:main.c        **** 				else if((IOPIN & 0x00001000) == 0){
 391              		.loc 1 111 0
 392 021a 2B4B     		ldr	r3, .L34+48
 393 021c 1A68     		ldr	r2, [r3]
 394 021e 8023     		movs	r3, #128
 395 0220 5B01     		lsls	r3, r3, #5
 396 0222 1340     		ands	r3, r2
 397 0224 53D1     		bne	.L7
 112:main.c        **** 					switch(currentType){
 398              		.loc 1 112 0
 399 0226 A623     		movs	r3, #166
 400 0228 FB18     		adds	r3, r7, r3
 401 022a 1B78     		ldrb	r3, [r3]
 402 022c 012B     		cmp	r3, #1
 403 022e 10D0     		beq	.L18
 404 0230 022B     		cmp	r3, #2
 405 0232 1AD0     		beq	.L19
 406 0234 002B     		cmp	r3, #0
 407 0236 00D0     		beq	.L20
 113:main.c        **** 						case 0:
 114:main.c        **** 							if(temp_HOUR > (tU8)0){
 115:main.c        **** 								temp_HOUR--;
 116:main.c        **** 							}
 117:main.c        **** 							break;
 118:main.c        **** 						case 1:
 119:main.c        **** 							if(temp_MIN > (tU8)0){
 120:main.c        **** 								temp_MIN--;
 121:main.c        **** 							}
 122:main.c        **** 							break;
 123:main.c        **** 						case 2:
 124:main.c        **** 							if(temp_SEC > (tU8)0){
 125:main.c        **** 								temp_SEC--;
 126:main.c        **** 							}
 127:main.c        **** 							break;
 128:main.c        **** 						default:
 129:main.c        **** 							break;
 408              		.loc 1 129 0
 409 0238 49E0     		b	.L7
 410              	.L20:
ARM GAS  C:\Users\embedded\AppData\Local\Temp\ccOrxL0D.s 			page 11


 114:main.c        **** 								temp_HOUR--;
 411              		.loc 1 114 0
 412 023a A323     		movs	r3, #163
 413 023c FB18     		adds	r3, r7, r3
 414 023e 1B78     		ldrb	r3, [r3]
 415 0240 002B     		cmp	r3, #0
 416 0242 24D0     		beq	.L31
 115:main.c        **** 							}
 417              		.loc 1 115 0
 418 0244 A321     		movs	r1, #163
 419 0246 7B18     		adds	r3, r7, r1
 420 0248 1A78     		ldrb	r2, [r3]
 421 024a 7B18     		adds	r3, r7, r1
 422 024c 013A     		subs	r2, r2, #1
 423 024e 1A70     		strb	r2, [r3]
 117:main.c        **** 						case 1:
 424              		.loc 1 117 0
 425 0250 1DE0     		b	.L31
 426              	.L18:
 119:main.c        **** 								temp_MIN--;
 427              		.loc 1 119 0
 428 0252 A423     		movs	r3, #164
 429 0254 FB18     		adds	r3, r7, r3
 430 0256 1B78     		ldrb	r3, [r3]
 431 0258 002B     		cmp	r3, #0
 432 025a 1AD0     		beq	.L32
 120:main.c        **** 							}
 433              		.loc 1 120 0
 434 025c A421     		movs	r1, #164
 435 025e 7B18     		adds	r3, r7, r1
 436 0260 1A78     		ldrb	r2, [r3]
 437 0262 7B18     		adds	r3, r7, r1
 438 0264 013A     		subs	r2, r2, #1
 439 0266 1A70     		strb	r2, [r3]
 122:main.c        **** 						case 2:
 440              		.loc 1 122 0
 441 0268 13E0     		b	.L32
 442              	.L19:
 124:main.c        **** 								temp_SEC--;
 443              		.loc 1 124 0
 444 026a A523     		movs	r3, #165
 445 026c FB18     		adds	r3, r7, r3
 446 026e 1B78     		ldrb	r3, [r3]
 447 0270 002B     		cmp	r3, #0
 448 0272 2BD0     		beq	.L33
 125:main.c        **** 							}
 449              		.loc 1 125 0
 450 0274 A521     		movs	r1, #165
 451 0276 7B18     		adds	r3, r7, r1
 452 0278 1A78     		ldrb	r2, [r3]
 453 027a 7B18     		adds	r3, r7, r1
 454 027c 013A     		subs	r2, r2, #1
 455 027e 1A70     		strb	r2, [r3]
 127:main.c        **** 						default:
 456              		.loc 1 127 0
 457 0280 24E0     		b	.L33
 458              	.L28:
ARM GAS  C:\Users\embedded\AppData\Local\Temp\ccOrxL0D.s 			page 12


  95:main.c        **** 						case 1:
 459              		.loc 1 95 0
 460 0282 C046     		nop
 461 0284 23E0     		b	.L7
 462              	.L29:
 100:main.c        **** 						case 2:
 463              		.loc 1 100 0
 464 0286 C046     		nop
 465 0288 21E0     		b	.L7
 466              	.L30:
 105:main.c        **** 						default:
 467              		.loc 1 105 0
 468 028a C046     		nop
 469 028c 1FE0     		b	.L7
 470              	.L31:
 117:main.c        **** 						case 1:
 471              		.loc 1 117 0
 472 028e C046     		nop
 473 0290 1DE0     		b	.L7
 474              	.L32:
 122:main.c        **** 						case 2:
 475              		.loc 1 122 0
 476 0292 C046     		nop
 477 0294 1BE0     		b	.L7
 478              	.L35:
 479 0296 C046     		.align	2
 480              	.L34:
 481 0298 204002E0 		.word	-536723424
 482 029c 244002E0 		.word	-536723420
 483 02a0 284002E0 		.word	-536723416
 484 02a4 04000000 		.word	.LC0
 485 02a8 14000000 		.word	.LC2
 486 02ac 1C000000 		.word	.LC4
 487 02b0 2C000000 		.word	.LC6
 488 02b4 30000000 		.word	.LC8
 489 02b8 44000000 		.word	.LC10
 490 02bc 50000000 		.word	.LC12
 491 02c0 60000000 		.word	.LC14
 492 02c4 70000000 		.word	.LC16
 493 02c8 008002E0 		.word	-536707072
 494              	.L33:
 127:main.c        **** 						default:
 495              		.loc 1 127 0
 496 02cc C046     		nop
 497              	.L7:
 130:main.c        **** 					}
 131:main.c        **** 				}
 132:main.c        **** 				else{
 133:main.c        **** 					// do nothing
 134:main.c        **** 				}
 135:main.c        **** 				showTime(temp_SEC,temp_MIN,temp_HOUR,currentType);
 498              		.loc 1 135 0
 499 02ce A623     		movs	r3, #166
 500 02d0 FB18     		adds	r3, r7, r3
 501 02d2 1C78     		ldrb	r4, [r3]
 502 02d4 A323     		movs	r3, #163
 503 02d6 FB18     		adds	r3, r7, r3
ARM GAS  C:\Users\embedded\AppData\Local\Temp\ccOrxL0D.s 			page 13


 504 02d8 1A78     		ldrb	r2, [r3]
 505 02da A423     		movs	r3, #164
 506 02dc FB18     		adds	r3, r7, r3
 507 02de 1978     		ldrb	r1, [r3]
 508 02e0 A523     		movs	r3, #165
 509 02e2 FB18     		adds	r3, r7, r3
 510 02e4 1878     		ldrb	r0, [r3]
 511 02e6 2300     		movs	r3, r4
 512 02e8 FFF7FEFF 		bl	showTime
 136:main.c        **** 
 137:main.c        **** 				lcdGotoxy(0,0);
 513              		.loc 1 137 0
 514 02ec 0021     		movs	r1, #0
 515 02ee 0020     		movs	r0, #0
 516 02f0 FFF7FEFF 		bl	lcdGotoxy
 138:main.c        **** 				lcdPuts(UPrompt);
 517              		.loc 1 138 0
 518 02f4 3023     		movs	r3, #48
 519 02f6 FB18     		adds	r3, r7, r3
 520 02f8 1800     		movs	r0, r3
 521 02fa FFF7FEFF 		bl	lcdPuts
 139:main.c        **** 
 140:main.c        **** 				lcdGotoxy(0,15);
 522              		.loc 1 140 0
 523 02fe 0F21     		movs	r1, #15
 524 0300 0020     		movs	r0, #0
 525 0302 FFF7FEFF 		bl	lcdGotoxy
 141:main.c        **** 				lcdPuts(DPrompt);
 526              		.loc 1 141 0
 527 0306 2023     		movs	r3, #32
 528 0308 FB18     		adds	r3, r7, r3
 529 030a 1800     		movs	r0, r3
 530 030c FFF7FEFF 		bl	lcdPuts
 142:main.c        **** 
 143:main.c        **** 				lcdGotoxy(0,30);
 531              		.loc 1 143 0
 532 0310 1E21     		movs	r1, #30
 533 0312 0020     		movs	r0, #0
 534 0314 FFF7FEFF 		bl	lcdGotoxy
 144:main.c        **** 				lcdPuts(RPrompt);
 535              		.loc 1 144 0
 536 0318 1023     		movs	r3, #16
 537 031a FB18     		adds	r3, r7, r3
 538 031c 1800     		movs	r0, r3
 539 031e FFF7FEFF 		bl	lcdPuts
 145:main.c        **** 
 146:main.c        **** 				mdelay(100);
 540              		.loc 1 146 0
 541 0322 6420     		movs	r0, #100
 542 0324 FFF7FEFF 		bl	mdelay
 543              	.L3:
  73:main.c        **** 				//check if P0.8 center-key is pressed
 544              		.loc 1 73 0
 545 0328 A723     		movs	r3, #167
 546 032a FB18     		adds	r3, r7, r3
 547 032c 1B78     		ldrb	r3, [r3]
 548 032e 012B     		cmp	r3, #1
ARM GAS  C:\Users\embedded\AppData\Local\Temp\ccOrxL0D.s 			page 14


 549 0330 00D1     		bne	.LCB457
 550 0332 12E7     		b	.L25	@long jump
 551              	.LCB457:
 147:main.c        **** 			}
 148:main.c        **** 			lcdClrscr();
 552              		.loc 1 148 0
 553 0334 FFF7FEFF 		bl	lcdClrscr
 554              	.L2:
 149:main.c        ****         }
 150:main.c        ****         if((RTC_ILR & 0x2) == 0x2)
 555              		.loc 1 150 0
 556 0338 504B     		ldr	r3, .L36
 557 033a 1B68     		ldr	r3, [r3]
 558 033c 0222     		movs	r2, #2
 559 033e 1340     		ands	r3, r2
 560 0340 022B     		cmp	r3, #2
 561 0342 32D1     		bne	.L26
 562              	.LBB3:
 151:main.c        ****         {
 152:main.c        **** 			showTime(RTC_SEC,RTC_MIN,RTC_HOUR,5);
 563              		.loc 1 152 0
 564 0344 4E4B     		ldr	r3, .L36+4
 565 0346 1B68     		ldr	r3, [r3]
 566 0348 1B06     		lsls	r3, r3, #24
 567 034a 180E     		lsrs	r0, r3, #24
 568 034c 4D4B     		ldr	r3, .L36+8
 569 034e 1B68     		ldr	r3, [r3]
 570 0350 1B06     		lsls	r3, r3, #24
 571 0352 190E     		lsrs	r1, r3, #24
 572 0354 4C4B     		ldr	r3, .L36+12
 573 0356 1B68     		ldr	r3, [r3]
 574 0358 1B06     		lsls	r3, r3, #24
 575 035a 1A0E     		lsrs	r2, r3, #24
 576 035c 0523     		movs	r3, #5
 577 035e FFF7FEFF 		bl	showTime
 153:main.c        **** 			lcdGotoxy(50, 90);
 578              		.loc 1 153 0
 579 0362 5A21     		movs	r1, #90
 580 0364 3220     		movs	r0, #50
 581 0366 FFF7FEFF 		bl	lcdGotoxy
 154:main.c        **** 			lcdPuts(wakeUpPrompt);
 582              		.loc 1 154 0
 583 036a 4023     		movs	r3, #64
 584 036c FB18     		adds	r3, r7, r3
 585 036e 1800     		movs	r0, r3
 586 0370 FFF7FEFF 		bl	lcdPuts
 155:main.c        **** 			sdelay(1);
 587              		.loc 1 155 0
 588 0374 0120     		movs	r0, #1
 589 0376 FFF7FEFF 		bl	sdelay
 156:main.c        **** 			blinkLeds(1, pca9532Present);
 590              		.loc 1 156 0
 591 037a A224     		movs	r4, #162
 592 037c 3B19     		adds	r3, r7, r4
 593 037e 1B78     		ldrb	r3, [r3]
 594 0380 1900     		movs	r1, r3
 595 0382 0120     		movs	r0, #1
ARM GAS  C:\Users\embedded\AppData\Local\Temp\ccOrxL0D.s 			page 15


 596 0384 FFF7FEFF 		bl	blinkLeds
 157:main.c        **** 			beep(5);
 597              		.loc 1 157 0
 598 0388 0520     		movs	r0, #5
 599 038a FFF7FEFF 		bl	beep
 158:main.c        **** 			blinkLeds(0, pca9532Present);
 600              		.loc 1 158 0
 601 038e 3B19     		adds	r3, r7, r4
 602 0390 1B78     		ldrb	r3, [r3]
 603 0392 1900     		movs	r1, r3
 604 0394 0020     		movs	r0, #0
 605 0396 FFF7FEFF 		bl	blinkLeds
 159:main.c        **** 			lcdClrscr();
 606              		.loc 1 159 0
 607 039a FFF7FEFF 		bl	lcdClrscr
 160:main.c        **** 			RTC_ILR = 0x2;
 608              		.loc 1 160 0
 609 039e 374B     		ldr	r3, .L36
 610 03a0 0222     		movs	r2, #2
 611 03a2 1A60     		str	r2, [r3]
 161:main.c        **** 			RTC_AMR = 0xFF;
 612              		.loc 1 161 0
 613 03a4 394B     		ldr	r3, .L36+16
 614 03a6 FF22     		movs	r2, #255
 615 03a8 1A60     		str	r2, [r3]
 616              	.L26:
 617              	.LBE3:
 162:main.c        **** 		}
 163:main.c        **** 
 164:main.c        **** 		lcdGotoxy(0, 0);
 618              		.loc 1 164 0
 619 03aa 0021     		movs	r1, #0
 620 03ac 0020     		movs	r0, #0
 621 03ae FFF7FEFF 		bl	lcdGotoxy
 165:main.c        **** 		tS8 i2cCode;
 166:main.c        **** 		i2cCode = measureTemperature(lm75address, temperature);
 622              		.loc 1 166 0
 623 03b2 A023     		movs	r3, #160
 624 03b4 FC18     		adds	r4, r7, r3
 625 03b6 8C25     		movs	r5, #140
 626 03b8 7A19     		adds	r2, r7, r5
 627 03ba A123     		movs	r3, #161
 628 03bc FB18     		adds	r3, r7, r3
 629 03be 1B78     		ldrb	r3, [r3]
 630 03c0 1100     		movs	r1, r2
 631 03c2 1800     		movs	r0, r3
 632 03c4 FFF7FEFF 		bl	measureTemperature
 633 03c8 0300     		movs	r3, r0
 634 03ca 2370     		strb	r3, [r4]
 167:main.c        **** 		lcdGotoxy(0, 0);
 635              		.loc 1 167 0
 636 03cc 0021     		movs	r1, #0
 637 03ce 0020     		movs	r0, #0
 638 03d0 FFF7FEFF 		bl	lcdGotoxy
 168:main.c        **** 		lcdPuts(tempPrompt);
 639              		.loc 1 168 0
 640 03d4 7C23     		movs	r3, #124
ARM GAS  C:\Users\embedded\AppData\Local\Temp\ccOrxL0D.s 			page 16


 641 03d6 FB18     		adds	r3, r7, r3
 642 03d8 1800     		movs	r0, r3
 643 03da FFF7FEFF 		bl	lcdPuts
 169:main.c        **** 		lcdGotoxy(0, 15);
 644              		.loc 1 169 0
 645 03de 0F21     		movs	r1, #15
 646 03e0 0020     		movs	r0, #0
 647 03e2 FFF7FEFF 		bl	lcdGotoxy
 170:main.c        **** 		calculateTemperatureValue(temperature);
 648              		.loc 1 170 0
 649 03e6 7B19     		adds	r3, r7, r5
 650 03e8 1800     		movs	r0, r3
 651 03ea FFF7FEFF 		bl	calculateTemperatureValue
 171:main.c        **** 		lcdGotoxy(40,15);
 652              		.loc 1 171 0
 653 03ee 0F21     		movs	r1, #15
 654 03f0 2820     		movs	r0, #40
 655 03f2 FFF7FEFF 		bl	lcdGotoxy
 172:main.c        **** 		lcdPuts(tempUnitPrompt);
 656              		.loc 1 172 0
 657 03f6 7423     		movs	r3, #116
 658 03f8 FB18     		adds	r3, r7, r3
 659 03fa 1800     		movs	r0, r3
 660 03fc FFF7FEFF 		bl	lcdPuts
 173:main.c        **** 
 174:main.c        **** 		tU8 charArrray[10] = {0};
 661              		.loc 1 174 0
 662 0400 3B1D     		adds	r3, r7, #4
 663 0402 1800     		movs	r0, r3
 664 0404 0A23     		movs	r3, #10
 665 0406 1A00     		movs	r2, r3
 666 0408 0021     		movs	r1, #0
 667 040a FFF7FEFF 		bl	memset
 175:main.c        **** 		tU16 humidity = measureHumidity();
 668              		.loc 1 175 0
 669 040e FFF7FEFF 		bl	measureHumidity
 670 0412 0300     		movs	r3, r0
 671 0414 1A00     		movs	r2, r3
 672 0416 9E21     		movs	r1, #158
 673 0418 7B18     		adds	r3, r7, r1
 674 041a 1A80     		strh	r2, [r3]
 176:main.c        **** 		tU8 sprintfHolder;
 177:main.c        **** 		sprintfHolder = sprintf(humidityString,"%d",humidity);
 675              		.loc 1 177 0
 676 041c 7B18     		adds	r3, r7, r1
 677 041e 1A88     		ldrh	r2, [r3]
 678 0420 1B49     		ldr	r1, .L36+20
 679 0422 9024     		movs	r4, #144
 680 0424 3B19     		adds	r3, r7, r4
 681 0426 1800     		movs	r0, r3
 682 0428 FFF7FEFF 		bl	sprintf
 683 042c 0200     		movs	r2, r0
 684 042e 9D23     		movs	r3, #157
 685 0430 FB18     		adds	r3, r7, r3
 686 0432 1A70     		strb	r2, [r3]
 178:main.c        **** 		lcdGotoxy(0,30);
 687              		.loc 1 178 0
ARM GAS  C:\Users\embedded\AppData\Local\Temp\ccOrxL0D.s 			page 17


 688 0434 1E21     		movs	r1, #30
 689 0436 0020     		movs	r0, #0
 690 0438 FFF7FEFF 		bl	lcdGotoxy
 179:main.c        **** 		lcdPuts(humidityPrompt);
 691              		.loc 1 179 0
 692 043c 6423     		movs	r3, #100
 693 043e FB18     		adds	r3, r7, r3
 694 0440 1800     		movs	r0, r3
 695 0442 FFF7FEFF 		bl	lcdPuts
 180:main.c        **** 		lcdGotoxy(0,45);
 696              		.loc 1 180 0
 697 0446 2D21     		movs	r1, #45
 698 0448 0020     		movs	r0, #0
 699 044a FFF7FEFF 		bl	lcdGotoxy
 181:main.c        **** 		lcdPuts(humidityString);
 700              		.loc 1 181 0
 701 044e 3B19     		adds	r3, r7, r4
 702 0450 1800     		movs	r0, r3
 703 0452 FFF7FEFF 		bl	lcdPuts
 182:main.c        **** 		lcdGotoxy(20,45);
 704              		.loc 1 182 0
 705 0456 2D21     		movs	r1, #45
 706 0458 1420     		movs	r0, #20
 707 045a FFF7FEFF 		bl	lcdGotoxy
 183:main.c        **** 		lcdPuts(percentPrompt);
 708              		.loc 1 183 0
 709 045e 6023     		movs	r3, #96
 710 0460 FB18     		adds	r3, r7, r3
 711 0462 1800     		movs	r0, r3
 712 0464 FFF7FEFF 		bl	lcdPuts
 184:main.c        **** 		lcdGotoxy(0,105);
 713              		.loc 1 184 0
 714 0468 6921     		movs	r1, #105
 715 046a 0020     		movs	r0, #0
 716 046c FFF7FEFF 		bl	lcdGotoxy
 185:main.c        **** 		lcdPuts(setAlarmPrompt);
 717              		.loc 1 185 0
 718 0470 4C23     		movs	r3, #76
 719 0472 FB18     		adds	r3, r7, r3
 720 0474 1800     		movs	r0, r3
 721 0476 FFF7FEFF 		bl	lcdPuts
 722              	.LBE2:
  60:main.c        **** 		showTime(RTC_SEC, RTC_MIN,RTC_HOUR,5);
 723              		.loc 1 60 0
 724 047a 36E6     		b	.L27
 725              	.L37:
 726              		.align	2
 727              	.L36:
 728 047c 004002E0 		.word	-536723456
 729 0480 204002E0 		.word	-536723424
 730 0484 244002E0 		.word	-536723420
 731 0488 284002E0 		.word	-536723416
 732 048c 104002E0 		.word	-536723440
 733 0490 00000000 		.word	.LC18
 734              		.cfi_endproc
 735              	.LFE3:
 736              		.size	main, .-main
ARM GAS  C:\Users\embedded\AppData\Local\Temp\ccOrxL0D.s 			page 18


 737              		.align	1
 738              		.global	init
 739              		.syntax unified
 740              		.code	16
 741              		.thumb_func
 742              		.fpu softvfp
 743              		.type	init, %function
 744              	init:
 745              	.LFB4:
 186:main.c        **** 
 187:main.c        ****     }
 188:main.c        **** }
 189:main.c        **** tU8 init(void){
 746              		.loc 1 189 0
 747              		.cfi_startproc
 748              		@ Function supports interworking.
 749              		@ args = 0, pretend = 0, frame = 8
 750              		@ frame_needed = 1, uses_anonymous_args = 0
 751 0494 80B5     		push	{r7, lr}
 752              	.LCFI3:
 753              		.cfi_def_cfa_offset 8
 754              		.cfi_offset 7, -8
 755              		.cfi_offset 14, -4
 756 0496 82B0     		sub	sp, sp, #8
 757              	.LCFI4:
 758              		.cfi_def_cfa_offset 16
 759 0498 00AF     		add	r7, sp, #0
 760              	.LCFI5:
 761              		.cfi_def_cfa_register 7
 190:main.c        **** 	i2cInit();
 762              		.loc 1 190 0
 763 049a FFF7FEFF 		bl	i2cInit
 191:main.c        **** 	tU8 pca9532Present;
 192:main.c        **** 	pca9532Present = pca9532Init();
 764              		.loc 1 192 0
 765 049e FFF7FEFF 		bl	pca9532Init
 766 04a2 0200     		movs	r2, r0
 767 04a4 FB1D     		adds	r3, r7, #7
 768 04a6 1A70     		strb	r2, [r3]
 193:main.c        **** 
 194:main.c        **** 	lcdInit();
 769              		.loc 1 194 0
 770 04a8 FFF7FEFF 		bl	lcdInit
 195:main.c        **** 	// Setting colors for background and text.
 196:main.c        **** 	lcdColor(0xff, 0x00);
 771              		.loc 1 196 0
 772 04ac 0021     		movs	r1, #0
 773 04ae FF20     		movs	r0, #255
 774 04b0 FFF7FEFF 		bl	lcdColor
 197:main.c        **** 	lcdClrscr();
 775              		.loc 1 197 0
 776 04b4 FFF7FEFF 		bl	lcdClrscr
 198:main.c        **** 
 199:main.c        **** 	RTC_SEC = 0;
 777              		.loc 1 199 0
 778 04b8 0F4B     		ldr	r3, .L40
 779 04ba 0022     		movs	r2, #0
ARM GAS  C:\Users\embedded\AppData\Local\Temp\ccOrxL0D.s 			page 19


 780 04bc 1A60     		str	r2, [r3]
 200:main.c        **** 	RTC_MIN = 0;
 781              		.loc 1 200 0
 782 04be 0F4B     		ldr	r3, .L40+4
 783 04c0 0022     		movs	r2, #0
 784 04c2 1A60     		str	r2, [r3]
 201:main.c        **** 	RTC_HOUR = 0;
 785              		.loc 1 201 0
 786 04c4 0E4B     		ldr	r3, .L40+8
 787 04c6 0022     		movs	r2, #0
 788 04c8 1A60     		str	r2, [r3]
 202:main.c        **** 
 203:main.c        **** 	RTC_CCR  = 0x00000011;
 789              		.loc 1 203 0
 790 04ca 0E4B     		ldr	r3, .L40+12
 791 04cc 1122     		movs	r2, #17
 792 04ce 1A60     		str	r2, [r3]
 204:main.c        **** 	PINSEL0&=~0x3FF0000; //init GPIO for joystick
 793              		.loc 1 204 0
 794 04d0 0D4B     		ldr	r3, .L40+16
 795 04d2 1A68     		ldr	r2, [r3]
 796 04d4 0C4B     		ldr	r3, .L40+16
 797 04d6 0D49     		ldr	r1, .L40+20
 798 04d8 0A40     		ands	r2, r1
 799 04da 1A60     		str	r2, [r3]
 205:main.c        **** 
 206:main.c        **** 	RTC_ILR = 0x2;
 800              		.loc 1 206 0
 801 04dc 0C4B     		ldr	r3, .L40+24
 802 04de 0222     		movs	r2, #2
 803 04e0 1A60     		str	r2, [r3]
 207:main.c        **** 	RTC_AMR = 0xFF;
 804              		.loc 1 207 0
 805 04e2 0C4B     		ldr	r3, .L40+28
 806 04e4 FF22     		movs	r2, #255
 807 04e6 1A60     		str	r2, [r3]
 208:main.c        **** 
 209:main.c        **** 	return pca9532Present;
 808              		.loc 1 209 0
 809 04e8 FB1D     		adds	r3, r7, #7
 810 04ea 1B78     		ldrb	r3, [r3]
 210:main.c        **** }
 811              		.loc 1 210 0
 812 04ec 1800     		movs	r0, r3
 813 04ee BD46     		mov	sp, r7
 814 04f0 02B0     		add	sp, sp, #8
 815              		@ sp needed
 816 04f2 80BC     		pop	{r7}
 817 04f4 02BC     		pop	{r1}
 818 04f6 0847     		bx	r1
 819              	.L41:
 820              		.align	2
 821              	.L40:
 822 04f8 204002E0 		.word	-536723424
 823 04fc 244002E0 		.word	-536723420
 824 0500 284002E0 		.word	-536723416
 825 0504 084002E0 		.word	-536723448
ARM GAS  C:\Users\embedded\AppData\Local\Temp\ccOrxL0D.s 			page 20


 826 0508 00C002E0 		.word	-536690688
 827 050c FFFF00FC 		.word	-67043329
 828 0510 004002E0 		.word	-536723456
 829 0514 104002E0 		.word	-536723440
 830              		.cfi_endproc
 831              	.LFE4:
 832              		.size	init, .-init
 833              	.Letext0:
 834              		.file 2 "general.h"
 835              		.file 3 "c:\\embedded\\tools\\arm-none-eabi\\include\\sys\\lock.h"
 836              		.file 4 "c:\\embedded\\tools\\arm-none-eabi\\include\\sys\\_types.h"
 837              		.file 5 "c:\\embedded\\tools\\lib\\gcc\\arm-none-eabi\\7.3.1\\include\\stddef.h"
 838              		.file 6 "c:\\embedded\\tools\\arm-none-eabi\\include\\sys\\reent.h"
 839              		.file 7 "sound.h"
 840              		.section	.debug_info,"",%progbits
 841              	.Ldebug_info0:
 842 0000 410C0000 		.4byte	0xc41
 843 0004 0200     		.2byte	0x2
 844 0006 00000000 		.4byte	.Ldebug_abbrev0
 845 000a 04       		.byte	0x4
 846 000b 01       		.uleb128 0x1
 847 000c 5A030000 		.4byte	.LASF151
 848 0010 0C       		.byte	0xc
 849 0011 89020000 		.4byte	.LASF152
 850 0015 1D030000 		.4byte	.LASF153
 851 0019 00000000 		.4byte	.Ltext0
 852 001d 18050000 		.4byte	.Letext0
 853 0021 00000000 		.4byte	.Ldebug_line0
 854 0025 02       		.uleb128 0x2
 855 0026 74553800 		.ascii	"tU8\000"
 856 002a 02       		.byte	0x2
 857 002b 18       		.byte	0x18
 858 002c 35000000 		.4byte	0x35
 859 0030 03       		.uleb128 0x3
 860 0031 25000000 		.4byte	0x25
 861 0035 04       		.uleb128 0x4
 862 0036 01       		.byte	0x1
 863 0037 08       		.byte	0x8
 864 0038 0E040000 		.4byte	.LASF1
 865 003c 05       		.uleb128 0x5
 866 003d F6000000 		.4byte	.LASF0
 867 0041 02       		.byte	0x2
 868 0042 19       		.byte	0x19
 869 0043 47000000 		.4byte	0x47
 870 0047 04       		.uleb128 0x4
 871 0048 02       		.byte	0x2
 872 0049 07       		.byte	0x7
 873 004a 32020000 		.4byte	.LASF2
 874 004e 04       		.uleb128 0x4
 875 004f 04       		.byte	0x4
 876 0050 07       		.byte	0x7
 877 0051 DA010000 		.4byte	.LASF3
 878 0055 04       		.uleb128 0x4
 879 0056 08       		.byte	0x8
 880 0057 07       		.byte	0x7
 881 0058 60000000 		.4byte	.LASF4
 882 005c 02       		.uleb128 0x2
ARM GAS  C:\Users\embedded\AppData\Local\Temp\ccOrxL0D.s 			page 21


 883 005d 74533800 		.ascii	"tS8\000"
 884 0061 02       		.byte	0x2
 885 0062 1C       		.byte	0x1c
 886 0063 67000000 		.4byte	0x67
 887 0067 04       		.uleb128 0x4
 888 0068 01       		.byte	0x1
 889 0069 06       		.byte	0x6
 890 006a B1000000 		.4byte	.LASF5
 891 006e 04       		.uleb128 0x4
 892 006f 02       		.byte	0x2
 893 0070 05       		.byte	0x5
 894 0071 2A040000 		.4byte	.LASF6
 895 0075 06       		.uleb128 0x6
 896 0076 04       		.byte	0x4
 897 0077 05       		.byte	0x5
 898 0078 696E7400 		.ascii	"int\000"
 899 007c 04       		.uleb128 0x4
 900 007d 08       		.byte	0x8
 901 007e 05       		.byte	0x5
 902 007f A3000000 		.4byte	.LASF7
 903 0083 07       		.uleb128 0x7
 904 0084 07       		.byte	0x7
 905 0085 01       		.byte	0x1
 906 0086 35000000 		.4byte	0x35
 907 008a 02       		.byte	0x2
 908 008b 20       		.byte	0x20
 909 008c 9D000000 		.4byte	0x9d
 910 0090 08       		.uleb128 0x8
 911 0091 54030000 		.4byte	.LASF8
 912 0095 00       		.byte	0
 913 0096 08       		.uleb128 0x8
 914 0097 B8040000 		.4byte	.LASF9
 915 009b 01       		.byte	0x1
 916 009c 00       		.byte	0
 917 009d 04       		.uleb128 0x4
 918 009e 04       		.byte	0x4
 919 009f 05       		.byte	0x5
 920 00a0 FB000000 		.4byte	.LASF10
 921 00a4 04       		.uleb128 0x4
 922 00a5 04       		.byte	0x4
 923 00a6 07       		.byte	0x7
 924 00a7 13020000 		.4byte	.LASF11
 925 00ab 04       		.uleb128 0x4
 926 00ac 08       		.byte	0x8
 927 00ad 04       		.byte	0x4
 928 00ae C7020000 		.4byte	.LASF12
 929 00b2 09       		.uleb128 0x9
 930 00b3 04       		.byte	0x4
 931 00b4 05       		.uleb128 0x5
 932 00b5 81020000 		.4byte	.LASF13
 933 00b9 03       		.byte	0x3
 934 00ba 22       		.byte	0x22
 935 00bb BF000000 		.4byte	0xbf
 936 00bf 0A       		.uleb128 0xa
 937 00c0 04       		.byte	0x4
 938 00c1 C5000000 		.4byte	0xc5
 939 00c5 0B       		.uleb128 0xb
ARM GAS  C:\Users\embedded\AppData\Local\Temp\ccOrxL0D.s 			page 22


 940 00c6 E9040000 		.4byte	.LASF120
 941 00ca 01       		.byte	0x1
 942 00cb 05       		.uleb128 0x5
 943 00cc 16030000 		.4byte	.LASF14
 944 00d0 04       		.byte	0x4
 945 00d1 2C       		.byte	0x2c
 946 00d2 9D000000 		.4byte	0x9d
 947 00d6 05       		.uleb128 0x5
 948 00d7 12050000 		.4byte	.LASF15
 949 00db 04       		.byte	0x4
 950 00dc 72       		.byte	0x72
 951 00dd 9D000000 		.4byte	0x9d
 952 00e1 0C       		.uleb128 0xc
 953 00e2 90020000 		.4byte	.LASF16
 954 00e6 05       		.byte	0x5
 955 00e7 6501     		.2byte	0x165
 956 00e9 4E000000 		.4byte	0x4e
 957 00ed 0D       		.uleb128 0xd
 958 00ee 04       		.byte	0x4
 959 00ef 04       		.byte	0x4
 960 00f0 A6       		.byte	0xa6
 961 00f1 0C010000 		.4byte	0x10c
 962 00f5 0E       		.uleb128 0xe
 963 00f6 7B020000 		.4byte	.LASF17
 964 00fa 04       		.byte	0x4
 965 00fb A8       		.byte	0xa8
 966 00fc E1000000 		.4byte	0xe1
 967 0100 0E       		.uleb128 0xe
 968 0101 E7010000 		.4byte	.LASF18
 969 0105 04       		.byte	0x4
 970 0106 A9       		.byte	0xa9
 971 0107 0C010000 		.4byte	0x10c
 972 010b 00       		.byte	0
 973 010c 0F       		.uleb128 0xf
 974 010d 35000000 		.4byte	0x35
 975 0111 1C010000 		.4byte	0x11c
 976 0115 10       		.uleb128 0x10
 977 0116 4E000000 		.4byte	0x4e
 978 011a 03       		.byte	0x3
 979 011b 00       		.byte	0
 980 011c 11       		.uleb128 0x11
 981 011d 08       		.byte	0x8
 982 011e 04       		.byte	0x4
 983 011f A3       		.byte	0xa3
 984 0120 41010000 		.4byte	0x141
 985 0124 12       		.uleb128 0x12
 986 0125 E1040000 		.4byte	.LASF19
 987 0129 04       		.byte	0x4
 988 012a A5       		.byte	0xa5
 989 012b 75000000 		.4byte	0x75
 990 012f 02       		.byte	0x2
 991 0130 23       		.byte	0x23
 992 0131 00       		.uleb128 0
 993 0132 12       		.uleb128 0x12
 994 0133 F0040000 		.4byte	.LASF20
 995 0137 04       		.byte	0x4
 996 0138 AA       		.byte	0xaa
ARM GAS  C:\Users\embedded\AppData\Local\Temp\ccOrxL0D.s 			page 23


 997 0139 ED000000 		.4byte	0xed
 998 013d 02       		.byte	0x2
 999 013e 23       		.byte	0x23
 1000 013f 04       		.uleb128 0x4
 1001 0140 00       		.byte	0
 1002 0141 05       		.uleb128 0x5
 1003 0142 56040000 		.4byte	.LASF21
 1004 0146 04       		.byte	0x4
 1005 0147 AB       		.byte	0xab
 1006 0148 1C010000 		.4byte	0x11c
 1007 014c 05       		.uleb128 0x5
 1008 014d 8E010000 		.4byte	.LASF22
 1009 0151 04       		.byte	0x4
 1010 0152 AF       		.byte	0xaf
 1011 0153 B4000000 		.4byte	0xb4
 1012 0157 05       		.uleb128 0x5
 1013 0158 76050000 		.4byte	.LASF23
 1014 015c 06       		.byte	0x6
 1015 015d 16       		.byte	0x16
 1016 015e A4000000 		.4byte	0xa4
 1017 0162 13       		.uleb128 0x13
 1018 0163 9F010000 		.4byte	.LASF28
 1019 0167 18       		.byte	0x18
 1020 0168 06       		.byte	0x6
 1021 0169 2F       		.byte	0x2f
 1022 016a C1010000 		.4byte	0x1c1
 1023 016e 12       		.uleb128 0x12
 1024 016f 41050000 		.4byte	.LASF24
 1025 0173 06       		.byte	0x6
 1026 0174 31       		.byte	0x31
 1027 0175 C1010000 		.4byte	0x1c1
 1028 0179 02       		.byte	0x2
 1029 017a 23       		.byte	0x23
 1030 017b 00       		.uleb128 0
 1031 017c 14       		.uleb128 0x14
 1032 017d 5F6B00   		.ascii	"_k\000"
 1033 0180 06       		.byte	0x6
 1034 0181 32       		.byte	0x32
 1035 0182 75000000 		.4byte	0x75
 1036 0186 02       		.byte	0x2
 1037 0187 23       		.byte	0x23
 1038 0188 04       		.uleb128 0x4
 1039 0189 12       		.uleb128 0x12
 1040 018a 5D050000 		.4byte	.LASF25
 1041 018e 06       		.byte	0x6
 1042 018f 32       		.byte	0x32
 1043 0190 75000000 		.4byte	0x75
 1044 0194 02       		.byte	0x2
 1045 0195 23       		.byte	0x23
 1046 0196 08       		.uleb128 0x8
 1047 0197 12       		.uleb128 0x12
 1048 0198 88010000 		.4byte	.LASF26
 1049 019c 06       		.byte	0x6
 1050 019d 32       		.byte	0x32
 1051 019e 75000000 		.4byte	0x75
 1052 01a2 02       		.byte	0x2
 1053 01a3 23       		.byte	0x23
ARM GAS  C:\Users\embedded\AppData\Local\Temp\ccOrxL0D.s 			page 24


 1054 01a4 0C       		.uleb128 0xc
 1055 01a5 12       		.uleb128 0x12
 1056 01a6 AB050000 		.4byte	.LASF27
 1057 01aa 06       		.byte	0x6
 1058 01ab 32       		.byte	0x32
 1059 01ac 75000000 		.4byte	0x75
 1060 01b0 02       		.byte	0x2
 1061 01b1 23       		.byte	0x23
 1062 01b2 10       		.uleb128 0x10
 1063 01b3 14       		.uleb128 0x14
 1064 01b4 5F7800   		.ascii	"_x\000"
 1065 01b7 06       		.byte	0x6
 1066 01b8 33       		.byte	0x33
 1067 01b9 C7010000 		.4byte	0x1c7
 1068 01bd 02       		.byte	0x2
 1069 01be 23       		.byte	0x23
 1070 01bf 14       		.uleb128 0x14
 1071 01c0 00       		.byte	0
 1072 01c1 0A       		.uleb128 0xa
 1073 01c2 04       		.byte	0x4
 1074 01c3 62010000 		.4byte	0x162
 1075 01c7 0F       		.uleb128 0xf
 1076 01c8 57010000 		.4byte	0x157
 1077 01cc D7010000 		.4byte	0x1d7
 1078 01d0 10       		.uleb128 0x10
 1079 01d1 4E000000 		.4byte	0x4e
 1080 01d5 00       		.byte	0
 1081 01d6 00       		.byte	0
 1082 01d7 13       		.uleb128 0x13
 1083 01d8 D5010000 		.4byte	.LASF29
 1084 01dc 24       		.byte	0x24
 1085 01dd 06       		.byte	0x6
 1086 01de 37       		.byte	0x37
 1087 01df 62020000 		.4byte	0x262
 1088 01e3 12       		.uleb128 0x12
 1089 01e4 9A000000 		.4byte	.LASF30
 1090 01e8 06       		.byte	0x6
 1091 01e9 39       		.byte	0x39
 1092 01ea 75000000 		.4byte	0x75
 1093 01ee 02       		.byte	0x2
 1094 01ef 23       		.byte	0x23
 1095 01f0 00       		.uleb128 0
 1096 01f1 12       		.uleb128 0x12
 1097 01f2 26050000 		.4byte	.LASF31
 1098 01f6 06       		.byte	0x6
 1099 01f7 3A       		.byte	0x3a
 1100 01f8 75000000 		.4byte	0x75
 1101 01fc 02       		.byte	0x2
 1102 01fd 23       		.byte	0x23
 1103 01fe 04       		.uleb128 0x4
 1104 01ff 12       		.uleb128 0x12
 1105 0200 C9000000 		.4byte	.LASF32
 1106 0204 06       		.byte	0x6
 1107 0205 3B       		.byte	0x3b
 1108 0206 75000000 		.4byte	0x75
 1109 020a 02       		.byte	0x2
 1110 020b 23       		.byte	0x23
ARM GAS  C:\Users\embedded\AppData\Local\Temp\ccOrxL0D.s 			page 25


 1111 020c 08       		.uleb128 0x8
 1112 020d 12       		.uleb128 0x12
 1113 020e 46060000 		.4byte	.LASF33
 1114 0212 06       		.byte	0x6
 1115 0213 3C       		.byte	0x3c
 1116 0214 75000000 		.4byte	0x75
 1117 0218 02       		.byte	0x2
 1118 0219 23       		.byte	0x23
 1119 021a 0C       		.uleb128 0xc
 1120 021b 12       		.uleb128 0x12
 1121 021c FA020000 		.4byte	.LASF34
 1122 0220 06       		.byte	0x6
 1123 0221 3D       		.byte	0x3d
 1124 0222 75000000 		.4byte	0x75
 1125 0226 02       		.byte	0x2
 1126 0227 23       		.byte	0x23
 1127 0228 10       		.uleb128 0x10
 1128 0229 12       		.uleb128 0x12
 1129 022a B5020000 		.4byte	.LASF35
 1130 022e 06       		.byte	0x6
 1131 022f 3E       		.byte	0x3e
 1132 0230 75000000 		.4byte	0x75
 1133 0234 02       		.byte	0x2
 1134 0235 23       		.byte	0x23
 1135 0236 14       		.uleb128 0x14
 1136 0237 12       		.uleb128 0x12
 1137 0238 B0050000 		.4byte	.LASF36
 1138 023c 06       		.byte	0x6
 1139 023d 3F       		.byte	0x3f
 1140 023e 75000000 		.4byte	0x75
 1141 0242 02       		.byte	0x2
 1142 0243 23       		.byte	0x23
 1143 0244 18       		.uleb128 0x18
 1144 0245 12       		.uleb128 0x12
 1145 0246 34040000 		.4byte	.LASF37
 1146 024a 06       		.byte	0x6
 1147 024b 40       		.byte	0x40
 1148 024c 75000000 		.4byte	0x75
 1149 0250 02       		.byte	0x2
 1150 0251 23       		.byte	0x23
 1151 0252 1C       		.uleb128 0x1c
 1152 0253 12       		.uleb128 0x12
 1153 0254 EB050000 		.4byte	.LASF38
 1154 0258 06       		.byte	0x6
 1155 0259 41       		.byte	0x41
 1156 025a 75000000 		.4byte	0x75
 1157 025e 02       		.byte	0x2
 1158 025f 23       		.byte	0x23
 1159 0260 20       		.uleb128 0x20
 1160 0261 00       		.byte	0
 1161 0262 15       		.uleb128 0x15
 1162 0263 D8000000 		.4byte	.LASF39
 1163 0267 0801     		.2byte	0x108
 1164 0269 06       		.byte	0x6
 1165 026a 4A       		.byte	0x4a
 1166 026b AB020000 		.4byte	0x2ab
 1167 026f 12       		.uleb128 0x12
ARM GAS  C:\Users\embedded\AppData\Local\Temp\ccOrxL0D.s 			page 26


 1168 0270 70010000 		.4byte	.LASF40
 1169 0274 06       		.byte	0x6
 1170 0275 4B       		.byte	0x4b
 1171 0276 AB020000 		.4byte	0x2ab
 1172 027a 02       		.byte	0x2
 1173 027b 23       		.byte	0x23
 1174 027c 00       		.uleb128 0
 1175 027d 12       		.uleb128 0x12
 1176 027e 00000000 		.4byte	.LASF41
 1177 0282 06       		.byte	0x6
 1178 0283 4C       		.byte	0x4c
 1179 0284 AB020000 		.4byte	0x2ab
 1180 0288 03       		.byte	0x3
 1181 0289 23       		.byte	0x23
 1182 028a 8001     		.uleb128 0x80
 1183 028c 12       		.uleb128 0x12
 1184 028d 54050000 		.4byte	.LASF42
 1185 0291 06       		.byte	0x6
 1186 0292 4E       		.byte	0x4e
 1187 0293 57010000 		.4byte	0x157
 1188 0297 03       		.byte	0x3
 1189 0298 23       		.byte	0x23
 1190 0299 8002     		.uleb128 0x100
 1191 029b 12       		.uleb128 0x12
 1192 029c 0B010000 		.4byte	.LASF43
 1193 02a0 06       		.byte	0x6
 1194 02a1 51       		.byte	0x51
 1195 02a2 57010000 		.4byte	0x157
 1196 02a6 03       		.byte	0x3
 1197 02a7 23       		.byte	0x23
 1198 02a8 8402     		.uleb128 0x104
 1199 02aa 00       		.byte	0
 1200 02ab 0F       		.uleb128 0xf
 1201 02ac B2000000 		.4byte	0xb2
 1202 02b0 BB020000 		.4byte	0x2bb
 1203 02b4 10       		.uleb128 0x10
 1204 02b5 4E000000 		.4byte	0x4e
 1205 02b9 1F       		.byte	0x1f
 1206 02ba 00       		.byte	0
 1207 02bb 15       		.uleb128 0x15
 1208 02bc 03030000 		.4byte	.LASF44
 1209 02c0 9001     		.2byte	0x190
 1210 02c2 06       		.byte	0x6
 1211 02c3 5D       		.byte	0x5d
 1212 02c4 02030000 		.4byte	0x302
 1213 02c8 12       		.uleb128 0x12
 1214 02c9 41050000 		.4byte	.LASF24
 1215 02cd 06       		.byte	0x6
 1216 02ce 5E       		.byte	0x5e
 1217 02cf 02030000 		.4byte	0x302
 1218 02d3 02       		.byte	0x2
 1219 02d4 23       		.byte	0x23
 1220 02d5 00       		.uleb128 0
 1221 02d6 12       		.uleb128 0x12
 1222 02d7 88040000 		.4byte	.LASF45
 1223 02db 06       		.byte	0x6
 1224 02dc 5F       		.byte	0x5f
ARM GAS  C:\Users\embedded\AppData\Local\Temp\ccOrxL0D.s 			page 27


 1225 02dd 75000000 		.4byte	0x75
 1226 02e1 02       		.byte	0x2
 1227 02e2 23       		.byte	0x23
 1228 02e3 04       		.uleb128 0x4
 1229 02e4 12       		.uleb128 0x12
 1230 02e5 83010000 		.4byte	.LASF46
 1231 02e9 06       		.byte	0x6
 1232 02ea 61       		.byte	0x61
 1233 02eb 08030000 		.4byte	0x308
 1234 02ef 02       		.byte	0x2
 1235 02f0 23       		.byte	0x23
 1236 02f1 08       		.uleb128 0x8
 1237 02f2 12       		.uleb128 0x12
 1238 02f3 D8000000 		.4byte	.LASF39
 1239 02f7 06       		.byte	0x6
 1240 02f8 62       		.byte	0x62
 1241 02f9 62020000 		.4byte	0x262
 1242 02fd 03       		.byte	0x3
 1243 02fe 23       		.byte	0x23
 1244 02ff 8801     		.uleb128 0x88
 1245 0301 00       		.byte	0
 1246 0302 0A       		.uleb128 0xa
 1247 0303 04       		.byte	0x4
 1248 0304 BB020000 		.4byte	0x2bb
 1249 0308 0F       		.uleb128 0xf
 1250 0309 18030000 		.4byte	0x318
 1251 030d 18030000 		.4byte	0x318
 1252 0311 10       		.uleb128 0x10
 1253 0312 4E000000 		.4byte	0x4e
 1254 0316 1F       		.byte	0x1f
 1255 0317 00       		.byte	0
 1256 0318 0A       		.uleb128 0xa
 1257 0319 04       		.byte	0x4
 1258 031a 1E030000 		.4byte	0x31e
 1259 031e 16       		.uleb128 0x16
 1260 031f 01       		.byte	0x1
 1261 0320 13       		.uleb128 0x13
 1262 0321 3E040000 		.4byte	.LASF47
 1263 0325 08       		.byte	0x8
 1264 0326 06       		.byte	0x6
 1265 0327 75       		.byte	0x75
 1266 0328 49030000 		.4byte	0x349
 1267 032c 12       		.uleb128 0x12
 1268 032d C3000000 		.4byte	.LASF48
 1269 0331 06       		.byte	0x6
 1270 0332 76       		.byte	0x76
 1271 0333 49030000 		.4byte	0x349
 1272 0337 02       		.byte	0x2
 1273 0338 23       		.byte	0x23
 1274 0339 00       		.uleb128 0
 1275 033a 12       		.uleb128 0x12
 1276 033b 0C000000 		.4byte	.LASF49
 1277 033f 06       		.byte	0x6
 1278 0340 77       		.byte	0x77
 1279 0341 75000000 		.4byte	0x75
 1280 0345 02       		.byte	0x2
 1281 0346 23       		.byte	0x23
ARM GAS  C:\Users\embedded\AppData\Local\Temp\ccOrxL0D.s 			page 28


 1282 0347 04       		.uleb128 0x4
 1283 0348 00       		.byte	0
 1284 0349 0A       		.uleb128 0xa
 1285 034a 04       		.byte	0x4
 1286 034b 35000000 		.4byte	0x35
 1287 034f 13       		.uleb128 0x13
 1288 0350 61040000 		.4byte	.LASF50
 1289 0354 68       		.byte	0x68
 1290 0355 06       		.byte	0x6
 1291 0356 B5       		.byte	0xb5
 1292 0357 A9040000 		.4byte	0x4a9
 1293 035b 14       		.uleb128 0x14
 1294 035c 5F7000   		.ascii	"_p\000"
 1295 035f 06       		.byte	0x6
 1296 0360 B6       		.byte	0xb6
 1297 0361 49030000 		.4byte	0x349
 1298 0365 02       		.byte	0x2
 1299 0366 23       		.byte	0x23
 1300 0367 00       		.uleb128 0
 1301 0368 14       		.uleb128 0x14
 1302 0369 5F7200   		.ascii	"_r\000"
 1303 036c 06       		.byte	0x6
 1304 036d B7       		.byte	0xb7
 1305 036e 75000000 		.4byte	0x75
 1306 0372 02       		.byte	0x2
 1307 0373 23       		.byte	0x23
 1308 0374 04       		.uleb128 0x4
 1309 0375 14       		.uleb128 0x14
 1310 0376 5F7700   		.ascii	"_w\000"
 1311 0379 06       		.byte	0x6
 1312 037a B8       		.byte	0xb8
 1313 037b 75000000 		.4byte	0x75
 1314 037f 02       		.byte	0x2
 1315 0380 23       		.byte	0x23
 1316 0381 08       		.uleb128 0x8
 1317 0382 12       		.uleb128 0x12
 1318 0383 04010000 		.4byte	.LASF51
 1319 0387 06       		.byte	0x6
 1320 0388 B9       		.byte	0xb9
 1321 0389 6E000000 		.4byte	0x6e
 1322 038d 02       		.byte	0x2
 1323 038e 23       		.byte	0x23
 1324 038f 0C       		.uleb128 0xc
 1325 0390 12       		.uleb128 0x12
 1326 0391 25020000 		.4byte	.LASF52
 1327 0395 06       		.byte	0x6
 1328 0396 BA       		.byte	0xba
 1329 0397 6E000000 		.4byte	0x6e
 1330 039b 02       		.byte	0x2
 1331 039c 23       		.byte	0x23
 1332 039d 0E       		.uleb128 0xe
 1333 039e 14       		.uleb128 0x14
 1334 039f 5F626600 		.ascii	"_bf\000"
 1335 03a3 06       		.byte	0x6
 1336 03a4 BB       		.byte	0xbb
 1337 03a5 20030000 		.4byte	0x320
 1338 03a9 02       		.byte	0x2
ARM GAS  C:\Users\embedded\AppData\Local\Temp\ccOrxL0D.s 			page 29


 1339 03aa 23       		.byte	0x23
 1340 03ab 10       		.uleb128 0x10
 1341 03ac 12       		.uleb128 0x12
 1342 03ad 77000000 		.4byte	.LASF53
 1343 03b1 06       		.byte	0x6
 1344 03b2 BC       		.byte	0xbc
 1345 03b3 75000000 		.4byte	0x75
 1346 03b7 02       		.byte	0x2
 1347 03b8 23       		.byte	0x23
 1348 03b9 18       		.uleb128 0x18
 1349 03ba 12       		.uleb128 0x12
 1350 03bb E6000000 		.4byte	.LASF54
 1351 03bf 06       		.byte	0x6
 1352 03c0 C3       		.byte	0xc3
 1353 03c1 B2000000 		.4byte	0xb2
 1354 03c5 02       		.byte	0x2
 1355 03c6 23       		.byte	0x23
 1356 03c7 1C       		.uleb128 0x1c
 1357 03c8 12       		.uleb128 0x12
 1358 03c9 B6010000 		.4byte	.LASF55
 1359 03cd 06       		.byte	0x6
 1360 03ce C5       		.byte	0xc5
 1361 03cf 43060000 		.4byte	0x643
 1362 03d3 02       		.byte	0x2
 1363 03d4 23       		.byte	0x23
 1364 03d5 20       		.uleb128 0x20
 1365 03d6 12       		.uleb128 0x12
 1366 03d7 AE020000 		.4byte	.LASF56
 1367 03db 06       		.byte	0x6
 1368 03dc C7       		.byte	0xc7
 1369 03dd 6E060000 		.4byte	0x66e
 1370 03e1 02       		.byte	0x2
 1371 03e2 23       		.byte	0x23
 1372 03e3 24       		.uleb128 0x24
 1373 03e4 12       		.uleb128 0x12
 1374 03e5 F8040000 		.4byte	.LASF57
 1375 03e9 06       		.byte	0x6
 1376 03ea CA       		.byte	0xca
 1377 03eb 93060000 		.4byte	0x693
 1378 03ef 02       		.byte	0x2
 1379 03f0 23       		.byte	0x23
 1380 03f1 28       		.uleb128 0x28
 1381 03f2 12       		.uleb128 0x12
 1382 03f3 05060000 		.4byte	.LASF58
 1383 03f7 06       		.byte	0x6
 1384 03f8 CB       		.byte	0xcb
 1385 03f9 AE060000 		.4byte	0x6ae
 1386 03fd 02       		.byte	0x2
 1387 03fe 23       		.byte	0x23
 1388 03ff 2C       		.uleb128 0x2c
 1389 0400 14       		.uleb128 0x14
 1390 0401 5F756200 		.ascii	"_ub\000"
 1391 0405 06       		.byte	0x6
 1392 0406 CE       		.byte	0xce
 1393 0407 20030000 		.4byte	0x320
 1394 040b 02       		.byte	0x2
 1395 040c 23       		.byte	0x23
ARM GAS  C:\Users\embedded\AppData\Local\Temp\ccOrxL0D.s 			page 30


 1396 040d 30       		.uleb128 0x30
 1397 040e 14       		.uleb128 0x14
 1398 040f 5F757000 		.ascii	"_up\000"
 1399 0413 06       		.byte	0x6
 1400 0414 CF       		.byte	0xcf
 1401 0415 49030000 		.4byte	0x349
 1402 0419 02       		.byte	0x2
 1403 041a 23       		.byte	0x23
 1404 041b 38       		.uleb128 0x38
 1405 041c 14       		.uleb128 0x14
 1406 041d 5F757200 		.ascii	"_ur\000"
 1407 0421 06       		.byte	0x6
 1408 0422 D0       		.byte	0xd0
 1409 0423 75000000 		.4byte	0x75
 1410 0427 02       		.byte	0x2
 1411 0428 23       		.byte	0x23
 1412 0429 3C       		.uleb128 0x3c
 1413 042a 12       		.uleb128 0x12
 1414 042b BD000000 		.4byte	.LASF59
 1415 042f 06       		.byte	0x6
 1416 0430 D3       		.byte	0xd3
 1417 0431 B4060000 		.4byte	0x6b4
 1418 0435 02       		.byte	0x2
 1419 0436 23       		.byte	0x23
 1420 0437 40       		.uleb128 0x40
 1421 0438 12       		.uleb128 0x12
 1422 0439 DD050000 		.4byte	.LASF60
 1423 043d 06       		.byte	0x6
 1424 043e D4       		.byte	0xd4
 1425 043f C4060000 		.4byte	0x6c4
 1426 0443 02       		.byte	0x2
 1427 0444 23       		.byte	0x23
 1428 0445 43       		.uleb128 0x43
 1429 0446 14       		.uleb128 0x14
 1430 0447 5F6C6200 		.ascii	"_lb\000"
 1431 044b 06       		.byte	0x6
 1432 044c D7       		.byte	0xd7
 1433 044d 20030000 		.4byte	0x320
 1434 0451 02       		.byte	0x2
 1435 0452 23       		.byte	0x23
 1436 0453 44       		.uleb128 0x44
 1437 0454 12       		.uleb128 0x12
 1438 0455 29010000 		.4byte	.LASF61
 1439 0459 06       		.byte	0x6
 1440 045a DA       		.byte	0xda
 1441 045b 75000000 		.4byte	0x75
 1442 045f 02       		.byte	0x2
 1443 0460 23       		.byte	0x23
 1444 0461 4C       		.uleb128 0x4c
 1445 0462 12       		.uleb128 0x12
 1446 0463 3A010000 		.4byte	.LASF62
 1447 0467 06       		.byte	0x6
 1448 0468 DB       		.byte	0xdb
 1449 0469 CB000000 		.4byte	0xcb
 1450 046d 02       		.byte	0x2
 1451 046e 23       		.byte	0x23
 1452 046f 50       		.uleb128 0x50
ARM GAS  C:\Users\embedded\AppData\Local\Temp\ccOrxL0D.s 			page 31


 1453 0470 12       		.uleb128 0x12
 1454 0471 2D000000 		.4byte	.LASF63
 1455 0475 06       		.byte	0x6
 1456 0476 DE       		.byte	0xde
 1457 0477 C8040000 		.4byte	0x4c8
 1458 047b 02       		.byte	0x2
 1459 047c 23       		.byte	0x23
 1460 047d 54       		.uleb128 0x54
 1461 047e 12       		.uleb128 0x12
 1462 047f 97020000 		.4byte	.LASF64
 1463 0483 06       		.byte	0x6
 1464 0484 E2       		.byte	0xe2
 1465 0485 4C010000 		.4byte	0x14c
 1466 0489 02       		.byte	0x2
 1467 048a 23       		.byte	0x23
 1468 048b 58       		.uleb128 0x58
 1469 048c 12       		.uleb128 0x12
 1470 048d 69040000 		.4byte	.LASF65
 1471 0491 06       		.byte	0x6
 1472 0492 E4       		.byte	0xe4
 1473 0493 41010000 		.4byte	0x141
 1474 0497 02       		.byte	0x2
 1475 0498 23       		.byte	0x23
 1476 0499 5C       		.uleb128 0x5c
 1477 049a 12       		.uleb128 0x12
 1478 049b 9D020000 		.4byte	.LASF66
 1479 049f 06       		.byte	0x6
 1480 04a0 E5       		.byte	0xe5
 1481 04a1 75000000 		.4byte	0x75
 1482 04a5 02       		.byte	0x2
 1483 04a6 23       		.byte	0x23
 1484 04a7 64       		.uleb128 0x64
 1485 04a8 00       		.byte	0
 1486 04a9 17       		.uleb128 0x17
 1487 04aa 01       		.byte	0x1
 1488 04ab 75000000 		.4byte	0x75
 1489 04af C8040000 		.4byte	0x4c8
 1490 04b3 18       		.uleb128 0x18
 1491 04b4 C8040000 		.4byte	0x4c8
 1492 04b8 18       		.uleb128 0x18
 1493 04b9 B2000000 		.4byte	0xb2
 1494 04bd 18       		.uleb128 0x18
 1495 04be 31060000 		.4byte	0x631
 1496 04c2 18       		.uleb128 0x18
 1497 04c3 75000000 		.4byte	0x75
 1498 04c7 00       		.byte	0
 1499 04c8 0A       		.uleb128 0xa
 1500 04c9 04       		.byte	0x4
 1501 04ca D3040000 		.4byte	0x4d3
 1502 04ce 03       		.uleb128 0x3
 1503 04cf C8040000 		.4byte	0x4c8
 1504 04d3 19       		.uleb128 0x19
 1505 04d4 BD040000 		.4byte	.LASF67
 1506 04d8 2804     		.2byte	0x428
 1507 04da 06       		.byte	0x6
 1508 04db 6002     		.2byte	0x260
 1509 04dd 31060000 		.4byte	0x631
ARM GAS  C:\Users\embedded\AppData\Local\Temp\ccOrxL0D.s 			page 32


 1510 04e1 1A       		.uleb128 0x1a
 1511 04e2 1A050000 		.4byte	.LASF68
 1512 04e6 06       		.byte	0x6
 1513 04e7 6202     		.2byte	0x262
 1514 04e9 75000000 		.4byte	0x75
 1515 04ed 02       		.byte	0x2
 1516 04ee 23       		.byte	0x23
 1517 04ef 00       		.uleb128 0
 1518 04f0 1A       		.uleb128 0x1a
 1519 04f1 13010000 		.4byte	.LASF69
 1520 04f5 06       		.byte	0x6
 1521 04f6 6702     		.2byte	0x267
 1522 04f8 21070000 		.4byte	0x721
 1523 04fc 02       		.byte	0x2
 1524 04fd 23       		.byte	0x23
 1525 04fe 04       		.uleb128 0x4
 1526 04ff 1A       		.uleb128 0x1a
 1527 0500 FA010000 		.4byte	.LASF70
 1528 0504 06       		.byte	0x6
 1529 0505 6702     		.2byte	0x267
 1530 0507 21070000 		.4byte	0x721
 1531 050b 02       		.byte	0x2
 1532 050c 23       		.byte	0x23
 1533 050d 08       		.uleb128 0x8
 1534 050e 1A       		.uleb128 0x1a
 1535 050f 97010000 		.4byte	.LASF71
 1536 0513 06       		.byte	0x6
 1537 0514 6702     		.2byte	0x267
 1538 0516 21070000 		.4byte	0x721
 1539 051a 02       		.byte	0x2
 1540 051b 23       		.byte	0x23
 1541 051c 0C       		.uleb128 0xc
 1542 051d 1A       		.uleb128 0x1a
 1543 051e 83040000 		.4byte	.LASF72
 1544 0522 06       		.byte	0x6
 1545 0523 6902     		.2byte	0x269
 1546 0525 75000000 		.4byte	0x75
 1547 0529 02       		.byte	0x2
 1548 052a 23       		.byte	0x23
 1549 052b 10       		.uleb128 0x10
 1550 052c 1A       		.uleb128 0x1a
 1551 052d 22000000 		.4byte	.LASF73
 1552 0531 06       		.byte	0x6
 1553 0532 6A02     		.2byte	0x26a
 1554 0534 3C090000 		.4byte	0x93c
 1555 0538 02       		.byte	0x2
 1556 0539 23       		.byte	0x23
 1557 053a 14       		.uleb128 0x14
 1558 053b 1A       		.uleb128 0x1a
 1559 053c 9F040000 		.4byte	.LASF74
 1560 0540 06       		.byte	0x6
 1561 0541 6D02     		.2byte	0x26d
 1562 0543 75000000 		.4byte	0x75
 1563 0547 02       		.byte	0x2
 1564 0548 23       		.byte	0x23
 1565 0549 30       		.uleb128 0x30
 1566 054a 1A       		.uleb128 0x1a
ARM GAS  C:\Users\embedded\AppData\Local\Temp\ccOrxL0D.s 			page 33


 1567 054b 8D040000 		.4byte	.LASF75
 1568 054f 06       		.byte	0x6
 1569 0550 6E02     		.2byte	0x26e
 1570 0552 52090000 		.4byte	0x952
 1571 0556 02       		.byte	0x2
 1572 0557 23       		.byte	0x23
 1573 0558 34       		.uleb128 0x34
 1574 0559 1A       		.uleb128 0x1a
 1575 055a 0B030000 		.4byte	.LASF76
 1576 055e 06       		.byte	0x6
 1577 055f 7002     		.2byte	0x270
 1578 0561 75000000 		.4byte	0x75
 1579 0565 02       		.byte	0x2
 1580 0566 23       		.byte	0x23
 1581 0567 38       		.uleb128 0x38
 1582 0568 1A       		.uleb128 0x1a
 1583 0569 95040000 		.4byte	.LASF77
 1584 056d 06       		.byte	0x6
 1585 056e 7202     		.2byte	0x272
 1586 0570 64090000 		.4byte	0x964
 1587 0574 02       		.byte	0x2
 1588 0575 23       		.byte	0x23
 1589 0576 3C       		.uleb128 0x3c
 1590 0577 1A       		.uleb128 0x1a
 1591 0578 73020000 		.4byte	.LASF78
 1592 057c 06       		.byte	0x6
 1593 057d 7502     		.2byte	0x275
 1594 057f C1010000 		.4byte	0x1c1
 1595 0583 02       		.byte	0x2
 1596 0584 23       		.byte	0x23
 1597 0585 40       		.uleb128 0x40
 1598 0586 1A       		.uleb128 0x1a
 1599 0587 BC010000 		.4byte	.LASF79
 1600 058b 06       		.byte	0x6
 1601 058c 7602     		.2byte	0x276
 1602 058e 75000000 		.4byte	0x75
 1603 0592 02       		.byte	0x2
 1604 0593 23       		.byte	0x23
 1605 0594 44       		.uleb128 0x44
 1606 0595 1A       		.uleb128 0x1a
 1607 0596 2E060000 		.4byte	.LASF80
 1608 059a 06       		.byte	0x6
 1609 059b 7702     		.2byte	0x277
 1610 059d C1010000 		.4byte	0x1c1
 1611 05a1 02       		.byte	0x2
 1612 05a2 23       		.byte	0x23
 1613 05a3 48       		.uleb128 0x48
 1614 05a4 1A       		.uleb128 0x1a
 1615 05a5 45040000 		.4byte	.LASF81
 1616 05a9 06       		.byte	0x6
 1617 05aa 7802     		.2byte	0x278
 1618 05ac 6A090000 		.4byte	0x96a
 1619 05b0 02       		.byte	0x2
 1620 05b1 23       		.byte	0x23
 1621 05b2 4C       		.uleb128 0x4c
 1622 05b3 1A       		.uleb128 0x1a
 1623 05b4 02020000 		.4byte	.LASF82
ARM GAS  C:\Users\embedded\AppData\Local\Temp\ccOrxL0D.s 			page 34


 1624 05b8 06       		.byte	0x6
 1625 05b9 7B02     		.2byte	0x27b
 1626 05bb 75000000 		.4byte	0x75
 1627 05bf 02       		.byte	0x2
 1628 05c0 23       		.byte	0x23
 1629 05c1 50       		.uleb128 0x50
 1630 05c2 1A       		.uleb128 0x1a
 1631 05c3 32010000 		.4byte	.LASF83
 1632 05c7 06       		.byte	0x6
 1633 05c8 7C02     		.2byte	0x27c
 1634 05ca 31060000 		.4byte	0x631
 1635 05ce 02       		.byte	0x2
 1636 05cf 23       		.byte	0x23
 1637 05d0 54       		.uleb128 0x54
 1638 05d1 1A       		.uleb128 0x1a
 1639 05d2 1C040000 		.4byte	.LASF84
 1640 05d6 06       		.byte	0x6
 1641 05d7 9F02     		.2byte	0x29f
 1642 05d9 1A090000 		.4byte	0x91a
 1643 05dd 02       		.byte	0x2
 1644 05de 23       		.byte	0x23
 1645 05df 58       		.uleb128 0x58
 1646 05e0 1A       		.uleb128 0x1a
 1647 05e1 03030000 		.4byte	.LASF44
 1648 05e5 06       		.byte	0x6
 1649 05e6 A302     		.2byte	0x2a3
 1650 05e8 02030000 		.4byte	0x302
 1651 05ec 03       		.byte	0x3
 1652 05ed 23       		.byte	0x23
 1653 05ee C802     		.uleb128 0x148
 1654 05f0 1A       		.uleb128 0x1a
 1655 05f1 CA040000 		.4byte	.LASF85
 1656 05f5 06       		.byte	0x6
 1657 05f6 A402     		.2byte	0x2a4
 1658 05f8 BB020000 		.4byte	0x2bb
 1659 05fc 03       		.byte	0x3
 1660 05fd 23       		.byte	0x23
 1661 05fe CC02     		.uleb128 0x14c
 1662 0600 1A       		.uleb128 0x1a
 1663 0601 D3050000 		.4byte	.LASF86
 1664 0605 06       		.byte	0x6
 1665 0606 A802     		.2byte	0x2a8
 1666 0608 7C090000 		.4byte	0x97c
 1667 060c 03       		.byte	0x3
 1668 060d 23       		.byte	0x23
 1669 060e DC05     		.uleb128 0x2dc
 1670 0610 1A       		.uleb128 0x1a
 1671 0611 EE000000 		.4byte	.LASF87
 1672 0615 06       		.byte	0x6
 1673 0616 AD02     		.2byte	0x2ad
 1674 0618 E0060000 		.4byte	0x6e0
 1675 061c 03       		.byte	0x3
 1676 061d 23       		.byte	0x23
 1677 061e E005     		.uleb128 0x2e0
 1678 0620 1A       		.uleb128 0x1a
 1679 0621 D3000000 		.4byte	.LASF88
 1680 0625 06       		.byte	0x6
ARM GAS  C:\Users\embedded\AppData\Local\Temp\ccOrxL0D.s 			page 35


 1681 0626 AF02     		.2byte	0x2af
 1682 0628 88090000 		.4byte	0x988
 1683 062c 03       		.byte	0x3
 1684 062d 23       		.byte	0x23
 1685 062e EC05     		.uleb128 0x2ec
 1686 0630 00       		.byte	0
 1687 0631 0A       		.uleb128 0xa
 1688 0632 04       		.byte	0x4
 1689 0633 37060000 		.4byte	0x637
 1690 0637 04       		.uleb128 0x4
 1691 0638 01       		.byte	0x1
 1692 0639 08       		.byte	0x8
 1693 063a 21050000 		.4byte	.LASF89
 1694 063e 03       		.uleb128 0x3
 1695 063f 37060000 		.4byte	0x637
 1696 0643 0A       		.uleb128 0xa
 1697 0644 04       		.byte	0x4
 1698 0645 A9040000 		.4byte	0x4a9
 1699 0649 17       		.uleb128 0x17
 1700 064a 01       		.byte	0x1
 1701 064b 75000000 		.4byte	0x75
 1702 064f 68060000 		.4byte	0x668
 1703 0653 18       		.uleb128 0x18
 1704 0654 C8040000 		.4byte	0x4c8
 1705 0658 18       		.uleb128 0x18
 1706 0659 B2000000 		.4byte	0xb2
 1707 065d 18       		.uleb128 0x18
 1708 065e 68060000 		.4byte	0x668
 1709 0662 18       		.uleb128 0x18
 1710 0663 75000000 		.4byte	0x75
 1711 0667 00       		.byte	0
 1712 0668 0A       		.uleb128 0xa
 1713 0669 04       		.byte	0x4
 1714 066a 3E060000 		.4byte	0x63e
 1715 066e 0A       		.uleb128 0xa
 1716 066f 04       		.byte	0x4
 1717 0670 49060000 		.4byte	0x649
 1718 0674 17       		.uleb128 0x17
 1719 0675 01       		.byte	0x1
 1720 0676 D6000000 		.4byte	0xd6
 1721 067a 93060000 		.4byte	0x693
 1722 067e 18       		.uleb128 0x18
 1723 067f C8040000 		.4byte	0x4c8
 1724 0683 18       		.uleb128 0x18
 1725 0684 B2000000 		.4byte	0xb2
 1726 0688 18       		.uleb128 0x18
 1727 0689 D6000000 		.4byte	0xd6
 1728 068d 18       		.uleb128 0x18
 1729 068e 75000000 		.4byte	0x75
 1730 0692 00       		.byte	0
 1731 0693 0A       		.uleb128 0xa
 1732 0694 04       		.byte	0x4
 1733 0695 74060000 		.4byte	0x674
 1734 0699 17       		.uleb128 0x17
 1735 069a 01       		.byte	0x1
 1736 069b 75000000 		.4byte	0x75
 1737 069f AE060000 		.4byte	0x6ae
ARM GAS  C:\Users\embedded\AppData\Local\Temp\ccOrxL0D.s 			page 36


 1738 06a3 18       		.uleb128 0x18
 1739 06a4 C8040000 		.4byte	0x4c8
 1740 06a8 18       		.uleb128 0x18
 1741 06a9 B2000000 		.4byte	0xb2
 1742 06ad 00       		.byte	0
 1743 06ae 0A       		.uleb128 0xa
 1744 06af 04       		.byte	0x4
 1745 06b0 99060000 		.4byte	0x699
 1746 06b4 0F       		.uleb128 0xf
 1747 06b5 35000000 		.4byte	0x35
 1748 06b9 C4060000 		.4byte	0x6c4
 1749 06bd 10       		.uleb128 0x10
 1750 06be 4E000000 		.4byte	0x4e
 1751 06c2 02       		.byte	0x2
 1752 06c3 00       		.byte	0
 1753 06c4 0F       		.uleb128 0xf
 1754 06c5 35000000 		.4byte	0x35
 1755 06c9 D4060000 		.4byte	0x6d4
 1756 06cd 10       		.uleb128 0x10
 1757 06ce 4E000000 		.4byte	0x4e
 1758 06d2 00       		.byte	0
 1759 06d3 00       		.byte	0
 1760 06d4 0C       		.uleb128 0xc
 1761 06d5 4F040000 		.4byte	.LASF90
 1762 06d9 06       		.byte	0x6
 1763 06da 1F01     		.2byte	0x11f
 1764 06dc 4F030000 		.4byte	0x34f
 1765 06e0 1B       		.uleb128 0x1b
 1766 06e1 BA050000 		.4byte	.LASF91
 1767 06e5 0C       		.byte	0xc
 1768 06e6 06       		.byte	0x6
 1769 06e7 2301     		.2byte	0x123
 1770 06e9 1B070000 		.4byte	0x71b
 1771 06ed 1A       		.uleb128 0x1a
 1772 06ee 41050000 		.4byte	.LASF24
 1773 06f2 06       		.byte	0x6
 1774 06f3 2501     		.2byte	0x125
 1775 06f5 1B070000 		.4byte	0x71b
 1776 06f9 02       		.byte	0x2
 1777 06fa 23       		.byte	0x23
 1778 06fb 00       		.uleb128 0
 1779 06fc 1A       		.uleb128 0x1a
 1780 06fd 2B020000 		.4byte	.LASF92
 1781 0701 06       		.byte	0x6
 1782 0702 2601     		.2byte	0x126
 1783 0704 75000000 		.4byte	0x75
 1784 0708 02       		.byte	0x2
 1785 0709 23       		.byte	0x23
 1786 070a 04       		.uleb128 0x4
 1787 070b 1A       		.uleb128 0x1a
 1788 070c 7D040000 		.4byte	.LASF93
 1789 0710 06       		.byte	0x6
 1790 0711 2701     		.2byte	0x127
 1791 0713 21070000 		.4byte	0x721
 1792 0717 02       		.byte	0x2
 1793 0718 23       		.byte	0x23
 1794 0719 08       		.uleb128 0x8
ARM GAS  C:\Users\embedded\AppData\Local\Temp\ccOrxL0D.s 			page 37


 1795 071a 00       		.byte	0
 1796 071b 0A       		.uleb128 0xa
 1797 071c 04       		.byte	0x4
 1798 071d E0060000 		.4byte	0x6e0
 1799 0721 0A       		.uleb128 0xa
 1800 0722 04       		.byte	0x4
 1801 0723 D4060000 		.4byte	0x6d4
 1802 0727 1B       		.uleb128 0x1b
 1803 0728 1A000000 		.4byte	.LASF94
 1804 072c 0E       		.byte	0xe
 1805 072d 06       		.byte	0x6
 1806 072e 3F01     		.2byte	0x13f
 1807 0730 62070000 		.4byte	0x762
 1808 0734 1A       		.uleb128 0x1a
 1809 0735 C4040000 		.4byte	.LASF95
 1810 0739 06       		.byte	0x6
 1811 073a 4001     		.2byte	0x140
 1812 073c 62070000 		.4byte	0x762
 1813 0740 02       		.byte	0x2
 1814 0741 23       		.byte	0x23
 1815 0742 00       		.uleb128 0
 1816 0743 1A       		.uleb128 0x1a
 1817 0744 3B050000 		.4byte	.LASF96
 1818 0748 06       		.byte	0x6
 1819 0749 4101     		.2byte	0x141
 1820 074b 62070000 		.4byte	0x762
 1821 074f 02       		.byte	0x2
 1822 0750 23       		.byte	0x23
 1823 0751 06       		.uleb128 0x6
 1824 0752 1A       		.uleb128 0x1a
 1825 0753 71050000 		.4byte	.LASF97
 1826 0757 06       		.byte	0x6
 1827 0758 4201     		.2byte	0x142
 1828 075a 47000000 		.4byte	0x47
 1829 075e 02       		.byte	0x2
 1830 075f 23       		.byte	0x23
 1831 0760 0C       		.uleb128 0xc
 1832 0761 00       		.byte	0
 1833 0762 0F       		.uleb128 0xf
 1834 0763 47000000 		.4byte	0x47
 1835 0767 72070000 		.4byte	0x772
 1836 076b 10       		.uleb128 0x10
 1837 076c 4E000000 		.4byte	0x4e
 1838 0770 02       		.byte	0x2
 1839 0771 00       		.byte	0
 1840 0772 1C       		.uleb128 0x1c
 1841 0773 D0       		.byte	0xd0
 1842 0774 06       		.byte	0x6
 1843 0775 8002     		.2byte	0x280
 1844 0777 A2080000 		.4byte	0x8a2
 1845 077b 1A       		.uleb128 0x1a
 1846 077c 9E050000 		.4byte	.LASF98
 1847 0780 06       		.byte	0x6
 1848 0781 8202     		.2byte	0x282
 1849 0783 4E000000 		.4byte	0x4e
 1850 0787 02       		.byte	0x2
 1851 0788 23       		.byte	0x23
ARM GAS  C:\Users\embedded\AppData\Local\Temp\ccOrxL0D.s 			page 38


 1852 0789 00       		.uleb128 0
 1853 078a 1A       		.uleb128 0x1a
 1854 078b 47050000 		.4byte	.LASF99
 1855 078f 06       		.byte	0x6
 1856 0790 8302     		.2byte	0x283
 1857 0792 31060000 		.4byte	0x631
 1858 0796 02       		.byte	0x2
 1859 0797 23       		.byte	0x23
 1860 0798 04       		.uleb128 0x4
 1861 0799 1A       		.uleb128 0x1a
 1862 079a 5A020000 		.4byte	.LASF100
 1863 079e 06       		.byte	0x6
 1864 079f 8402     		.2byte	0x284
 1865 07a1 A2080000 		.4byte	0x8a2
 1866 07a5 02       		.byte	0x2
 1867 07a6 23       		.byte	0x23
 1868 07a7 08       		.uleb128 0x8
 1869 07a8 1A       		.uleb128 0x1a
 1870 07a9 F6050000 		.4byte	.LASF101
 1871 07ad 06       		.byte	0x6
 1872 07ae 8502     		.2byte	0x285
 1873 07b0 D7010000 		.4byte	0x1d7
 1874 07b4 02       		.byte	0x2
 1875 07b5 23       		.byte	0x23
 1876 07b6 24       		.uleb128 0x24
 1877 07b7 1A       		.uleb128 0x1a
 1878 07b8 A7010000 		.4byte	.LASF102
 1879 07bc 06       		.byte	0x6
 1880 07bd 8602     		.2byte	0x286
 1881 07bf 75000000 		.4byte	0x75
 1882 07c3 02       		.byte	0x2
 1883 07c4 23       		.byte	0x23
 1884 07c5 48       		.uleb128 0x48
 1885 07c6 1A       		.uleb128 0x1a
 1886 07c7 72040000 		.4byte	.LASF103
 1887 07cb 06       		.byte	0x6
 1888 07cc 8702     		.2byte	0x287
 1889 07ce 55000000 		.4byte	0x55
 1890 07d2 02       		.byte	0x2
 1891 07d3 23       		.byte	0x23
 1892 07d4 50       		.uleb128 0x50
 1893 07d5 1A       		.uleb128 0x1a
 1894 07d6 0C060000 		.4byte	.LASF104
 1895 07da 06       		.byte	0x6
 1896 07db 8802     		.2byte	0x288
 1897 07dd 27070000 		.4byte	0x727
 1898 07e1 02       		.byte	0x2
 1899 07e2 23       		.byte	0x23
 1900 07e3 58       		.uleb128 0x58
 1901 07e4 1A       		.uleb128 0x1a
 1902 07e5 F7030000 		.4byte	.LASF105
 1903 07e9 06       		.byte	0x6
 1904 07ea 8902     		.2byte	0x289
 1905 07ec 41010000 		.4byte	0x141
 1906 07f0 02       		.byte	0x2
 1907 07f1 23       		.byte	0x23
 1908 07f2 68       		.uleb128 0x68
ARM GAS  C:\Users\embedded\AppData\Local\Temp\ccOrxL0D.s 			page 39


 1909 07f3 1A       		.uleb128 0x1a
 1910 07f4 20060000 		.4byte	.LASF106
 1911 07f8 06       		.byte	0x6
 1912 07f9 8A02     		.2byte	0x28a
 1913 07fb 41010000 		.4byte	0x141
 1914 07ff 02       		.byte	0x2
 1915 0800 23       		.byte	0x23
 1916 0801 70       		.uleb128 0x70
 1917 0802 1A       		.uleb128 0x1a
 1918 0803 DA030000 		.4byte	.LASF107
 1919 0807 06       		.byte	0x6
 1920 0808 8B02     		.2byte	0x28b
 1921 080a 41010000 		.4byte	0x141
 1922 080e 02       		.byte	0x2
 1923 080f 23       		.byte	0x23
 1924 0810 78       		.uleb128 0x78
 1925 0811 1A       		.uleb128 0x1a
 1926 0812 C9050000 		.4byte	.LASF108
 1927 0816 06       		.byte	0x6
 1928 0817 8C02     		.2byte	0x28c
 1929 0819 B2080000 		.4byte	0x8b2
 1930 081d 03       		.byte	0x3
 1931 081e 23       		.byte	0x23
 1932 081f 8001     		.uleb128 0x80
 1933 0821 1A       		.uleb128 0x1a
 1934 0822 4E020000 		.4byte	.LASF109
 1935 0826 06       		.byte	0x6
 1936 0827 8D02     		.2byte	0x28d
 1937 0829 C2080000 		.4byte	0x8c2
 1938 082d 03       		.byte	0x3
 1939 082e 23       		.byte	0x23
 1940 082f 8801     		.uleb128 0x88
 1941 0831 1A       		.uleb128 0x1a
 1942 0832 7E050000 		.4byte	.LASF110
 1943 0836 06       		.byte	0x6
 1944 0837 8E02     		.2byte	0x28e
 1945 0839 75000000 		.4byte	0x75
 1946 083d 03       		.byte	0x3
 1947 083e 23       		.byte	0x23
 1948 083f A001     		.uleb128 0xa0
 1949 0841 1A       		.uleb128 0x1a
 1950 0842 62010000 		.4byte	.LASF111
 1951 0846 06       		.byte	0x6
 1952 0847 8F02     		.2byte	0x28f
 1953 0849 41010000 		.4byte	0x141
 1954 084d 03       		.byte	0x3
 1955 084e 23       		.byte	0x23
 1956 084f A401     		.uleb128 0xa4
 1957 0851 1A       		.uleb128 0x1a
 1958 0852 8B000000 		.4byte	.LASF112
 1959 0856 06       		.byte	0x6
 1960 0857 9002     		.2byte	0x290
 1961 0859 41010000 		.4byte	0x141
 1962 085d 03       		.byte	0x3
 1963 085e 23       		.byte	0x23
 1964 085f AC01     		.uleb128 0xac
 1965 0861 1A       		.uleb128 0x1a
ARM GAS  C:\Users\embedded\AppData\Local\Temp\ccOrxL0D.s 			page 40


 1966 0862 42010000 		.4byte	.LASF113
 1967 0866 06       		.byte	0x6
 1968 0867 9102     		.2byte	0x291
 1969 0869 41010000 		.4byte	0x141
 1970 086d 03       		.byte	0x3
 1971 086e 23       		.byte	0x23
 1972 086f B401     		.uleb128 0xb4
 1973 0871 1A       		.uleb128 0x1a
 1974 0872 38000000 		.4byte	.LASF114
 1975 0876 06       		.byte	0x6
 1976 0877 9202     		.2byte	0x292
 1977 0879 41010000 		.4byte	0x141
 1978 087d 03       		.byte	0x3
 1979 087e 23       		.byte	0x23
 1980 087f BC01     		.uleb128 0xbc
 1981 0881 1A       		.uleb128 0x1a
 1982 0882 4F000000 		.4byte	.LASF115
 1983 0886 06       		.byte	0x6
 1984 0887 9302     		.2byte	0x293
 1985 0889 41010000 		.4byte	0x141
 1986 088d 03       		.byte	0x3
 1987 088e 23       		.byte	0x23
 1988 088f C401     		.uleb128 0xc4
 1989 0891 1A       		.uleb128 0x1a
 1990 0892 21040000 		.4byte	.LASF116
 1991 0896 06       		.byte	0x6
 1992 0897 9402     		.2byte	0x294
 1993 0899 75000000 		.4byte	0x75
 1994 089d 03       		.byte	0x3
 1995 089e 23       		.byte	0x23
 1996 089f CC01     		.uleb128 0xcc
 1997 08a1 00       		.byte	0
 1998 08a2 0F       		.uleb128 0xf
 1999 08a3 37060000 		.4byte	0x637
 2000 08a7 B2080000 		.4byte	0x8b2
 2001 08ab 10       		.uleb128 0x10
 2002 08ac 4E000000 		.4byte	0x4e
 2003 08b0 19       		.byte	0x19
 2004 08b1 00       		.byte	0
 2005 08b2 0F       		.uleb128 0xf
 2006 08b3 37060000 		.4byte	0x637
 2007 08b7 C2080000 		.4byte	0x8c2
 2008 08bb 10       		.uleb128 0x10
 2009 08bc 4E000000 		.4byte	0x4e
 2010 08c0 07       		.byte	0x7
 2011 08c1 00       		.byte	0
 2012 08c2 0F       		.uleb128 0xf
 2013 08c3 37060000 		.4byte	0x637
 2014 08c7 D2080000 		.4byte	0x8d2
 2015 08cb 10       		.uleb128 0x10
 2016 08cc 4E000000 		.4byte	0x4e
 2017 08d0 17       		.byte	0x17
 2018 08d1 00       		.byte	0
 2019 08d2 1C       		.uleb128 0x1c
 2020 08d3 F0       		.byte	0xf0
 2021 08d4 06       		.byte	0x6
 2022 08d5 9902     		.2byte	0x299
ARM GAS  C:\Users\embedded\AppData\Local\Temp\ccOrxL0D.s 			page 41


 2023 08d7 FA080000 		.4byte	0x8fa
 2024 08db 1A       		.uleb128 0x1a
 2025 08dc DE020000 		.4byte	.LASF117
 2026 08e0 06       		.byte	0x6
 2027 08e1 9C02     		.2byte	0x29c
 2028 08e3 FA080000 		.4byte	0x8fa
 2029 08e7 02       		.byte	0x2
 2030 08e8 23       		.byte	0x23
 2031 08e9 00       		.uleb128 0
 2032 08ea 1A       		.uleb128 0x1a
 2033 08eb C0050000 		.4byte	.LASF118
 2034 08ef 06       		.byte	0x6
 2035 08f0 9D02     		.2byte	0x29d
 2036 08f2 0A090000 		.4byte	0x90a
 2037 08f6 02       		.byte	0x2
 2038 08f7 23       		.byte	0x23
 2039 08f8 78       		.uleb128 0x78
 2040 08f9 00       		.byte	0
 2041 08fa 0F       		.uleb128 0xf
 2042 08fb 49030000 		.4byte	0x349
 2043 08ff 0A090000 		.4byte	0x90a
 2044 0903 10       		.uleb128 0x10
 2045 0904 4E000000 		.4byte	0x4e
 2046 0908 1D       		.byte	0x1d
 2047 0909 00       		.byte	0
 2048 090a 0F       		.uleb128 0xf
 2049 090b 4E000000 		.4byte	0x4e
 2050 090f 1A090000 		.4byte	0x91a
 2051 0913 10       		.uleb128 0x10
 2052 0914 4E000000 		.4byte	0x4e
 2053 0918 1D       		.byte	0x1d
 2054 0919 00       		.byte	0
 2055 091a 1D       		.uleb128 0x1d
 2056 091b F0       		.byte	0xf0
 2057 091c 06       		.byte	0x6
 2058 091d 7E02     		.2byte	0x27e
 2059 091f 3C090000 		.4byte	0x93c
 2060 0923 1E       		.uleb128 0x1e
 2061 0924 BD040000 		.4byte	.LASF67
 2062 0928 06       		.byte	0x6
 2063 0929 9502     		.2byte	0x295
 2064 092b 72070000 		.4byte	0x772
 2065 092f 1E       		.uleb128 0x1e
 2066 0930 E3050000 		.4byte	.LASF119
 2067 0934 06       		.byte	0x6
 2068 0935 9E02     		.2byte	0x29e
 2069 0937 D2080000 		.4byte	0x8d2
 2070 093b 00       		.byte	0
 2071 093c 0F       		.uleb128 0xf
 2072 093d 37060000 		.4byte	0x637
 2073 0941 4C090000 		.4byte	0x94c
 2074 0945 10       		.uleb128 0x10
 2075 0946 4E000000 		.4byte	0x4e
 2076 094a 18       		.byte	0x18
 2077 094b 00       		.byte	0
 2078 094c 0B       		.uleb128 0xb
 2079 094d 80000000 		.4byte	.LASF121
ARM GAS  C:\Users\embedded\AppData\Local\Temp\ccOrxL0D.s 			page 42


 2080 0951 01       		.byte	0x1
 2081 0952 0A       		.uleb128 0xa
 2082 0953 04       		.byte	0x4
 2083 0954 4C090000 		.4byte	0x94c
 2084 0958 1F       		.uleb128 0x1f
 2085 0959 01       		.byte	0x1
 2086 095a 64090000 		.4byte	0x964
 2087 095e 18       		.uleb128 0x18
 2088 095f C8040000 		.4byte	0x4c8
 2089 0963 00       		.byte	0
 2090 0964 0A       		.uleb128 0xa
 2091 0965 04       		.byte	0x4
 2092 0966 58090000 		.4byte	0x958
 2093 096a 0A       		.uleb128 0xa
 2094 096b 04       		.byte	0x4
 2095 096c C1010000 		.4byte	0x1c1
 2096 0970 1F       		.uleb128 0x1f
 2097 0971 01       		.byte	0x1
 2098 0972 7C090000 		.4byte	0x97c
 2099 0976 18       		.uleb128 0x18
 2100 0977 75000000 		.4byte	0x75
 2101 097b 00       		.byte	0
 2102 097c 0A       		.uleb128 0xa
 2103 097d 04       		.byte	0x4
 2104 097e 82090000 		.4byte	0x982
 2105 0982 0A       		.uleb128 0xa
 2106 0983 04       		.byte	0x4
 2107 0984 70090000 		.4byte	0x970
 2108 0988 0F       		.uleb128 0xf
 2109 0989 D4060000 		.4byte	0x6d4
 2110 098d 98090000 		.4byte	0x998
 2111 0991 10       		.uleb128 0x10
 2112 0992 4E000000 		.4byte	0x4e
 2113 0996 02       		.byte	0x2
 2114 0997 00       		.byte	0
 2115 0998 20       		.uleb128 0x20
 2116 0999 06050000 		.4byte	.LASF122
 2117 099d 06       		.byte	0x6
 2118 099e 2E03     		.2byte	0x32e
 2119 09a0 C8040000 		.4byte	0x4c8
 2120 09a4 01       		.byte	0x1
 2121 09a5 01       		.byte	0x1
 2122 09a6 20       		.uleb128 0x20
 2123 09a7 8B050000 		.4byte	.LASF123
 2124 09ab 06       		.byte	0x6
 2125 09ac 2F03     		.2byte	0x32f
 2126 09ae CE040000 		.4byte	0x4ce
 2127 09b2 01       		.byte	0x1
 2128 09b3 01       		.byte	0x1
 2129 09b4 0F       		.uleb128 0xf
 2130 09b5 30000000 		.4byte	0x30
 2131 09b9 BF090000 		.4byte	0x9bf
 2132 09bd 21       		.uleb128 0x21
 2133 09be 00       		.byte	0
 2134 09bf 03       		.uleb128 0x3
 2135 09c0 B4090000 		.4byte	0x9b4
 2136 09c4 22       		.uleb128 0x22
ARM GAS  C:\Users\embedded\AppData\Local\Temp\ccOrxL0D.s 			page 43


 2137 09c5 BF020000 		.4byte	.LASF124
 2138 09c9 07       		.byte	0x7
 2139 09ca 06       		.byte	0x6
 2140 09cb BF090000 		.4byte	0x9bf
 2141 09cf 01       		.byte	0x1
 2142 09d0 05       		.byte	0x5
 2143 09d1 03       		.byte	0x3
 2144 09d2 00000000 		.4byte	samples
 2145 09d6 23       		.uleb128 0x23
 2146 09d7 01       		.byte	0x1
 2147 09d8 33000000 		.4byte	.LASF125
 2148 09dc 01       		.byte	0x1
 2149 09dd BD       		.byte	0xbd
 2150 09de 01       		.byte	0x1
 2151 09df 25000000 		.4byte	0x25
 2152 09e3 94040000 		.4byte	.LFB4
 2153 09e7 18050000 		.4byte	.LFE4
 2154 09eb 00000000 		.4byte	.LLST1
 2155 09ef 01       		.byte	0x1
 2156 09f0 120A0000 		.4byte	0xa12
 2157 09f4 24       		.uleb128 0x24
 2158 09f5 1A010000 		.4byte	.LASF127
 2159 09f9 01       		.byte	0x1
 2160 09fa BF       		.byte	0xbf
 2161 09fb 25000000 		.4byte	0x25
 2162 09ff 02       		.byte	0x2
 2163 0a00 91       		.byte	0x91
 2164 0a01 77       		.sleb128 -9
 2165 0a02 25       		.uleb128 0x25
 2166 0a03 01       		.byte	0x1
 2167 0a04 65050000 		.4byte	.LASF149
 2168 0a08 01       		.byte	0x1
 2169 0a09 C0       		.byte	0xc0
 2170 0a0a 75000000 		.4byte	0x75
 2171 0a0e 01       		.byte	0x1
 2172 0a0f 26       		.uleb128 0x26
 2173 0a10 00       		.byte	0
 2174 0a11 00       		.byte	0
 2175 0a12 23       		.uleb128 0x23
 2176 0a13 01       		.byte	0x1
 2177 0a14 41060000 		.4byte	.LASF126
 2178 0a18 01       		.byte	0x1
 2179 0a19 1C       		.byte	0x1c
 2180 0a1a 01       		.byte	0x1
 2181 0a1b 75000000 		.4byte	0x75
 2182 0a1f 00000000 		.4byte	.LFB3
 2183 0a23 94040000 		.4byte	.LFE3
 2184 0a27 38000000 		.4byte	.LLST0
 2185 0a2b 01       		.byte	0x1
 2186 0a2c 910B0000 		.4byte	0xb91
 2187 0a30 24       		.uleb128 0x24
 2188 0a31 1A010000 		.4byte	.LASF127
 2189 0a35 01       		.byte	0x1
 2190 0a36 1E       		.byte	0x1e
 2191 0a37 25000000 		.4byte	0x25
 2192 0a3b 02       		.byte	0x2
 2193 0a3c 91       		.byte	0x91
ARM GAS  C:\Users\embedded\AppData\Local\Temp\ccOrxL0D.s 			page 44


 2194 0a3d 6A       		.sleb128 -22
 2195 0a3e 24       		.uleb128 0x24
 2196 0a3f EE010000 		.4byte	.LASF128
 2197 0a43 01       		.byte	0x1
 2198 0a44 21       		.byte	0x21
 2199 0a45 25000000 		.4byte	0x25
 2200 0a49 02       		.byte	0x2
 2201 0a4a 91       		.byte	0x91
 2202 0a4b 69       		.sleb128 -23
 2203 0a4c 24       		.uleb128 0x24
 2204 0a4d 11060000 		.4byte	.LASF129
 2205 0a51 01       		.byte	0x1
 2206 0a52 27       		.byte	0x27
 2207 0a53 25000000 		.4byte	0x25
 2208 0a57 02       		.byte	0x2
 2209 0a58 91       		.byte	0x91
 2210 0a59 6F       		.sleb128 -17
 2211 0a5a 24       		.uleb128 0x24
 2212 0a5b 67020000 		.4byte	.LASF130
 2213 0a5f 01       		.byte	0x1
 2214 0a60 28       		.byte	0x28
 2215 0a61 25000000 		.4byte	0x25
 2216 0a65 02       		.byte	0x2
 2217 0a66 91       		.byte	0x91
 2218 0a67 6E       		.sleb128 -18
 2219 0a68 24       		.uleb128 0x24
 2220 0a69 E8030000 		.4byte	.LASF131
 2221 0a6d 01       		.byte	0x1
 2222 0a6e 29       		.byte	0x29
 2223 0a6f 910B0000 		.4byte	0xb91
 2224 0a73 02       		.byte	0x2
 2225 0a74 91       		.byte	0x91
 2226 0a75 58       		.sleb128 -40
 2227 0a76 24       		.uleb128 0x24
 2228 0a77 2F050000 		.4byte	.LASF132
 2229 0a7b 01       		.byte	0x1
 2230 0a7c 2A       		.byte	0x2a
 2231 0a7d A10B0000 		.4byte	0xba1
 2232 0a81 02       		.byte	0x2
 2233 0a82 91       		.byte	0x91
 2234 0a83 54       		.sleb128 -44
 2235 0a84 24       		.uleb128 0x24
 2236 0a85 A5020000 		.4byte	.LASF133
 2237 0a89 01       		.byte	0x1
 2238 0a8a 2D       		.byte	0x2d
 2239 0a8b 25000000 		.4byte	0x25
 2240 0a8f 02       		.byte	0x2
 2241 0a90 91       		.byte	0x91
 2242 0a91 6D       		.sleb128 -19
 2243 0a92 24       		.uleb128 0x24
 2244 0a93 0A020000 		.4byte	.LASF134
 2245 0a97 01       		.byte	0x1
 2246 0a98 2E       		.byte	0x2e
 2247 0a99 25000000 		.4byte	0x25
 2248 0a9d 02       		.byte	0x2
 2249 0a9e 91       		.byte	0x91
 2250 0a9f 6C       		.sleb128 -20
ARM GAS  C:\Users\embedded\AppData\Local\Temp\ccOrxL0D.s 			page 45


 2251 0aa0 24       		.uleb128 0x24
 2252 0aa1 3B030000 		.4byte	.LASF135
 2253 0aa5 01       		.byte	0x1
 2254 0aa6 2F       		.byte	0x2f
 2255 0aa7 25000000 		.4byte	0x25
 2256 0aab 02       		.byte	0x2
 2257 0aac 91       		.byte	0x91
 2258 0aad 6B       		.sleb128 -21
 2259 0aae 24       		.uleb128 0x24
 2260 0aaf 78010000 		.4byte	.LASF136
 2261 0ab3 01       		.byte	0x1
 2262 0ab4 31       		.byte	0x31
 2263 0ab5 C10B0000 		.4byte	0xbc1
 2264 0ab9 02       		.byte	0x2
 2265 0aba 91       		.byte	0x91
 2266 0abb 44       		.sleb128 -60
 2267 0abc 24       		.uleb128 0x24
 2268 0abd 53010000 		.4byte	.LASF137
 2269 0ac1 01       		.byte	0x1
 2270 0ac2 32       		.byte	0x32
 2271 0ac3 D60B0000 		.4byte	0xbd6
 2272 0ac7 03       		.byte	0x3
 2273 0ac8 91       		.byte	0x91
 2274 0ac9 BC7F     		.sleb128 -68
 2275 0acb 24       		.uleb128 0x24
 2276 0acc C6010000 		.4byte	.LASF138
 2277 0ad0 01       		.byte	0x1
 2278 0ad1 33       		.byte	0x33
 2279 0ad2 EB0B0000 		.4byte	0xbeb
 2280 0ad6 03       		.byte	0x3
 2281 0ad7 91       		.byte	0x91
 2282 0ad8 AC7F     		.sleb128 -84
 2283 0ada 24       		.uleb128 0x24
 2284 0adb D3040000 		.4byte	.LASF139
 2285 0adf 01       		.byte	0x1
 2286 0ae0 34       		.byte	0x34
 2287 0ae1 000C0000 		.4byte	0xc00
 2288 0ae5 03       		.byte	0x3
 2289 0ae6 91       		.byte	0x91
 2290 0ae7 A87F     		.sleb128 -88
 2291 0ae9 24       		.uleb128 0x24
 2292 0aea 45030000 		.4byte	.LASF140
 2293 0aee 01       		.byte	0x1
 2294 0aef 35       		.byte	0x35
 2295 0af0 150C0000 		.4byte	0xc15
 2296 0af4 03       		.byte	0x3
 2297 0af5 91       		.byte	0x91
 2298 0af6 947F     		.sleb128 -108
 2299 0af8 24       		.uleb128 0x24
 2300 0af9 ED020000 		.4byte	.LASF141
 2301 0afd 01       		.byte	0x1
 2302 0afe 36       		.byte	0x36
 2303 0aff 2A0C0000 		.4byte	0xc2a
 2304 0b03 03       		.byte	0x3
 2305 0b04 91       		.byte	0x91
 2306 0b05 887F     		.sleb128 -120
 2307 0b07 24       		.uleb128 0x24
ARM GAS  C:\Users\embedded\AppData\Local\Temp\ccOrxL0D.s 			page 46


 2308 0b08 47000000 		.4byte	.LASF142
 2309 0b0c 01       		.byte	0x1
 2310 0b0d 37       		.byte	0x37
 2311 0b0e EB0B0000 		.4byte	0xbeb
 2312 0b12 03       		.byte	0x3
 2313 0b13 91       		.byte	0x91
 2314 0b14 F87E     		.sleb128 -136
 2315 0b16 24       		.uleb128 0x24
 2316 0b17 12000000 		.4byte	.LASF143
 2317 0b1b 01       		.byte	0x1
 2318 0b1c 38       		.byte	0x38
 2319 0b1d 3F0C0000 		.4byte	0xc3f
 2320 0b21 03       		.byte	0x3
 2321 0b22 91       		.byte	0x91
 2322 0b23 E87E     		.sleb128 -152
 2323 0b25 24       		.uleb128 0x24
 2324 0b26 E5020000 		.4byte	.LASF144
 2325 0b2a 01       		.byte	0x1
 2326 0b2b 39       		.byte	0x39
 2327 0b2c C10B0000 		.4byte	0xbc1
 2328 0b30 03       		.byte	0x3
 2329 0b31 91       		.byte	0x91
 2330 0b32 D87E     		.sleb128 -168
 2331 0b34 27       		.uleb128 0x27
 2332 0b35 EA000000 		.4byte	.LBB2
 2333 0b39 7A040000 		.4byte	.LBE2
 2334 0b3d 24       		.uleb128 0x24
 2335 0b3e FE040000 		.4byte	.LASF145
 2336 0b42 01       		.byte	0x1
 2337 0b43 A5       		.byte	0xa5
 2338 0b44 5C000000 		.4byte	0x5c
 2339 0b48 02       		.byte	0x2
 2340 0b49 91       		.byte	0x91
 2341 0b4a 68       		.sleb128 -24
 2342 0b4b 24       		.uleb128 0x24
 2343 0b4c D3020000 		.4byte	.LASF146
 2344 0b50 01       		.byte	0x1
 2345 0b51 AE       		.byte	0xae
 2346 0b52 910B0000 		.4byte	0xb91
 2347 0b56 03       		.byte	0x3
 2348 0b57 91       		.byte	0x91
 2349 0b58 CC7E     		.sleb128 -180
 2350 0b5a 24       		.uleb128 0x24
 2351 0b5b 45020000 		.4byte	.LASF147
 2352 0b5f 01       		.byte	0x1
 2353 0b60 AF       		.byte	0xaf
 2354 0b61 3C000000 		.4byte	0x3c
 2355 0b65 02       		.byte	0x2
 2356 0b66 91       		.byte	0x91
 2357 0b67 66       		.sleb128 -26
 2358 0b68 24       		.uleb128 0x24
 2359 0b69 33060000 		.4byte	.LASF148
 2360 0b6d 01       		.byte	0x1
 2361 0b6e B0       		.byte	0xb0
 2362 0b6f 25000000 		.4byte	0x25
 2363 0b73 02       		.byte	0x2
 2364 0b74 91       		.byte	0x91
ARM GAS  C:\Users\embedded\AppData\Local\Temp\ccOrxL0D.s 			page 47


 2365 0b75 65       		.sleb128 -27
 2366 0b76 27       		.uleb128 0x27
 2367 0b77 44030000 		.4byte	.LBB3
 2368 0b7b AA030000 		.4byte	.LBE3
 2369 0b7f 25       		.uleb128 0x25
 2370 0b80 01       		.byte	0x1
 2371 0b81 04040000 		.4byte	.LASF150
 2372 0b85 01       		.byte	0x1
 2373 0b86 9C       		.byte	0x9c
 2374 0b87 75000000 		.4byte	0x75
 2375 0b8b 01       		.byte	0x1
 2376 0b8c 26       		.uleb128 0x26
 2377 0b8d 00       		.byte	0
 2378 0b8e 00       		.byte	0
 2379 0b8f 00       		.byte	0
 2380 0b90 00       		.byte	0
 2381 0b91 0F       		.uleb128 0xf
 2382 0b92 25000000 		.4byte	0x25
 2383 0b96 A10B0000 		.4byte	0xba1
 2384 0b9a 10       		.uleb128 0x10
 2385 0b9b 4E000000 		.4byte	0x4e
 2386 0b9f 09       		.byte	0x9
 2387 0ba0 00       		.byte	0
 2388 0ba1 0F       		.uleb128 0xf
 2389 0ba2 25000000 		.4byte	0x25
 2390 0ba6 B10B0000 		.4byte	0xbb1
 2391 0baa 10       		.uleb128 0x10
 2392 0bab 4E000000 		.4byte	0x4e
 2393 0baf 01       		.byte	0x1
 2394 0bb0 00       		.byte	0
 2395 0bb1 0F       		.uleb128 0xf
 2396 0bb2 30000000 		.4byte	0x30
 2397 0bb6 C10B0000 		.4byte	0xbc1
 2398 0bba 10       		.uleb128 0x10
 2399 0bbb 4E000000 		.4byte	0x4e
 2400 0bbf 0E       		.byte	0xe
 2401 0bc0 00       		.byte	0
 2402 0bc1 03       		.uleb128 0x3
 2403 0bc2 B10B0000 		.4byte	0xbb1
 2404 0bc6 0F       		.uleb128 0xf
 2405 0bc7 30000000 		.4byte	0x30
 2406 0bcb D60B0000 		.4byte	0xbd6
 2407 0bcf 10       		.uleb128 0x10
 2408 0bd0 4E000000 		.4byte	0x4e
 2409 0bd4 07       		.byte	0x7
 2410 0bd5 00       		.byte	0
 2411 0bd6 03       		.uleb128 0x3
 2412 0bd7 C60B0000 		.4byte	0xbc6
 2413 0bdb 0F       		.uleb128 0xf
 2414 0bdc 30000000 		.4byte	0x30
 2415 0be0 EB0B0000 		.4byte	0xbeb
 2416 0be4 10       		.uleb128 0x10
 2417 0be5 4E000000 		.4byte	0x4e
 2418 0be9 0C       		.byte	0xc
 2419 0bea 00       		.byte	0
 2420 0beb 03       		.uleb128 0x3
 2421 0bec DB0B0000 		.4byte	0xbdb
ARM GAS  C:\Users\embedded\AppData\Local\Temp\ccOrxL0D.s 			page 48


 2422 0bf0 0F       		.uleb128 0xf
 2423 0bf1 30000000 		.4byte	0x30
 2424 0bf5 000C0000 		.4byte	0xc00
 2425 0bf9 10       		.uleb128 0x10
 2426 0bfa 4E000000 		.4byte	0x4e
 2427 0bfe 02       		.byte	0x2
 2428 0bff 00       		.byte	0
 2429 0c00 03       		.uleb128 0x3
 2430 0c01 F00B0000 		.4byte	0xbf0
 2431 0c05 0F       		.uleb128 0xf
 2432 0c06 30000000 		.4byte	0x30
 2433 0c0a 150C0000 		.4byte	0xc15
 2434 0c0e 10       		.uleb128 0x10
 2435 0c0f 4E000000 		.4byte	0x4e
 2436 0c13 12       		.byte	0x12
 2437 0c14 00       		.byte	0
 2438 0c15 03       		.uleb128 0x3
 2439 0c16 050C0000 		.4byte	0xc05
 2440 0c1a 0F       		.uleb128 0xf
 2441 0c1b 30000000 		.4byte	0x30
 2442 0c1f 2A0C0000 		.4byte	0xc2a
 2443 0c23 10       		.uleb128 0x10
 2444 0c24 4E000000 		.4byte	0x4e
 2445 0c28 09       		.byte	0x9
 2446 0c29 00       		.byte	0
 2447 0c2a 03       		.uleb128 0x3
 2448 0c2b 1A0C0000 		.4byte	0xc1a
 2449 0c2f 0F       		.uleb128 0xf
 2450 0c30 30000000 		.4byte	0x30
 2451 0c34 3F0C0000 		.4byte	0xc3f
 2452 0c38 10       		.uleb128 0x10
 2453 0c39 4E000000 		.4byte	0x4e
 2454 0c3d 0D       		.byte	0xd
 2455 0c3e 00       		.byte	0
 2456 0c3f 03       		.uleb128 0x3
 2457 0c40 2F0C0000 		.4byte	0xc2f
 2458 0c44 00       		.byte	0
 2459              		.section	.debug_abbrev,"",%progbits
 2460              	.Ldebug_abbrev0:
 2461 0000 01       		.uleb128 0x1
 2462 0001 11       		.uleb128 0x11
 2463 0002 01       		.byte	0x1
 2464 0003 25       		.uleb128 0x25
 2465 0004 0E       		.uleb128 0xe
 2466 0005 13       		.uleb128 0x13
 2467 0006 0B       		.uleb128 0xb
 2468 0007 03       		.uleb128 0x3
 2469 0008 0E       		.uleb128 0xe
 2470 0009 1B       		.uleb128 0x1b
 2471 000a 0E       		.uleb128 0xe
 2472 000b 11       		.uleb128 0x11
 2473 000c 01       		.uleb128 0x1
 2474 000d 12       		.uleb128 0x12
 2475 000e 01       		.uleb128 0x1
 2476 000f 10       		.uleb128 0x10
 2477 0010 06       		.uleb128 0x6
 2478 0011 00       		.byte	0
ARM GAS  C:\Users\embedded\AppData\Local\Temp\ccOrxL0D.s 			page 49


 2479 0012 00       		.byte	0
 2480 0013 02       		.uleb128 0x2
 2481 0014 16       		.uleb128 0x16
 2482 0015 00       		.byte	0
 2483 0016 03       		.uleb128 0x3
 2484 0017 08       		.uleb128 0x8
 2485 0018 3A       		.uleb128 0x3a
 2486 0019 0B       		.uleb128 0xb
 2487 001a 3B       		.uleb128 0x3b
 2488 001b 0B       		.uleb128 0xb
 2489 001c 49       		.uleb128 0x49
 2490 001d 13       		.uleb128 0x13
 2491 001e 00       		.byte	0
 2492 001f 00       		.byte	0
 2493 0020 03       		.uleb128 0x3
 2494 0021 26       		.uleb128 0x26
 2495 0022 00       		.byte	0
 2496 0023 49       		.uleb128 0x49
 2497 0024 13       		.uleb128 0x13
 2498 0025 00       		.byte	0
 2499 0026 00       		.byte	0
 2500 0027 04       		.uleb128 0x4
 2501 0028 24       		.uleb128 0x24
 2502 0029 00       		.byte	0
 2503 002a 0B       		.uleb128 0xb
 2504 002b 0B       		.uleb128 0xb
 2505 002c 3E       		.uleb128 0x3e
 2506 002d 0B       		.uleb128 0xb
 2507 002e 03       		.uleb128 0x3
 2508 002f 0E       		.uleb128 0xe
 2509 0030 00       		.byte	0
 2510 0031 00       		.byte	0
 2511 0032 05       		.uleb128 0x5
 2512 0033 16       		.uleb128 0x16
 2513 0034 00       		.byte	0
 2514 0035 03       		.uleb128 0x3
 2515 0036 0E       		.uleb128 0xe
 2516 0037 3A       		.uleb128 0x3a
 2517 0038 0B       		.uleb128 0xb
 2518 0039 3B       		.uleb128 0x3b
 2519 003a 0B       		.uleb128 0xb
 2520 003b 49       		.uleb128 0x49
 2521 003c 13       		.uleb128 0x13
 2522 003d 00       		.byte	0
 2523 003e 00       		.byte	0
 2524 003f 06       		.uleb128 0x6
 2525 0040 24       		.uleb128 0x24
 2526 0041 00       		.byte	0
 2527 0042 0B       		.uleb128 0xb
 2528 0043 0B       		.uleb128 0xb
 2529 0044 3E       		.uleb128 0x3e
 2530 0045 0B       		.uleb128 0xb
 2531 0046 03       		.uleb128 0x3
 2532 0047 08       		.uleb128 0x8
 2533 0048 00       		.byte	0
 2534 0049 00       		.byte	0
 2535 004a 07       		.uleb128 0x7
ARM GAS  C:\Users\embedded\AppData\Local\Temp\ccOrxL0D.s 			page 50


 2536 004b 04       		.uleb128 0x4
 2537 004c 01       		.byte	0x1
 2538 004d 3E       		.uleb128 0x3e
 2539 004e 0B       		.uleb128 0xb
 2540 004f 0B       		.uleb128 0xb
 2541 0050 0B       		.uleb128 0xb
 2542 0051 49       		.uleb128 0x49
 2543 0052 13       		.uleb128 0x13
 2544 0053 3A       		.uleb128 0x3a
 2545 0054 0B       		.uleb128 0xb
 2546 0055 3B       		.uleb128 0x3b
 2547 0056 0B       		.uleb128 0xb
 2548 0057 01       		.uleb128 0x1
 2549 0058 13       		.uleb128 0x13
 2550 0059 00       		.byte	0
 2551 005a 00       		.byte	0
 2552 005b 08       		.uleb128 0x8
 2553 005c 28       		.uleb128 0x28
 2554 005d 00       		.byte	0
 2555 005e 03       		.uleb128 0x3
 2556 005f 0E       		.uleb128 0xe
 2557 0060 1C       		.uleb128 0x1c
 2558 0061 0B       		.uleb128 0xb
 2559 0062 00       		.byte	0
 2560 0063 00       		.byte	0
 2561 0064 09       		.uleb128 0x9
 2562 0065 0F       		.uleb128 0xf
 2563 0066 00       		.byte	0
 2564 0067 0B       		.uleb128 0xb
 2565 0068 0B       		.uleb128 0xb
 2566 0069 00       		.byte	0
 2567 006a 00       		.byte	0
 2568 006b 0A       		.uleb128 0xa
 2569 006c 0F       		.uleb128 0xf
 2570 006d 00       		.byte	0
 2571 006e 0B       		.uleb128 0xb
 2572 006f 0B       		.uleb128 0xb
 2573 0070 49       		.uleb128 0x49
 2574 0071 13       		.uleb128 0x13
 2575 0072 00       		.byte	0
 2576 0073 00       		.byte	0
 2577 0074 0B       		.uleb128 0xb
 2578 0075 13       		.uleb128 0x13
 2579 0076 00       		.byte	0
 2580 0077 03       		.uleb128 0x3
 2581 0078 0E       		.uleb128 0xe
 2582 0079 3C       		.uleb128 0x3c
 2583 007a 0C       		.uleb128 0xc
 2584 007b 00       		.byte	0
 2585 007c 00       		.byte	0
 2586 007d 0C       		.uleb128 0xc
 2587 007e 16       		.uleb128 0x16
 2588 007f 00       		.byte	0
 2589 0080 03       		.uleb128 0x3
 2590 0081 0E       		.uleb128 0xe
 2591 0082 3A       		.uleb128 0x3a
 2592 0083 0B       		.uleb128 0xb
ARM GAS  C:\Users\embedded\AppData\Local\Temp\ccOrxL0D.s 			page 51


 2593 0084 3B       		.uleb128 0x3b
 2594 0085 05       		.uleb128 0x5
 2595 0086 49       		.uleb128 0x49
 2596 0087 13       		.uleb128 0x13
 2597 0088 00       		.byte	0
 2598 0089 00       		.byte	0
 2599 008a 0D       		.uleb128 0xd
 2600 008b 17       		.uleb128 0x17
 2601 008c 01       		.byte	0x1
 2602 008d 0B       		.uleb128 0xb
 2603 008e 0B       		.uleb128 0xb
 2604 008f 3A       		.uleb128 0x3a
 2605 0090 0B       		.uleb128 0xb
 2606 0091 3B       		.uleb128 0x3b
 2607 0092 0B       		.uleb128 0xb
 2608 0093 01       		.uleb128 0x1
 2609 0094 13       		.uleb128 0x13
 2610 0095 00       		.byte	0
 2611 0096 00       		.byte	0
 2612 0097 0E       		.uleb128 0xe
 2613 0098 0D       		.uleb128 0xd
 2614 0099 00       		.byte	0
 2615 009a 03       		.uleb128 0x3
 2616 009b 0E       		.uleb128 0xe
 2617 009c 3A       		.uleb128 0x3a
 2618 009d 0B       		.uleb128 0xb
 2619 009e 3B       		.uleb128 0x3b
 2620 009f 0B       		.uleb128 0xb
 2621 00a0 49       		.uleb128 0x49
 2622 00a1 13       		.uleb128 0x13
 2623 00a2 00       		.byte	0
 2624 00a3 00       		.byte	0
 2625 00a4 0F       		.uleb128 0xf
 2626 00a5 01       		.uleb128 0x1
 2627 00a6 01       		.byte	0x1
 2628 00a7 49       		.uleb128 0x49
 2629 00a8 13       		.uleb128 0x13
 2630 00a9 01       		.uleb128 0x1
 2631 00aa 13       		.uleb128 0x13
 2632 00ab 00       		.byte	0
 2633 00ac 00       		.byte	0
 2634 00ad 10       		.uleb128 0x10
 2635 00ae 21       		.uleb128 0x21
 2636 00af 00       		.byte	0
 2637 00b0 49       		.uleb128 0x49
 2638 00b1 13       		.uleb128 0x13
 2639 00b2 2F       		.uleb128 0x2f
 2640 00b3 0B       		.uleb128 0xb
 2641 00b4 00       		.byte	0
 2642 00b5 00       		.byte	0
 2643 00b6 11       		.uleb128 0x11
 2644 00b7 13       		.uleb128 0x13
 2645 00b8 01       		.byte	0x1
 2646 00b9 0B       		.uleb128 0xb
 2647 00ba 0B       		.uleb128 0xb
 2648 00bb 3A       		.uleb128 0x3a
 2649 00bc 0B       		.uleb128 0xb
ARM GAS  C:\Users\embedded\AppData\Local\Temp\ccOrxL0D.s 			page 52


 2650 00bd 3B       		.uleb128 0x3b
 2651 00be 0B       		.uleb128 0xb
 2652 00bf 01       		.uleb128 0x1
 2653 00c0 13       		.uleb128 0x13
 2654 00c1 00       		.byte	0
 2655 00c2 00       		.byte	0
 2656 00c3 12       		.uleb128 0x12
 2657 00c4 0D       		.uleb128 0xd
 2658 00c5 00       		.byte	0
 2659 00c6 03       		.uleb128 0x3
 2660 00c7 0E       		.uleb128 0xe
 2661 00c8 3A       		.uleb128 0x3a
 2662 00c9 0B       		.uleb128 0xb
 2663 00ca 3B       		.uleb128 0x3b
 2664 00cb 0B       		.uleb128 0xb
 2665 00cc 49       		.uleb128 0x49
 2666 00cd 13       		.uleb128 0x13
 2667 00ce 38       		.uleb128 0x38
 2668 00cf 0A       		.uleb128 0xa
 2669 00d0 00       		.byte	0
 2670 00d1 00       		.byte	0
 2671 00d2 13       		.uleb128 0x13
 2672 00d3 13       		.uleb128 0x13
 2673 00d4 01       		.byte	0x1
 2674 00d5 03       		.uleb128 0x3
 2675 00d6 0E       		.uleb128 0xe
 2676 00d7 0B       		.uleb128 0xb
 2677 00d8 0B       		.uleb128 0xb
 2678 00d9 3A       		.uleb128 0x3a
 2679 00da 0B       		.uleb128 0xb
 2680 00db 3B       		.uleb128 0x3b
 2681 00dc 0B       		.uleb128 0xb
 2682 00dd 01       		.uleb128 0x1
 2683 00de 13       		.uleb128 0x13
 2684 00df 00       		.byte	0
 2685 00e0 00       		.byte	0
 2686 00e1 14       		.uleb128 0x14
 2687 00e2 0D       		.uleb128 0xd
 2688 00e3 00       		.byte	0
 2689 00e4 03       		.uleb128 0x3
 2690 00e5 08       		.uleb128 0x8
 2691 00e6 3A       		.uleb128 0x3a
 2692 00e7 0B       		.uleb128 0xb
 2693 00e8 3B       		.uleb128 0x3b
 2694 00e9 0B       		.uleb128 0xb
 2695 00ea 49       		.uleb128 0x49
 2696 00eb 13       		.uleb128 0x13
 2697 00ec 38       		.uleb128 0x38
 2698 00ed 0A       		.uleb128 0xa
 2699 00ee 00       		.byte	0
 2700 00ef 00       		.byte	0
 2701 00f0 15       		.uleb128 0x15
 2702 00f1 13       		.uleb128 0x13
 2703 00f2 01       		.byte	0x1
 2704 00f3 03       		.uleb128 0x3
 2705 00f4 0E       		.uleb128 0xe
 2706 00f5 0B       		.uleb128 0xb
ARM GAS  C:\Users\embedded\AppData\Local\Temp\ccOrxL0D.s 			page 53


 2707 00f6 05       		.uleb128 0x5
 2708 00f7 3A       		.uleb128 0x3a
 2709 00f8 0B       		.uleb128 0xb
 2710 00f9 3B       		.uleb128 0x3b
 2711 00fa 0B       		.uleb128 0xb
 2712 00fb 01       		.uleb128 0x1
 2713 00fc 13       		.uleb128 0x13
 2714 00fd 00       		.byte	0
 2715 00fe 00       		.byte	0
 2716 00ff 16       		.uleb128 0x16
 2717 0100 15       		.uleb128 0x15
 2718 0101 00       		.byte	0
 2719 0102 27       		.uleb128 0x27
 2720 0103 0C       		.uleb128 0xc
 2721 0104 00       		.byte	0
 2722 0105 00       		.byte	0
 2723 0106 17       		.uleb128 0x17
 2724 0107 15       		.uleb128 0x15
 2725 0108 01       		.byte	0x1
 2726 0109 27       		.uleb128 0x27
 2727 010a 0C       		.uleb128 0xc
 2728 010b 49       		.uleb128 0x49
 2729 010c 13       		.uleb128 0x13
 2730 010d 01       		.uleb128 0x1
 2731 010e 13       		.uleb128 0x13
 2732 010f 00       		.byte	0
 2733 0110 00       		.byte	0
 2734 0111 18       		.uleb128 0x18
 2735 0112 05       		.uleb128 0x5
 2736 0113 00       		.byte	0
 2737 0114 49       		.uleb128 0x49
 2738 0115 13       		.uleb128 0x13
 2739 0116 00       		.byte	0
 2740 0117 00       		.byte	0
 2741 0118 19       		.uleb128 0x19
 2742 0119 13       		.uleb128 0x13
 2743 011a 01       		.byte	0x1
 2744 011b 03       		.uleb128 0x3
 2745 011c 0E       		.uleb128 0xe
 2746 011d 0B       		.uleb128 0xb
 2747 011e 05       		.uleb128 0x5
 2748 011f 3A       		.uleb128 0x3a
 2749 0120 0B       		.uleb128 0xb
 2750 0121 3B       		.uleb128 0x3b
 2751 0122 05       		.uleb128 0x5
 2752 0123 01       		.uleb128 0x1
 2753 0124 13       		.uleb128 0x13
 2754 0125 00       		.byte	0
 2755 0126 00       		.byte	0
 2756 0127 1A       		.uleb128 0x1a
 2757 0128 0D       		.uleb128 0xd
 2758 0129 00       		.byte	0
 2759 012a 03       		.uleb128 0x3
 2760 012b 0E       		.uleb128 0xe
 2761 012c 3A       		.uleb128 0x3a
 2762 012d 0B       		.uleb128 0xb
 2763 012e 3B       		.uleb128 0x3b
ARM GAS  C:\Users\embedded\AppData\Local\Temp\ccOrxL0D.s 			page 54


 2764 012f 05       		.uleb128 0x5
 2765 0130 49       		.uleb128 0x49
 2766 0131 13       		.uleb128 0x13
 2767 0132 38       		.uleb128 0x38
 2768 0133 0A       		.uleb128 0xa
 2769 0134 00       		.byte	0
 2770 0135 00       		.byte	0
 2771 0136 1B       		.uleb128 0x1b
 2772 0137 13       		.uleb128 0x13
 2773 0138 01       		.byte	0x1
 2774 0139 03       		.uleb128 0x3
 2775 013a 0E       		.uleb128 0xe
 2776 013b 0B       		.uleb128 0xb
 2777 013c 0B       		.uleb128 0xb
 2778 013d 3A       		.uleb128 0x3a
 2779 013e 0B       		.uleb128 0xb
 2780 013f 3B       		.uleb128 0x3b
 2781 0140 05       		.uleb128 0x5
 2782 0141 01       		.uleb128 0x1
 2783 0142 13       		.uleb128 0x13
 2784 0143 00       		.byte	0
 2785 0144 00       		.byte	0
 2786 0145 1C       		.uleb128 0x1c
 2787 0146 13       		.uleb128 0x13
 2788 0147 01       		.byte	0x1
 2789 0148 0B       		.uleb128 0xb
 2790 0149 0B       		.uleb128 0xb
 2791 014a 3A       		.uleb128 0x3a
 2792 014b 0B       		.uleb128 0xb
 2793 014c 3B       		.uleb128 0x3b
 2794 014d 05       		.uleb128 0x5
 2795 014e 01       		.uleb128 0x1
 2796 014f 13       		.uleb128 0x13
 2797 0150 00       		.byte	0
 2798 0151 00       		.byte	0
 2799 0152 1D       		.uleb128 0x1d
 2800 0153 17       		.uleb128 0x17
 2801 0154 01       		.byte	0x1
 2802 0155 0B       		.uleb128 0xb
 2803 0156 0B       		.uleb128 0xb
 2804 0157 3A       		.uleb128 0x3a
 2805 0158 0B       		.uleb128 0xb
 2806 0159 3B       		.uleb128 0x3b
 2807 015a 05       		.uleb128 0x5
 2808 015b 01       		.uleb128 0x1
 2809 015c 13       		.uleb128 0x13
 2810 015d 00       		.byte	0
 2811 015e 00       		.byte	0
 2812 015f 1E       		.uleb128 0x1e
 2813 0160 0D       		.uleb128 0xd
 2814 0161 00       		.byte	0
 2815 0162 03       		.uleb128 0x3
 2816 0163 0E       		.uleb128 0xe
 2817 0164 3A       		.uleb128 0x3a
 2818 0165 0B       		.uleb128 0xb
 2819 0166 3B       		.uleb128 0x3b
 2820 0167 05       		.uleb128 0x5
ARM GAS  C:\Users\embedded\AppData\Local\Temp\ccOrxL0D.s 			page 55


 2821 0168 49       		.uleb128 0x49
 2822 0169 13       		.uleb128 0x13
 2823 016a 00       		.byte	0
 2824 016b 00       		.byte	0
 2825 016c 1F       		.uleb128 0x1f
 2826 016d 15       		.uleb128 0x15
 2827 016e 01       		.byte	0x1
 2828 016f 27       		.uleb128 0x27
 2829 0170 0C       		.uleb128 0xc
 2830 0171 01       		.uleb128 0x1
 2831 0172 13       		.uleb128 0x13
 2832 0173 00       		.byte	0
 2833 0174 00       		.byte	0
 2834 0175 20       		.uleb128 0x20
 2835 0176 34       		.uleb128 0x34
 2836 0177 00       		.byte	0
 2837 0178 03       		.uleb128 0x3
 2838 0179 0E       		.uleb128 0xe
 2839 017a 3A       		.uleb128 0x3a
 2840 017b 0B       		.uleb128 0xb
 2841 017c 3B       		.uleb128 0x3b
 2842 017d 05       		.uleb128 0x5
 2843 017e 49       		.uleb128 0x49
 2844 017f 13       		.uleb128 0x13
 2845 0180 3F       		.uleb128 0x3f
 2846 0181 0C       		.uleb128 0xc
 2847 0182 3C       		.uleb128 0x3c
 2848 0183 0C       		.uleb128 0xc
 2849 0184 00       		.byte	0
 2850 0185 00       		.byte	0
 2851 0186 21       		.uleb128 0x21
 2852 0187 21       		.uleb128 0x21
 2853 0188 00       		.byte	0
 2854 0189 00       		.byte	0
 2855 018a 00       		.byte	0
 2856 018b 22       		.uleb128 0x22
 2857 018c 34       		.uleb128 0x34
 2858 018d 00       		.byte	0
 2859 018e 03       		.uleb128 0x3
 2860 018f 0E       		.uleb128 0xe
 2861 0190 3A       		.uleb128 0x3a
 2862 0191 0B       		.uleb128 0xb
 2863 0192 3B       		.uleb128 0x3b
 2864 0193 0B       		.uleb128 0xb
 2865 0194 49       		.uleb128 0x49
 2866 0195 13       		.uleb128 0x13
 2867 0196 3F       		.uleb128 0x3f
 2868 0197 0C       		.uleb128 0xc
 2869 0198 02       		.uleb128 0x2
 2870 0199 0A       		.uleb128 0xa
 2871 019a 00       		.byte	0
 2872 019b 00       		.byte	0
 2873 019c 23       		.uleb128 0x23
 2874 019d 2E       		.uleb128 0x2e
 2875 019e 01       		.byte	0x1
 2876 019f 3F       		.uleb128 0x3f
 2877 01a0 0C       		.uleb128 0xc
ARM GAS  C:\Users\embedded\AppData\Local\Temp\ccOrxL0D.s 			page 56


 2878 01a1 03       		.uleb128 0x3
 2879 01a2 0E       		.uleb128 0xe
 2880 01a3 3A       		.uleb128 0x3a
 2881 01a4 0B       		.uleb128 0xb
 2882 01a5 3B       		.uleb128 0x3b
 2883 01a6 0B       		.uleb128 0xb
 2884 01a7 27       		.uleb128 0x27
 2885 01a8 0C       		.uleb128 0xc
 2886 01a9 49       		.uleb128 0x49
 2887 01aa 13       		.uleb128 0x13
 2888 01ab 11       		.uleb128 0x11
 2889 01ac 01       		.uleb128 0x1
 2890 01ad 12       		.uleb128 0x12
 2891 01ae 01       		.uleb128 0x1
 2892 01af 40       		.uleb128 0x40
 2893 01b0 06       		.uleb128 0x6
 2894 01b1 9642     		.uleb128 0x2116
 2895 01b3 0C       		.uleb128 0xc
 2896 01b4 01       		.uleb128 0x1
 2897 01b5 13       		.uleb128 0x13
 2898 01b6 00       		.byte	0
 2899 01b7 00       		.byte	0
 2900 01b8 24       		.uleb128 0x24
 2901 01b9 34       		.uleb128 0x34
 2902 01ba 00       		.byte	0
 2903 01bb 03       		.uleb128 0x3
 2904 01bc 0E       		.uleb128 0xe
 2905 01bd 3A       		.uleb128 0x3a
 2906 01be 0B       		.uleb128 0xb
 2907 01bf 3B       		.uleb128 0x3b
 2908 01c0 0B       		.uleb128 0xb
 2909 01c1 49       		.uleb128 0x49
 2910 01c2 13       		.uleb128 0x13
 2911 01c3 02       		.uleb128 0x2
 2912 01c4 0A       		.uleb128 0xa
 2913 01c5 00       		.byte	0
 2914 01c6 00       		.byte	0
 2915 01c7 25       		.uleb128 0x25
 2916 01c8 2E       		.uleb128 0x2e
 2917 01c9 01       		.byte	0x1
 2918 01ca 3F       		.uleb128 0x3f
 2919 01cb 0C       		.uleb128 0xc
 2920 01cc 03       		.uleb128 0x3
 2921 01cd 0E       		.uleb128 0xe
 2922 01ce 3A       		.uleb128 0x3a
 2923 01cf 0B       		.uleb128 0xb
 2924 01d0 3B       		.uleb128 0x3b
 2925 01d1 0B       		.uleb128 0xb
 2926 01d2 49       		.uleb128 0x49
 2927 01d3 13       		.uleb128 0x13
 2928 01d4 3C       		.uleb128 0x3c
 2929 01d5 0C       		.uleb128 0xc
 2930 01d6 00       		.byte	0
 2931 01d7 00       		.byte	0
 2932 01d8 26       		.uleb128 0x26
 2933 01d9 18       		.uleb128 0x18
 2934 01da 00       		.byte	0
ARM GAS  C:\Users\embedded\AppData\Local\Temp\ccOrxL0D.s 			page 57


 2935 01db 00       		.byte	0
 2936 01dc 00       		.byte	0
 2937 01dd 27       		.uleb128 0x27
 2938 01de 0B       		.uleb128 0xb
 2939 01df 01       		.byte	0x1
 2940 01e0 11       		.uleb128 0x11
 2941 01e1 01       		.uleb128 0x1
 2942 01e2 12       		.uleb128 0x12
 2943 01e3 01       		.uleb128 0x1
 2944 01e4 00       		.byte	0
 2945 01e5 00       		.byte	0
 2946 01e6 00       		.byte	0
 2947              		.section	.debug_loc,"",%progbits
 2948              	.Ldebug_loc0:
 2949              	.LLST1:
 2950 0000 94040000 		.4byte	.LFB4-.Ltext0
 2951 0004 96040000 		.4byte	.LCFI3-.Ltext0
 2952 0008 0200     		.2byte	0x2
 2953 000a 7D       		.byte	0x7d
 2954 000b 00       		.sleb128 0
 2955 000c 96040000 		.4byte	.LCFI3-.Ltext0
 2956 0010 98040000 		.4byte	.LCFI4-.Ltext0
 2957 0014 0200     		.2byte	0x2
 2958 0016 7D       		.byte	0x7d
 2959 0017 08       		.sleb128 8
 2960 0018 98040000 		.4byte	.LCFI4-.Ltext0
 2961 001c 9A040000 		.4byte	.LCFI5-.Ltext0
 2962 0020 0200     		.2byte	0x2
 2963 0022 7D       		.byte	0x7d
 2964 0023 10       		.sleb128 16
 2965 0024 9A040000 		.4byte	.LCFI5-.Ltext0
 2966 0028 18050000 		.4byte	.LFE4-.Ltext0
 2967 002c 0200     		.2byte	0x2
 2968 002e 77       		.byte	0x77
 2969 002f 10       		.sleb128 16
 2970 0030 00000000 		.4byte	0
 2971 0034 00000000 		.4byte	0
 2972              	.LLST0:
 2973 0038 00000000 		.4byte	.LFB3-.Ltext0
 2974 003c 02000000 		.4byte	.LCFI0-.Ltext0
 2975 0040 0200     		.2byte	0x2
 2976 0042 7D       		.byte	0x7d
 2977 0043 00       		.sleb128 0
 2978 0044 02000000 		.4byte	.LCFI0-.Ltext0
 2979 0048 04000000 		.4byte	.LCFI1-.Ltext0
 2980 004c 0200     		.2byte	0x2
 2981 004e 7D       		.byte	0x7d
 2982 004f 10       		.sleb128 16
 2983 0050 04000000 		.4byte	.LCFI1-.Ltext0
 2984 0054 06000000 		.4byte	.LCFI2-.Ltext0
 2985 0058 0300     		.2byte	0x3
 2986 005a 7D       		.byte	0x7d
 2987 005b B801     		.sleb128 184
 2988 005d 06000000 		.4byte	.LCFI2-.Ltext0
 2989 0061 94040000 		.4byte	.LFE3-.Ltext0
 2990 0065 0300     		.2byte	0x3
 2991 0067 77       		.byte	0x77
ARM GAS  C:\Users\embedded\AppData\Local\Temp\ccOrxL0D.s 			page 58


 2992 0068 B801     		.sleb128 184
 2993 006a 00000000 		.4byte	0
 2994 006e 00000000 		.4byte	0
 2995              		.section	.debug_aranges,"",%progbits
 2996 0000 1C000000 		.4byte	0x1c
 2997 0004 0200     		.2byte	0x2
 2998 0006 00000000 		.4byte	.Ldebug_info0
 2999 000a 04       		.byte	0x4
 3000 000b 00       		.byte	0
 3001 000c 0000     		.2byte	0
 3002 000e 0000     		.2byte	0
 3003 0010 00000000 		.4byte	.Ltext0
 3004 0014 18050000 		.4byte	.Letext0-.Ltext0
 3005 0018 00000000 		.4byte	0
 3006 001c 00000000 		.4byte	0
 3007              		.section	.debug_line,"",%progbits
 3008              	.Ldebug_line0:
 3009 0000 6C010000 		.section	.debug_str,"MS",%progbits,1
 3009      0200C400 
 3009      00000201 
 3009      FB0E0D00 
 3009      01010101 
 3010              	.LASF41:
 3011 0000 5F64736F 		.ascii	"_dso_handle\000"
 3011      5F68616E 
 3011      646C6500 
 3012              	.LASF49:
 3013 000c 5F73697A 		.ascii	"_size\000"
 3013      6500
 3014              	.LASF143:
 3015 0012 4450726F 		.ascii	"DPrompt\000"
 3015      6D707400 
 3016              	.LASF94:
 3017 001a 5F72616E 		.ascii	"_rand48\000"
 3017      64343800 
 3018              	.LASF73:
 3019 0022 5F656D65 		.ascii	"_emergency\000"
 3019      7267656E 
 3019      637900
 3020              	.LASF63:
 3021 002d 5F646174 		.ascii	"_data\000"
 3021      6100
 3022              	.LASF125:
 3023 0033 696E6974 		.ascii	"init\000"
 3023      00
 3024              	.LASF114:
 3025 0038 5F776372 		.ascii	"_wcrtomb_state\000"
 3025      746F6D62 
 3025      5F737461 
 3025      746500
 3026              	.LASF142:
 3027 0047 5550726F 		.ascii	"UPrompt\000"
 3027      6D707400 
 3028              	.LASF115:
 3029 004f 5F776373 		.ascii	"_wcsrtombs_state\000"
 3029      72746F6D 
 3029      62735F73 
ARM GAS  C:\Users\embedded\AppData\Local\Temp\ccOrxL0D.s 			page 59


 3029      74617465 
 3029      00
 3030              	.LASF4:
 3031 0060 6C6F6E67 		.ascii	"long long unsigned int\000"
 3031      206C6F6E 
 3031      6720756E 
 3031      7369676E 
 3031      65642069 
 3032              	.LASF53:
 3033 0077 5F6C6266 		.ascii	"_lbfsize\000"
 3033      73697A65 
 3033      00
 3034              	.LASF121:
 3035 0080 5F5F6C6F 		.ascii	"__locale_t\000"
 3035      63616C65 
 3035      5F7400
 3036              	.LASF112:
 3037 008b 5F6D6272 		.ascii	"_mbrtowc_state\000"
 3037      746F7763 
 3037      5F737461 
 3037      746500
 3038              	.LASF30:
 3039 009a 5F5F746D 		.ascii	"__tm_sec\000"
 3039      5F736563 
 3039      00
 3040              	.LASF7:
 3041 00a3 6C6F6E67 		.ascii	"long long int\000"
 3041      206C6F6E 
 3041      6720696E 
 3041      7400
 3042              	.LASF5:
 3043 00b1 7369676E 		.ascii	"signed char\000"
 3043      65642063 
 3043      68617200 
 3044              	.LASF59:
 3045 00bd 5F756275 		.ascii	"_ubuf\000"
 3045      6600
 3046              	.LASF48:
 3047 00c3 5F626173 		.ascii	"_base\000"
 3047      6500
 3048              	.LASF32:
 3049 00c9 5F5F746D 		.ascii	"__tm_hour\000"
 3049      5F686F75 
 3049      7200
 3050              	.LASF88:
 3051 00d3 5F5F7366 		.ascii	"__sf\000"
 3051      00
 3052              	.LASF39:
 3053 00d8 5F6F6E5F 		.ascii	"_on_exit_args\000"
 3053      65786974 
 3053      5F617267 
 3053      7300
 3054              	.LASF54:
 3055 00e6 5F636F6F 		.ascii	"_cookie\000"
 3055      6B696500 
 3056              	.LASF87:
 3057 00ee 5F5F7367 		.ascii	"__sglue\000"
ARM GAS  C:\Users\embedded\AppData\Local\Temp\ccOrxL0D.s 			page 60


 3057      6C756500 
 3058              	.LASF0:
 3059 00f6 74553136 		.ascii	"tU16\000"
 3059      00
 3060              	.LASF10:
 3061 00fb 6C6F6E67 		.ascii	"long int\000"
 3061      20696E74 
 3061      00
 3062              	.LASF51:
 3063 0104 5F666C61 		.ascii	"_flags\000"
 3063      677300
 3064              	.LASF43:
 3065 010b 5F69735F 		.ascii	"_is_cxa\000"
 3065      63786100 
 3066              	.LASF69:
 3067 0113 5F737464 		.ascii	"_stdin\000"
 3067      696E00
 3068              	.LASF127:
 3069 011a 70636139 		.ascii	"pca9532Present\000"
 3069      35333250 
 3069      72657365 
 3069      6E7400
 3070              	.LASF61:
 3071 0129 5F626C6B 		.ascii	"_blksize\000"
 3071      73697A65 
 3071      00
 3072              	.LASF83:
 3073 0132 5F637674 		.ascii	"_cvtbuf\000"
 3073      62756600 
 3074              	.LASF62:
 3075 013a 5F6F6666 		.ascii	"_offset\000"
 3075      73657400 
 3076              	.LASF113:
 3077 0142 5F6D6273 		.ascii	"_mbsrtowcs_state\000"
 3077      72746F77 
 3077      63735F73 
 3077      74617465 
 3077      00
 3078              	.LASF137:
 3079 0153 74656D70 		.ascii	"tempUnitPrompt\000"
 3079      556E6974 
 3079      50726F6D 
 3079      707400
 3080              	.LASF111:
 3081 0162 5F6D6272 		.ascii	"_mbrlen_state\000"
 3081      6C656E5F 
 3081      73746174 
 3081      6500
 3082              	.LASF40:
 3083 0170 5F666E61 		.ascii	"_fnargs\000"
 3083      72677300 
 3084              	.LASF136:
 3085 0178 74656D70 		.ascii	"tempPrompt\000"
 3085      50726F6D 
 3085      707400
 3086              	.LASF46:
 3087 0183 5F666E73 		.ascii	"_fns\000"
ARM GAS  C:\Users\embedded\AppData\Local\Temp\ccOrxL0D.s 			page 61


 3087      00
 3088              	.LASF26:
 3089 0188 5F736967 		.ascii	"_sign\000"
 3089      6E00
 3090              	.LASF22:
 3091 018e 5F666C6F 		.ascii	"_flock_t\000"
 3091      636B5F74 
 3091      00
 3092              	.LASF71:
 3093 0197 5F737464 		.ascii	"_stderr\000"
 3093      65727200 
 3094              	.LASF28:
 3095 019f 5F426967 		.ascii	"_Bigint\000"
 3095      696E7400 
 3096              	.LASF102:
 3097 01a7 5F67616D 		.ascii	"_gamma_signgam\000"
 3097      6D615F73 
 3097      69676E67 
 3097      616D00
 3098              	.LASF55:
 3099 01b6 5F726561 		.ascii	"_read\000"
 3099      6400
 3100              	.LASF79:
 3101 01bc 5F726573 		.ascii	"_result_k\000"
 3101      756C745F 
 3101      6B00
 3102              	.LASF138:
 3103 01c6 68756D69 		.ascii	"humidityPrompt\000"
 3103      64697479 
 3103      50726F6D 
 3103      707400
 3104              	.LASF29:
 3105 01d5 5F5F746D 		.ascii	"__tm\000"
 3105      00
 3106              	.LASF3:
 3107 01da 756E7369 		.ascii	"unsigned int\000"
 3107      676E6564 
 3107      20696E74 
 3107      00
 3108              	.LASF18:
 3109 01e7 5F5F7763 		.ascii	"__wchb\000"
 3109      686200
 3110              	.LASF128:
 3111 01ee 6C6D3735 		.ascii	"lm75address\000"
 3111      61646472 
 3111      65737300 
 3112              	.LASF70:
 3113 01fa 5F737464 		.ascii	"_stdout\000"
 3113      6F757400 
 3114              	.LASF82:
 3115 0202 5F637674 		.ascii	"_cvtlen\000"
 3115      6C656E00 
 3116              	.LASF134:
 3117 020a 74656D70 		.ascii	"temp_MIN\000"
 3117      5F4D494E 
 3117      00
 3118              	.LASF11:
ARM GAS  C:\Users\embedded\AppData\Local\Temp\ccOrxL0D.s 			page 62


 3119 0213 6C6F6E67 		.ascii	"long unsigned int\000"
 3119      20756E73 
 3119      69676E65 
 3119      6420696E 
 3119      7400
 3120              	.LASF52:
 3121 0225 5F66696C 		.ascii	"_file\000"
 3121      6500
 3122              	.LASF92:
 3123 022b 5F6E696F 		.ascii	"_niobs\000"
 3123      627300
 3124              	.LASF2:
 3125 0232 73686F72 		.ascii	"short unsigned int\000"
 3125      7420756E 
 3125      7369676E 
 3125      65642069 
 3125      6E7400
 3126              	.LASF147:
 3127 0245 68756D69 		.ascii	"humidity\000"
 3127      64697479 
 3127      00
 3128              	.LASF109:
 3129 024e 5F736967 		.ascii	"_signal_buf\000"
 3129      6E616C5F 
 3129      62756600 
 3130              	.LASF100:
 3131 025a 5F617363 		.ascii	"_asctime_buf\000"
 3131      74696D65 
 3131      5F627566 
 3131      00
 3132              	.LASF130:
 3133 0267 63757272 		.ascii	"currentType\000"
 3133      656E7454 
 3133      79706500 
 3134              	.LASF78:
 3135 0273 5F726573 		.ascii	"_result\000"
 3135      756C7400 
 3136              	.LASF17:
 3137 027b 5F5F7763 		.ascii	"__wch\000"
 3137      6800
 3138              	.LASF13:
 3139 0281 5F4C4F43 		.ascii	"_LOCK_T\000"
 3139      4B5F5400 
 3140              	.LASF152:
 3141 0289 6D61696E 		.ascii	"main.c\000"
 3141      2E6300
 3142              	.LASF16:
 3143 0290 77696E74 		.ascii	"wint_t\000"
 3143      5F7400
 3144              	.LASF64:
 3145 0297 5F6C6F63 		.ascii	"_lock\000"
 3145      6B00
 3146              	.LASF66:
 3147 029d 5F666C61 		.ascii	"_flags2\000"
 3147      67733200 
 3148              	.LASF133:
 3149 02a5 74656D70 		.ascii	"temp_SEC\000"
ARM GAS  C:\Users\embedded\AppData\Local\Temp\ccOrxL0D.s 			page 63


 3149      5F534543 
 3149      00
 3150              	.LASF56:
 3151 02ae 5F777269 		.ascii	"_write\000"
 3151      746500
 3152              	.LASF35:
 3153 02b5 5F5F746D 		.ascii	"__tm_year\000"
 3153      5F796561 
 3153      7200
 3154              	.LASF124:
 3155 02bf 73616D70 		.ascii	"samples\000"
 3155      6C657300 
 3156              	.LASF12:
 3157 02c7 6C6F6E67 		.ascii	"long double\000"
 3157      20646F75 
 3157      626C6500 
 3158              	.LASF146:
 3159 02d3 63686172 		.ascii	"charArrray\000"
 3159      41727272 
 3159      617900
 3160              	.LASF117:
 3161 02de 5F6E6578 		.ascii	"_nextf\000"
 3161      746600
 3162              	.LASF144:
 3163 02e5 5250726F 		.ascii	"RPrompt\000"
 3163      6D707400 
 3164              	.LASF141:
 3165 02ed 77616B65 		.ascii	"wakeUpPrompt\000"
 3165      55705072 
 3165      6F6D7074 
 3165      00
 3166              	.LASF34:
 3167 02fa 5F5F746D 		.ascii	"__tm_mon\000"
 3167      5F6D6F6E 
 3167      00
 3168              	.LASF44:
 3169 0303 5F617465 		.ascii	"_atexit\000"
 3169      78697400 
 3170              	.LASF76:
 3171 030b 5F5F7364 		.ascii	"__sdidinit\000"
 3171      6964696E 
 3171      697400
 3172              	.LASF14:
 3173 0316 5F6F6666 		.ascii	"_off_t\000"
 3173      5F7400
 3174              	.LASF153:
 3175 031d 433A5C45 		.ascii	"C:\\Embedded\\2138MiniDemo\\2138\000"
 3175      6D626564 
 3175      6465645C 
 3175      32313338 
 3175      4D696E69 
 3176              	.LASF135:
 3177 033b 74656D70 		.ascii	"temp_HOUR\000"
 3177      5F484F55 
 3177      5200
 3178              	.LASF140:
 3179 0345 73657441 		.ascii	"setAlarmPrompt\000"
ARM GAS  C:\Users\embedded\AppData\Local\Temp\ccOrxL0D.s 			page 64


 3179      6C61726D 
 3179      50726F6D 
 3179      707400
 3180              	.LASF8:
 3181 0354 46414C53 		.ascii	"FALSE\000"
 3181      4500
 3182              	.LASF151:
 3183 035a 474E5520 		.ascii	"GNU C11 7.3.1 20180622 (release) [ARM/embedded-7-br"
 3183      43313120 
 3183      372E332E 
 3183      31203230 
 3183      31383036 
 3184 038d 616E6368 		.ascii	"anch revision 261907] -mcpu=arm7tdmi -mthumb -mthum"
 3184      20726576 
 3184      6973696F 
 3184      6E203236 
 3184      31393037 
 3185 03c0 622D696E 		.ascii	"b-interwork -gdwarf-2 -O0\000"
 3185      74657277 
 3185      6F726B20 
 3185      2D676477 
 3185      6172662D 
 3186              	.LASF107:
 3187 03da 5F776374 		.ascii	"_wctomb_state\000"
 3187      6F6D625F 
 3187      73746174 
 3187      6500
 3188              	.LASF131:
 3189 03e8 68756D69 		.ascii	"humidityString\000"
 3189      64697479 
 3189      53747269 
 3189      6E6700
 3190              	.LASF105:
 3191 03f7 5F6D626C 		.ascii	"_mblen_state\000"
 3191      656E5F73 
 3191      74617465 
 3191      00
 3192              	.LASF150:
 3193 0404 626C696E 		.ascii	"blinkLeds\000"
 3193      6B4C6564 
 3193      7300
 3194              	.LASF1:
 3195 040e 756E7369 		.ascii	"unsigned char\000"
 3195      676E6564 
 3195      20636861 
 3195      7200
 3196              	.LASF84:
 3197 041c 5F6E6577 		.ascii	"_new\000"
 3197      00
 3198              	.LASF116:
 3199 0421 5F685F65 		.ascii	"_h_errno\000"
 3199      72726E6F 
 3199      00
 3200              	.LASF6:
 3201 042a 73686F72 		.ascii	"short int\000"
 3201      7420696E 
 3201      7400
ARM GAS  C:\Users\embedded\AppData\Local\Temp\ccOrxL0D.s 			page 65


 3202              	.LASF37:
 3203 0434 5F5F746D 		.ascii	"__tm_yday\000"
 3203      5F796461 
 3203      7900
 3204              	.LASF47:
 3205 043e 5F5F7362 		.ascii	"__sbuf\000"
 3205      756600
 3206              	.LASF81:
 3207 0445 5F667265 		.ascii	"_freelist\000"
 3207      656C6973 
 3207      7400
 3208              	.LASF90:
 3209 044f 5F5F4649 		.ascii	"__FILE\000"
 3209      4C4500
 3210              	.LASF21:
 3211 0456 5F6D6273 		.ascii	"_mbstate_t\000"
 3211      74617465 
 3211      5F7400
 3212              	.LASF50:
 3213 0461 5F5F7346 		.ascii	"__sFILE\000"
 3213      494C4500 
 3214              	.LASF65:
 3215 0469 5F6D6273 		.ascii	"_mbstate\000"
 3215      74617465 
 3215      00
 3216              	.LASF103:
 3217 0472 5F72616E 		.ascii	"_rand_next\000"
 3217      645F6E65 
 3217      787400
 3218              	.LASF93:
 3219 047d 5F696F62 		.ascii	"_iobs\000"
 3219      7300
 3220              	.LASF72:
 3221 0483 5F696E63 		.ascii	"_inc\000"
 3221      00
 3222              	.LASF45:
 3223 0488 5F696E64 		.ascii	"_ind\000"
 3223      00
 3224              	.LASF75:
 3225 048d 5F6C6F63 		.ascii	"_locale\000"
 3225      616C6500 
 3226              	.LASF77:
 3227 0495 5F5F636C 		.ascii	"__cleanup\000"
 3227      65616E75 
 3227      7000
 3228              	.LASF74:
 3229 049f 5F756E73 		.ascii	"_unspecified_locale_info\000"
 3229      70656369 
 3229      66696564 
 3229      5F6C6F63 
 3229      616C655F 
 3230              	.LASF9:
 3231 04b8 54525545 		.ascii	"TRUE\000"
 3231      00
 3232              	.LASF67:
 3233 04bd 5F726565 		.ascii	"_reent\000"
 3233      6E7400
ARM GAS  C:\Users\embedded\AppData\Local\Temp\ccOrxL0D.s 			page 66


 3234              	.LASF95:
 3235 04c4 5F736565 		.ascii	"_seed\000"
 3235      6400
 3236              	.LASF85:
 3237 04ca 5F617465 		.ascii	"_atexit0\000"
 3237      78697430 
 3237      00
 3238              	.LASF139:
 3239 04d3 70657263 		.ascii	"percentPrompt\000"
 3239      656E7450 
 3239      726F6D70 
 3239      7400
 3240              	.LASF19:
 3241 04e1 5F5F636F 		.ascii	"__count\000"
 3241      756E7400 
 3242              	.LASF120:
 3243 04e9 5F5F6C6F 		.ascii	"__lock\000"
 3243      636B00
 3244              	.LASF20:
 3245 04f0 5F5F7661 		.ascii	"__value\000"
 3245      6C756500 
 3246              	.LASF57:
 3247 04f8 5F736565 		.ascii	"_seek\000"
 3247      6B00
 3248              	.LASF145:
 3249 04fe 69326343 		.ascii	"i2cCode\000"
 3249      6F646500 
 3250              	.LASF122:
 3251 0506 5F696D70 		.ascii	"_impure_ptr\000"
 3251      7572655F 
 3251      70747200 
 3252              	.LASF15:
 3253 0512 5F66706F 		.ascii	"_fpos_t\000"
 3253      735F7400 
 3254              	.LASF68:
 3255 051a 5F657272 		.ascii	"_errno\000"
 3255      6E6F00
 3256              	.LASF89:
 3257 0521 63686172 		.ascii	"char\000"
 3257      00
 3258              	.LASF31:
 3259 0526 5F5F746D 		.ascii	"__tm_min\000"
 3259      5F6D696E 
 3259      00
 3260              	.LASF132:
 3261 052f 74656D70 		.ascii	"temperature\000"
 3261      65726174 
 3261      75726500 
 3262              	.LASF96:
 3263 053b 5F6D756C 		.ascii	"_mult\000"
 3263      7400
 3264              	.LASF24:
 3265 0541 5F6E6578 		.ascii	"_next\000"
 3265      7400
 3266              	.LASF99:
 3267 0547 5F737472 		.ascii	"_strtok_last\000"
 3267      746F6B5F 
ARM GAS  C:\Users\embedded\AppData\Local\Temp\ccOrxL0D.s 			page 67


 3267      6C617374 
 3267      00
 3268              	.LASF42:
 3269 0554 5F666E74 		.ascii	"_fntypes\000"
 3269      79706573 
 3269      00
 3270              	.LASF25:
 3271 055d 5F6D6178 		.ascii	"_maxwds\000"
 3271      77647300 
 3272              	.LASF149:
 3273 0565 70636139 		.ascii	"pca9532Init\000"
 3273      35333249 
 3273      6E697400 
 3274              	.LASF97:
 3275 0571 5F616464 		.ascii	"_add\000"
 3275      00
 3276              	.LASF23:
 3277 0576 5F5F554C 		.ascii	"__ULong\000"
 3277      6F6E6700 
 3278              	.LASF110:
 3279 057e 5F676574 		.ascii	"_getdate_err\000"
 3279      64617465 
 3279      5F657272 
 3279      00
 3280              	.LASF123:
 3281 058b 5F676C6F 		.ascii	"_global_impure_ptr\000"
 3281      62616C5F 
 3281      696D7075 
 3281      72655F70 
 3281      747200
 3282              	.LASF98:
 3283 059e 5F756E75 		.ascii	"_unused_rand\000"
 3283      7365645F 
 3283      72616E64 
 3283      00
 3284              	.LASF27:
 3285 05ab 5F776473 		.ascii	"_wds\000"
 3285      00
 3286              	.LASF36:
 3287 05b0 5F5F746D 		.ascii	"__tm_wday\000"
 3287      5F776461 
 3287      7900
 3288              	.LASF91:
 3289 05ba 5F676C75 		.ascii	"_glue\000"
 3289      6500
 3290              	.LASF118:
 3291 05c0 5F6E6D61 		.ascii	"_nmalloc\000"
 3291      6C6C6F63 
 3291      00
 3292              	.LASF108:
 3293 05c9 5F6C3634 		.ascii	"_l64a_buf\000"
 3293      615F6275 
 3293      6600
 3294              	.LASF86:
 3295 05d3 5F736967 		.ascii	"_sig_func\000"
 3295      5F66756E 
 3295      6300
ARM GAS  C:\Users\embedded\AppData\Local\Temp\ccOrxL0D.s 			page 68


 3296              	.LASF60:
 3297 05dd 5F6E6275 		.ascii	"_nbuf\000"
 3297      6600
 3298              	.LASF119:
 3299 05e3 5F756E75 		.ascii	"_unused\000"
 3299      73656400 
 3300              	.LASF38:
 3301 05eb 5F5F746D 		.ascii	"__tm_isdst\000"
 3301      5F697364 
 3301      737400
 3302              	.LASF101:
 3303 05f6 5F6C6F63 		.ascii	"_localtime_buf\000"
 3303      616C7469 
 3303      6D655F62 
 3303      756600
 3304              	.LASF58:
 3305 0605 5F636C6F 		.ascii	"_close\000"
 3305      736500
 3306              	.LASF104:
 3307 060c 5F723438 		.ascii	"_r48\000"
 3307      00
 3308              	.LASF129:
 3309 0611 69735469 		.ascii	"isTimeBeingSet\000"
 3309      6D654265 
 3309      696E6753 
 3309      657400
 3310              	.LASF106:
 3311 0620 5F6D6274 		.ascii	"_mbtowc_state\000"
 3311      6F77635F 
 3311      73746174 
 3311      6500
 3312              	.LASF80:
 3313 062e 5F703573 		.ascii	"_p5s\000"
 3313      00
 3314              	.LASF148:
 3315 0633 73707269 		.ascii	"sprintfHolder\000"
 3315      6E746648 
 3315      6F6C6465 
 3315      7200
 3316              	.LASF126:
 3317 0641 6D61696E 		.ascii	"main\000"
 3317      00
 3318              	.LASF33:
 3319 0646 5F5F746D 		.ascii	"__tm_mday\000"
 3319      5F6D6461 
 3319      7900
 3320              		.ident	"GCC: (GNU Tools for Arm Embedded Processors 7-2018-q2-update) 7.3.1 20180622 (release) [AR
ARM GAS  C:\Users\embedded\AppData\Local\Temp\ccOrxL0D.s 			page 69


DEFINED SYMBOLS
                            *ABS*:00000000 main.c
                            *COM*:00000001 samples
C:\Users\embedded\AppData\Local\Temp\ccOrxL0D.s:17     .rodata:00000000 $d
C:\Users\embedded\AppData\Local\Temp\ccOrxL0D.s:55     .text:00000000 main
C:\Users\embedded\AppData\Local\Temp\ccOrxL0D.s:63     .text:00000000 $t
C:\Users\embedded\AppData\Local\Temp\ccOrxL0D.s:744    .text:00000494 init
C:\Users\embedded\AppData\Local\Temp\ccOrxL0D.s:481    .text:00000298 $d
C:\Users\embedded\AppData\Local\Temp\ccOrxL0D.s:496    .text:000002cc $t
C:\Users\embedded\AppData\Local\Temp\ccOrxL0D.s:728    .text:0000047c $d
C:\Users\embedded\AppData\Local\Temp\ccOrxL0D.s:737    .text:00000494 $t
C:\Users\embedded\AppData\Local\Temp\ccOrxL0D.s:822    .text:000004f8 $d

UNDEFINED SYMBOLS
memset
showTime
lcdClrscr
sdelay
setAlarm
lcdGotoxy
lcdPuts
mdelay
blinkLeds
beep
measureTemperature
calculateTemperatureValue
measureHumidity
sprintf
i2cInit
pca9532Init
lcdInit
lcdColor
