ARM GAS  C:\Users\embedded\AppData\Local\Temp\cc5AaADL.s 			page 1


   1              		.cpu arm7tdmi
   2              		.eabi_attribute 20, 1
   3              		.eabi_attribute 21, 1
   4              		.eabi_attribute 23, 3
   5              		.eabi_attribute 24, 1
   6              		.eabi_attribute 25, 1
   7              		.eabi_attribute 26, 1
   8              		.eabi_attribute 30, 6
   9              		.eabi_attribute 34, 0
  10              		.eabi_attribute 18, 4
  11              		.file	"main.c"
  12              		.text
  13              	.Ltext0:
  14              		.cfi_sections	.debug_frame
  15              		.comm	myArray,1,4
  16              		.section	.rodata
  17              		.align	2
  18              	.LC0:
  19 0000 57616B65 		.ascii	"Wake up!\000\000"
  19      20757021 
  19      0000
  20 000a 0000     		.align	2
  21              	.LC2:
  22 000c 54656D70 		.ascii	"Temperatura: \000\000"
  22      65726174 
  22      7572613A 
  22      200000
  23 001b 00       		.align	2
  24              	.LC4:
  25 001c 256400   		.ascii	"%d\000"
  26 001f 00       		.align	2
  27              	.LC6:
  28 0020 57696C67 		.ascii	"Wilgotnosc:\000"
  28      6F746E6F 
  28      73633A00 
  29              		.align	2
  30              	.LC8:
  31 002c 250000   		.ascii	"%\000\000"
  32              		.text
  33              		.align	1
  34              		.global	main
  35              		.syntax unified
  36              		.code	16
  37              		.thumb_func
  38              		.fpu softvfp
  39              		.type	main, %function
  40              	main:
  41              	.LFB3:
  42              		.file 1 "main.c"
   1:main.c        **** #include "general.h"
   2:main.c        **** #include <lpc2xxx.h>
   3:main.c        **** #include <printf_P.h>
   4:main.c        **** #include <printf_init.h>
   5:main.c        **** #include <consol.h>
   6:main.c        **** #include <config.h>
   7:main.c        **** #include "irq/irq_handler.h"
   8:main.c        **** #include "timer.h"
ARM GAS  C:\Users\embedded\AppData\Local\Temp\cc5AaADL.s 			page 2


   9:main.c        **** #include "VIC.h"
  10:main.c        **** #include "i2c.h"
  11:main.c        **** #include <stdio.h>
  12:main.c        **** #include <string.h>
  13:main.c        **** #include "sound.h"
  14:main.c        **** #include "rtc.h"
  15:main.c        **** #include "lm75.h"
  16:main.c        **** #include "htu21df.h"
  17:main.c        **** #include "lcd.h"
  18:main.c        **** #include "pca9532.h"
  19:main.c        **** #include "additional.h"
  20:main.c        **** 
  21:main.c        **** #include "Common_Def.h"
  22:main.c        **** 
  23:main.c        **** 
  24:main.c        **** 
  25:main.c        **** 
  26:main.c        **** 
  27:main.c        **** 
  28:main.c        **** int main(void)
  29:main.c        **** {
  43              		.loc 1 29 0
  44              		.cfi_startproc
  45              		@ Function supports interworking.
  46              		@ args = 0, pretend = 0, frame = 48
  47              		@ frame_needed = 1, uses_anonymous_args = 0
  48 0000 90B5     		push	{r4, r7, lr}
  49              	.LCFI0:
  50              		.cfi_def_cfa_offset 12
  51              		.cfi_offset 4, -12
  52              		.cfi_offset 7, -8
  53              		.cfi_offset 14, -4
  54 0002 8DB0     		sub	sp, sp, #52
  55              	.LCFI1:
  56              		.cfi_def_cfa_offset 64
  57 0004 00AF     		add	r7, sp, #0
  58              	.LCFI2:
  59              		.cfi_def_cfa_register 7
  30:main.c        **** 	// I2C initalization
  31:main.c        **** 	i2cInit();
  60              		.loc 1 31 0
  61 0006 FFF7FEFF 		bl	i2cInit
  32:main.c        **** 	tU8 pca9532Present;
  33:main.c        **** 	pca9532Present = pca9532Init();
  62              		.loc 1 33 0
  63 000a FFF7FEFF 		bl	pca9532Init
  64 000e 0200     		movs	r2, r0
  65 0010 2823     		movs	r3, #40
  66 0012 FB18     		adds	r3, r7, r3
  67 0014 1A70     		strb	r2, [r3]
  34:main.c        **** 	tU8 lm75address = (((tU8)0x48 << 1) | (tU8)1);
  68              		.loc 1 34 0
  69 0016 2723     		movs	r3, #39
  70 0018 FB18     		adds	r3, r7, r3
  71 001a 9122     		movs	r2, #145
  72 001c 1A70     		strb	r2, [r3]
  35:main.c        **** 	printf_init();
ARM GAS  C:\Users\embedded\AppData\Local\Temp\cc5AaADL.s 			page 3


  73              		.loc 1 35 0
  74 001e FFF7FEFF 		bl	printf_init
  36:main.c        **** 	// LCD display initialization
  37:main.c        **** 	lcdInit();
  75              		.loc 1 37 0
  76 0022 FFF7FEFF 		bl	lcdInit
  38:main.c        **** 	// Setting colors for background and text.
  39:main.c        **** 	lcdColor(0xff, 0x00);
  77              		.loc 1 39 0
  78 0026 0021     		movs	r1, #0
  79 0028 FF20     		movs	r0, #255
  80 002a FFF7FEFF 		bl	lcdColor
  40:main.c        **** 	lcdClrscr();
  81              		.loc 1 40 0
  82 002e FFF7FEFF 		bl	lcdClrscr
  41:main.c        **** 
  42:main.c        **** 
  43:main.c        **** 	tU8 isTimeBeingSet = FALSE;
  83              		.loc 1 43 0
  84 0032 2F23     		movs	r3, #47
  85 0034 FB18     		adds	r3, r7, r3
  86 0036 0022     		movs	r2, #0
  87 0038 1A70     		strb	r2, [r3]
  44:main.c        **** 	tU16 currentType = 0;
  88              		.loc 1 44 0
  89 003a 2C23     		movs	r3, #44
  90 003c FB18     		adds	r3, r7, r3
  91 003e 0022     		movs	r2, #0
  92 0040 1A80     		strh	r2, [r3]
  45:main.c        **** 	tU8 charArray[10] = {0};
  93              		.loc 1 45 0
  94 0042 1823     		movs	r3, #24
  95 0044 FB18     		adds	r3, r7, r3
  96 0046 1800     		movs	r0, r3
  97 0048 0A23     		movs	r3, #10
  98 004a 1A00     		movs	r2, r3
  99 004c 0021     		movs	r1, #0
 100 004e FFF7FEFF 		bl	memset
  46:main.c        **** 	tU8 *messagePointer;
  47:main.c        **** 	tU8 temperature[2] = {0};
 101              		.loc 1 47 0
 102 0052 1423     		movs	r3, #20
 103 0054 FB18     		adds	r3, r7, r3
 104 0056 0022     		movs	r2, #0
 105 0058 1A80     		strh	r2, [r3]
  48:main.c        **** 
  49:main.c        **** 
  50:main.c        **** 	RTC_SEC = 0;
 106              		.loc 1 50 0
 107 005a CB4B     		ldr	r3, .L31
 108 005c 0022     		movs	r2, #0
 109 005e 1A60     		str	r2, [r3]
  51:main.c        **** 	RTC_MIN = 0;
 110              		.loc 1 51 0
 111 0060 CA4B     		ldr	r3, .L31+4
 112 0062 0022     		movs	r2, #0
 113 0064 1A60     		str	r2, [r3]
ARM GAS  C:\Users\embedded\AppData\Local\Temp\cc5AaADL.s 			page 4


  52:main.c        **** 	RTC_HOUR = 0;
 114              		.loc 1 52 0
 115 0066 CA4B     		ldr	r3, .L31+8
 116 0068 0022     		movs	r2, #0
 117 006a 1A60     		str	r2, [r3]
  53:main.c        **** 	tU8 temp_SEC = RTC_SEC;
 118              		.loc 1 53 0
 119 006c C64B     		ldr	r3, .L31
 120 006e 1A68     		ldr	r2, [r3]
 121 0070 2B23     		movs	r3, #43
 122 0072 FB18     		adds	r3, r7, r3
 123 0074 1A70     		strb	r2, [r3]
  54:main.c        **** 	tU8 temp_MIN = RTC_MIN;
 124              		.loc 1 54 0
 125 0076 C54B     		ldr	r3, .L31+4
 126 0078 1A68     		ldr	r2, [r3]
 127 007a 2A23     		movs	r3, #42
 128 007c FB18     		adds	r3, r7, r3
 129 007e 1A70     		strb	r2, [r3]
  55:main.c        **** 	tU8 temp_HOUR = RTC_HOUR;
 130              		.loc 1 55 0
 131 0080 C34B     		ldr	r3, .L31+8
 132 0082 1A68     		ldr	r2, [r3]
 133 0084 2923     		movs	r3, #41
 134 0086 FB18     		adds	r3, r7, r3
 135 0088 1A70     		strb	r2, [r3]
 136              	.L24:
 137              	.LBB2:
  56:main.c        **** 
  57:main.c        **** 	//IODIR |= 0x00008000; //P0.15
  58:main.c        **** 
  59:main.c        **** 
  60:main.c        **** 
  61:main.c        **** 
  62:main.c        **** 	while (TRUE) {
  63:main.c        **** 		showTime(RTC_SEC, RTC_MIN,RTC_HOUR,5);
 138              		.loc 1 63 0
 139 008a BF4B     		ldr	r3, .L31
 140 008c 1B68     		ldr	r3, [r3]
 141 008e 1B06     		lsls	r3, r3, #24
 142 0090 180E     		lsrs	r0, r3, #24
 143 0092 BE4B     		ldr	r3, .L31+4
 144 0094 1B68     		ldr	r3, [r3]
 145 0096 1B06     		lsls	r3, r3, #24
 146 0098 190E     		lsrs	r1, r3, #24
 147 009a BD4B     		ldr	r3, .L31+8
 148 009c 1B68     		ldr	r3, [r3]
 149 009e 1B06     		lsls	r3, r3, #24
 150 00a0 1A0E     		lsrs	r2, r3, #24
 151 00a2 0523     		movs	r3, #5
 152 00a4 FFF7FEFF 		bl	showTime
  64:main.c        ****         //check if P0.8 center-key is pressed
  65:main.c        ****         if ((IOPIN & 0x00000800) == 0 && !isTimeBeingSet)//bylo 100
 153              		.loc 1 65 0
 154 00a8 BA4B     		ldr	r3, .L31+12
 155 00aa 1A68     		ldr	r2, [r3]
 156 00ac 8023     		movs	r3, #128
ARM GAS  C:\Users\embedded\AppData\Local\Temp\cc5AaADL.s 			page 5


 157 00ae 1B01     		lsls	r3, r3, #4
 158 00b0 1340     		ands	r3, r2
 159 00b2 00D0     		beq	.LCB98
 160 00b4 DEE0     		b	.L2	@long jump
 161              	.LCB98:
 162              		.loc 1 65 0 is_stmt 0 discriminator 1
 163 00b6 2F23     		movs	r3, #47
 164 00b8 FB18     		adds	r3, r7, r3
 165 00ba 1B78     		ldrb	r3, [r3]
 166 00bc 002B     		cmp	r3, #0
 167 00be 00D0     		beq	.LCB103
 168 00c0 D8E0     		b	.L2	@long jump
 169              	.LCB103:
  66:main.c        ****         {
  67:main.c        ****             isTimeBeingSet = TRUE;
 170              		.loc 1 67 0 is_stmt 1
 171 00c2 2F23     		movs	r3, #47
 172 00c4 FB18     		adds	r3, r7, r3
 173 00c6 0122     		movs	r2, #1
 174 00c8 1A70     		strb	r2, [r3]
  68:main.c        **** 			temp_SEC = RTC_SEC;
 175              		.loc 1 68 0
 176 00ca AF4B     		ldr	r3, .L31
 177 00cc 1A68     		ldr	r2, [r3]
 178 00ce 2B20     		movs	r0, #43
 179 00d0 3B18     		adds	r3, r7, r0
 180 00d2 1A70     		strb	r2, [r3]
  69:main.c        **** 			temp_MIN = RTC_MIN;
 181              		.loc 1 69 0
 182 00d4 AD4B     		ldr	r3, .L31+4
 183 00d6 1A68     		ldr	r2, [r3]
 184 00d8 2A21     		movs	r1, #42
 185 00da 7B18     		adds	r3, r7, r1
 186 00dc 1A70     		strb	r2, [r3]
  70:main.c        **** 			temp_HOUR = RTC_HOUR;
 187              		.loc 1 70 0
 188 00de AC4B     		ldr	r3, .L31+8
 189 00e0 1A68     		ldr	r2, [r3]
 190 00e2 2924     		movs	r4, #41
 191 00e4 3B19     		adds	r3, r7, r4
 192 00e6 1A70     		strb	r2, [r3]
  71:main.c        **** 
  72:main.c        **** 			showTime(temp_SEC,temp_MIN,temp_HOUR,5);
 193              		.loc 1 72 0
 194 00e8 3B19     		adds	r3, r7, r4
 195 00ea 1A78     		ldrb	r2, [r3]
 196 00ec 7B18     		adds	r3, r7, r1
 197 00ee 1978     		ldrb	r1, [r3]
 198 00f0 3B18     		adds	r3, r7, r0
 199 00f2 1878     		ldrb	r0, [r3]
 200 00f4 0523     		movs	r3, #5
 201 00f6 FFF7FEFF 		bl	showTime
  73:main.c        **** 			sdelay(1);
 202              		.loc 1 73 0
 203 00fa 0120     		movs	r0, #1
 204 00fc FFF7FEFF 		bl	sdelay
  74:main.c        **** 			while(isTimeBeingSet){
ARM GAS  C:\Users\embedded\AppData\Local\Temp\cc5AaADL.s 			page 6


 205              		.loc 1 74 0
 206 0100 B2E0     		b	.L3
 207              	.L22:
  75:main.c        **** 				//check if P0.8 center-key is pressed
  76:main.c        **** 				if ((IOPIN & 0x00000800) == 0) //bylo 100
 208              		.loc 1 76 0
 209 0102 A44B     		ldr	r3, .L31+12
 210 0104 1A68     		ldr	r2, [r3]
 211 0106 8023     		movs	r3, #128
 212 0108 1B01     		lsls	r3, r3, #4
 213 010a 1340     		ands	r3, r2
 214 010c 25D1     		bne	.L4
  77:main.c        **** 				{
  78:main.c        **** 					currentType++;
 215              		.loc 1 78 0
 216 010e 2C21     		movs	r1, #44
 217 0110 7B18     		adds	r3, r7, r1
 218 0112 1A88     		ldrh	r2, [r3]
 219 0114 7B18     		adds	r3, r7, r1
 220 0116 0132     		adds	r2, r2, #1
 221 0118 1A80     		strh	r2, [r3]
  79:main.c        **** 					if(currentType<0 || currentType > 2){
 222              		.loc 1 79 0
 223 011a 7B18     		adds	r3, r7, r1
 224 011c 1B88     		ldrh	r3, [r3]
 225 011e 022B     		cmp	r3, #2
 226 0120 17D9     		bls	.L5
  80:main.c        **** 						isTimeBeingSet = FALSE;
 227              		.loc 1 80 0
 228 0122 2F23     		movs	r3, #47
 229 0124 FB18     		adds	r3, r7, r3
 230 0126 0022     		movs	r2, #0
 231 0128 1A70     		strb	r2, [r3]
  81:main.c        **** 						setAlarm(temp_SEC,temp_MIN,temp_HOUR);
 232              		.loc 1 81 0
 233 012a 2923     		movs	r3, #41
 234 012c FB18     		adds	r3, r7, r3
 235 012e 1A78     		ldrb	r2, [r3]
 236 0130 2A23     		movs	r3, #42
 237 0132 FB18     		adds	r3, r7, r3
 238 0134 1978     		ldrb	r1, [r3]
 239 0136 2B23     		movs	r3, #43
 240 0138 FB18     		adds	r3, r7, r3
 241 013a 1B78     		ldrb	r3, [r3]
 242 013c 1800     		movs	r0, r3
 243 013e FFF7FEFF 		bl	setAlarm
  82:main.c        **** 						currentType = 0;
 244              		.loc 1 82 0
 245 0142 2C23     		movs	r3, #44
 246 0144 FB18     		adds	r3, r7, r3
 247 0146 0022     		movs	r2, #0
 248 0148 1A80     		strh	r2, [r3]
  83:main.c        **** 						sdelay(1);
 249              		.loc 1 83 0
 250 014a 0120     		movs	r0, #1
 251 014c FFF7FEFF 		bl	sdelay
 252 0150 76E0     		b	.L7
ARM GAS  C:\Users\embedded\AppData\Local\Temp\cc5AaADL.s 			page 7


 253              	.L5:
  84:main.c        **** 					}
  85:main.c        **** 					else{
  86:main.c        **** 						sdelay(1);
 254              		.loc 1 86 0
 255 0152 0120     		movs	r0, #1
 256 0154 FFF7FEFF 		bl	sdelay
 257 0158 72E0     		b	.L7
 258              	.L4:
  87:main.c        **** 					}
  88:main.c        **** 				}
  89:main.c        **** 				//check if P0.10 up-key is pressed
  90:main.c        **** 				else if((IOPIN & 0x0000400) == 0){
 259              		.loc 1 90 0
 260 015a 8E4B     		ldr	r3, .L31+12
 261 015c 1A68     		ldr	r2, [r3]
 262 015e 8023     		movs	r3, #128
 263 0160 DB00     		lsls	r3, r3, #3
 264 0162 1340     		ands	r3, r2
 265 0164 2ED1     		bne	.L8
  91:main.c        **** 					switch(currentType){
 266              		.loc 1 91 0
 267 0166 2C23     		movs	r3, #44
 268 0168 FB18     		adds	r3, r7, r3
 269 016a 1B88     		ldrh	r3, [r3]
 270 016c 012B     		cmp	r3, #1
 271 016e 10D0     		beq	.L10
 272 0170 022B     		cmp	r3, #2
 273 0172 1AD0     		beq	.L11
 274 0174 002B     		cmp	r3, #0
 275 0176 00D0     		beq	.LCB205
 276 0178 62E0     		b	.L7	@long jump
 277              	.LCB205:
  92:main.c        **** 						case 0:
  93:main.c        **** 							if(temp_HOUR<23){
 278              		.loc 1 93 0
 279 017a 2923     		movs	r3, #41
 280 017c FB18     		adds	r3, r7, r3
 281 017e 1B78     		ldrb	r3, [r3]
 282 0180 162B     		cmp	r3, #22
 283 0182 52D8     		bhi	.L25
  94:main.c        **** 								temp_HOUR++;
 284              		.loc 1 94 0
 285 0184 2921     		movs	r1, #41
 286 0186 7B18     		adds	r3, r7, r1
 287 0188 1A78     		ldrb	r2, [r3]
 288 018a 7B18     		adds	r3, r7, r1
 289 018c 0132     		adds	r2, r2, #1
 290 018e 1A70     		strb	r2, [r3]
  95:main.c        **** 							}
  96:main.c        **** 							break;
 291              		.loc 1 96 0
 292 0190 4BE0     		b	.L25
 293              	.L10:
  97:main.c        **** 						case 1:
  98:main.c        **** 							if(temp_MIN < 60){
 294              		.loc 1 98 0
ARM GAS  C:\Users\embedded\AppData\Local\Temp\cc5AaADL.s 			page 8


 295 0192 2A23     		movs	r3, #42
 296 0194 FB18     		adds	r3, r7, r3
 297 0196 1B78     		ldrb	r3, [r3]
 298 0198 3B2B     		cmp	r3, #59
 299 019a 48D8     		bhi	.L26
  99:main.c        **** 								temp_MIN++;
 300              		.loc 1 99 0
 301 019c 2A21     		movs	r1, #42
 302 019e 7B18     		adds	r3, r7, r1
 303 01a0 1A78     		ldrb	r2, [r3]
 304 01a2 7B18     		adds	r3, r7, r1
 305 01a4 0132     		adds	r2, r2, #1
 306 01a6 1A70     		strb	r2, [r3]
 100:main.c        **** 							}
 101:main.c        **** 							break;
 307              		.loc 1 101 0
 308 01a8 41E0     		b	.L26
 309              	.L11:
 102:main.c        **** 						case 2:
 103:main.c        **** 							if(temp_SEC < 60){
 310              		.loc 1 103 0
 311 01aa 2B23     		movs	r3, #43
 312 01ac FB18     		adds	r3, r7, r3
 313 01ae 1B78     		ldrb	r3, [r3]
 314 01b0 3B2B     		cmp	r3, #59
 315 01b2 3ED8     		bhi	.L27
 104:main.c        **** 								temp_SEC++;
 316              		.loc 1 104 0
 317 01b4 2B21     		movs	r1, #43
 318 01b6 7B18     		adds	r3, r7, r1
 319 01b8 1A78     		ldrb	r2, [r3]
 320 01ba 7B18     		adds	r3, r7, r1
 321 01bc 0132     		adds	r2, r2, #1
 322 01be 1A70     		strb	r2, [r3]
 105:main.c        **** 							}
 106:main.c        **** 							break;
 323              		.loc 1 106 0
 324 01c0 C046     		nop
 325 01c2 36E0     		b	.L27
 326              	.L8:
 107:main.c        **** 					}
 108:main.c        **** 				}
 109:main.c        **** 				//check if P0.12 down-key is pressed
 110:main.c        **** 				else if((IOPIN & 0x00001000) == 0){
 327              		.loc 1 110 0
 328 01c4 734B     		ldr	r3, .L31+12
 329 01c6 1A68     		ldr	r2, [r3]
 330 01c8 8023     		movs	r3, #128
 331 01ca 5B01     		lsls	r3, r3, #5
 332 01cc 1340     		ands	r3, r2
 333 01ce 37D1     		bne	.L7
 111:main.c        **** 					switch(currentType){
 334              		.loc 1 111 0
 335 01d0 2C23     		movs	r3, #44
 336 01d2 FB18     		adds	r3, r7, r3
 337 01d4 1B88     		ldrh	r3, [r3]
 338 01d6 012B     		cmp	r3, #1
ARM GAS  C:\Users\embedded\AppData\Local\Temp\cc5AaADL.s 			page 9


 339 01d8 0FD0     		beq	.L16
 340 01da 022B     		cmp	r3, #2
 341 01dc 19D0     		beq	.L17
 342 01de 002B     		cmp	r3, #0
 343 01e0 2ED1     		bne	.L7
 112:main.c        **** 						case 0:
 113:main.c        **** 							if(temp_HOUR >0){
 344              		.loc 1 113 0
 345 01e2 2923     		movs	r3, #41
 346 01e4 FB18     		adds	r3, r7, r3
 347 01e6 1B78     		ldrb	r3, [r3]
 348 01e8 002B     		cmp	r3, #0
 349 01ea 24D0     		beq	.L28
 114:main.c        **** 								temp_HOUR--;
 350              		.loc 1 114 0
 351 01ec 2921     		movs	r1, #41
 352 01ee 7B18     		adds	r3, r7, r1
 353 01f0 1A78     		ldrb	r2, [r3]
 354 01f2 7B18     		adds	r3, r7, r1
 355 01f4 013A     		subs	r2, r2, #1
 356 01f6 1A70     		strb	r2, [r3]
 115:main.c        **** 							}
 116:main.c        **** 							break;
 357              		.loc 1 116 0
 358 01f8 1DE0     		b	.L28
 359              	.L16:
 117:main.c        **** 						case 1:
 118:main.c        **** 							if(temp_MIN > 0){
 360              		.loc 1 118 0
 361 01fa 2A23     		movs	r3, #42
 362 01fc FB18     		adds	r3, r7, r3
 363 01fe 1B78     		ldrb	r3, [r3]
 364 0200 002B     		cmp	r3, #0
 365 0202 1AD0     		beq	.L29
 119:main.c        **** 								temp_MIN--;
 366              		.loc 1 119 0
 367 0204 2A21     		movs	r1, #42
 368 0206 7B18     		adds	r3, r7, r1
 369 0208 1A78     		ldrb	r2, [r3]
 370 020a 7B18     		adds	r3, r7, r1
 371 020c 013A     		subs	r2, r2, #1
 372 020e 1A70     		strb	r2, [r3]
 120:main.c        **** 							}
 121:main.c        **** 							break;
 373              		.loc 1 121 0
 374 0210 13E0     		b	.L29
 375              	.L17:
 122:main.c        **** 						case 2:
 123:main.c        **** 							if(temp_SEC > 0){
 376              		.loc 1 123 0
 377 0212 2B23     		movs	r3, #43
 378 0214 FB18     		adds	r3, r7, r3
 379 0216 1B78     		ldrb	r3, [r3]
 380 0218 002B     		cmp	r3, #0
 381 021a 10D0     		beq	.L30
 124:main.c        **** 								temp_SEC--;
 382              		.loc 1 124 0
ARM GAS  C:\Users\embedded\AppData\Local\Temp\cc5AaADL.s 			page 10


 383 021c 2B21     		movs	r1, #43
 384 021e 7B18     		adds	r3, r7, r1
 385 0220 1A78     		ldrb	r2, [r3]
 386 0222 7B18     		adds	r3, r7, r1
 387 0224 013A     		subs	r2, r2, #1
 388 0226 1A70     		strb	r2, [r3]
 125:main.c        **** 							}
 126:main.c        **** 							break;
 389              		.loc 1 126 0
 390 0228 09E0     		b	.L30
 391              	.L25:
  96:main.c        **** 						case 1:
 392              		.loc 1 96 0
 393 022a C046     		nop
 394 022c 08E0     		b	.L7
 395              	.L26:
 101:main.c        **** 						case 2:
 396              		.loc 1 101 0
 397 022e C046     		nop
 398 0230 06E0     		b	.L7
 399              	.L27:
 106:main.c        **** 					}
 400              		.loc 1 106 0
 401 0232 C046     		nop
 402 0234 04E0     		b	.L7
 403              	.L28:
 116:main.c        **** 						case 1:
 404              		.loc 1 116 0
 405 0236 C046     		nop
 406 0238 02E0     		b	.L7
 407              	.L29:
 121:main.c        **** 						case 2:
 408              		.loc 1 121 0
 409 023a C046     		nop
 410 023c 00E0     		b	.L7
 411              	.L30:
 412              		.loc 1 126 0
 413 023e C046     		nop
 414              	.L7:
 127:main.c        **** 					}
 128:main.c        **** 				}
 129:main.c        **** 				showTime(temp_SEC,temp_MIN,temp_HOUR,currentType);
 415              		.loc 1 129 0
 416 0240 2C23     		movs	r3, #44
 417 0242 FB18     		adds	r3, r7, r3
 418 0244 1B88     		ldrh	r3, [r3]
 419 0246 1B06     		lsls	r3, r3, #24
 420 0248 1C0E     		lsrs	r4, r3, #24
 421 024a 2923     		movs	r3, #41
 422 024c FB18     		adds	r3, r7, r3
 423 024e 1A78     		ldrb	r2, [r3]
 424 0250 2A23     		movs	r3, #42
 425 0252 FB18     		adds	r3, r7, r3
 426 0254 1978     		ldrb	r1, [r3]
 427 0256 2B23     		movs	r3, #43
 428 0258 FB18     		adds	r3, r7, r3
 429 025a 1878     		ldrb	r0, [r3]
ARM GAS  C:\Users\embedded\AppData\Local\Temp\cc5AaADL.s 			page 11


 430 025c 2300     		movs	r3, r4
 431 025e FFF7FEFF 		bl	showTime
 130:main.c        **** 				mdelay(100);
 432              		.loc 1 130 0
 433 0262 6420     		movs	r0, #100
 434 0264 FFF7FEFF 		bl	mdelay
 435              	.L3:
  74:main.c        **** 				//check if P0.8 center-key is pressed
 436              		.loc 1 74 0
 437 0268 2F23     		movs	r3, #47
 438 026a FB18     		adds	r3, r7, r3
 439 026c 1B78     		ldrb	r3, [r3]
 440 026e 002B     		cmp	r3, #0
 441 0270 00D0     		beq	.LCB371
 442 0272 46E7     		b	.L22	@long jump
 443              	.LCB371:
 444              	.L2:
 131:main.c        **** 			}
 132:main.c        ****         }
 133:main.c        ****         if((RTC_ILR & 0x2) == 0x2)
 445              		.loc 1 133 0
 446 0274 484B     		ldr	r3, .L31+16
 447 0276 1B68     		ldr	r3, [r3]
 448 0278 0222     		movs	r2, #2
 449 027a 1340     		ands	r3, r2
 450 027c 022B     		cmp	r3, #2
 451 027e 31D1     		bne	.L23
 452              	.LBB3:
 134:main.c        ****         {
 135:main.c        **** 			showTime(RTC_SEC,RTC_MIN,RTC_HOUR,5);
 453              		.loc 1 135 0
 454 0280 414B     		ldr	r3, .L31
 455 0282 1B68     		ldr	r3, [r3]
 456 0284 1B06     		lsls	r3, r3, #24
 457 0286 180E     		lsrs	r0, r3, #24
 458 0288 404B     		ldr	r3, .L31+4
 459 028a 1B68     		ldr	r3, [r3]
 460 028c 1B06     		lsls	r3, r3, #24
 461 028e 190E     		lsrs	r1, r3, #24
 462 0290 3F4B     		ldr	r3, .L31+8
 463 0292 1B68     		ldr	r3, [r3]
 464 0294 1B06     		lsls	r3, r3, #24
 465 0296 1A0E     		lsrs	r2, r3, #24
 466 0298 0523     		movs	r3, #5
 467 029a FFF7FEFF 		bl	showTime
 136:main.c        **** 			lcdGotoxy(50, 90);
 468              		.loc 1 136 0
 469 029e 5A21     		movs	r1, #90
 470 02a0 3220     		movs	r0, #50
 471 02a2 FFF7FEFF 		bl	lcdGotoxy
 137:main.c        **** 			lcdPuts("Wake up!\0");
 472              		.loc 1 137 0
 473 02a6 3D4B     		ldr	r3, .L31+20
 474 02a8 1800     		movs	r0, r3
 475 02aa FFF7FEFF 		bl	lcdPuts
 138:main.c        **** 			sdelay(1);
 476              		.loc 1 138 0
ARM GAS  C:\Users\embedded\AppData\Local\Temp\cc5AaADL.s 			page 12


 477 02ae 0120     		movs	r0, #1
 478 02b0 FFF7FEFF 		bl	sdelay
 139:main.c        **** 			blinkLeds(1, pca9532Present);
 479              		.loc 1 139 0
 480 02b4 2824     		movs	r4, #40
 481 02b6 3B19     		adds	r3, r7, r4
 482 02b8 1B78     		ldrb	r3, [r3]
 483 02ba 1900     		movs	r1, r3
 484 02bc 0120     		movs	r0, #1
 485 02be FFF7FEFF 		bl	blinkLeds
 140:main.c        **** 			beep(5);
 486              		.loc 1 140 0
 487 02c2 0520     		movs	r0, #5
 488 02c4 FFF7FEFF 		bl	beep
 141:main.c        **** 			blinkLeds(0, pca9532Present);
 489              		.loc 1 141 0
 490 02c8 3B19     		adds	r3, r7, r4
 491 02ca 1B78     		ldrb	r3, [r3]
 492 02cc 1900     		movs	r1, r3
 493 02ce 0020     		movs	r0, #0
 494 02d0 FFF7FEFF 		bl	blinkLeds
 142:main.c        **** 			lcdClrscr();
 495              		.loc 1 142 0
 496 02d4 FFF7FEFF 		bl	lcdClrscr
 143:main.c        **** 			RTC_ILR = 0x2;
 497              		.loc 1 143 0
 498 02d8 2F4B     		ldr	r3, .L31+16
 499 02da 0222     		movs	r2, #2
 500 02dc 1A60     		str	r2, [r3]
 144:main.c        **** 			RTC_AMR = 0xFF;
 501              		.loc 1 144 0
 502 02de 304B     		ldr	r3, .L31+24
 503 02e0 FF22     		movs	r2, #255
 504 02e2 1A60     		str	r2, [r3]
 505              	.L23:
 506              	.LBE3:
 145:main.c        **** 		}
 146:main.c        **** 
 147:main.c        **** 		lcdGotoxy(0, 0);
 507              		.loc 1 147 0
 508 02e4 0021     		movs	r1, #0
 509 02e6 0020     		movs	r0, #0
 510 02e8 FFF7FEFF 		bl	lcdGotoxy
 148:main.c        **** 		measureTemperature(lm75address, temperature);
 511              		.loc 1 148 0
 512 02ec 1424     		movs	r4, #20
 513 02ee 3A19     		adds	r2, r7, r4
 514 02f0 2723     		movs	r3, #39
 515 02f2 FB18     		adds	r3, r7, r3
 516 02f4 1B78     		ldrb	r3, [r3]
 517 02f6 1100     		movs	r1, r2
 518 02f8 1800     		movs	r0, r3
 519 02fa FFF7FEFF 		bl	measureTemperature
 149:main.c        **** 		lcdGotoxy(0, 0);
 520              		.loc 1 149 0
 521 02fe 0021     		movs	r1, #0
 522 0300 0020     		movs	r0, #0
ARM GAS  C:\Users\embedded\AppData\Local\Temp\cc5AaADL.s 			page 13


 523 0302 FFF7FEFF 		bl	lcdGotoxy
 150:main.c        **** 		lcdPuts("Temperatura: \0");
 524              		.loc 1 150 0
 525 0306 274B     		ldr	r3, .L31+28
 526 0308 1800     		movs	r0, r3
 527 030a FFF7FEFF 		bl	lcdPuts
 151:main.c        **** 		lcdGotoxy(0, 15);
 528              		.loc 1 151 0
 529 030e 0F21     		movs	r1, #15
 530 0310 0020     		movs	r0, #0
 531 0312 FFF7FEFF 		bl	lcdGotoxy
 152:main.c        **** 		calculateTemperatureValue(temperature);
 532              		.loc 1 152 0
 533 0316 3B19     		adds	r3, r7, r4
 534 0318 1800     		movs	r0, r3
 535 031a FFF7FEFF 		bl	calculateTemperatureValue
 153:main.c        **** 
 154:main.c        **** 		tU8 charArrray[10] = {0};
 536              		.loc 1 154 0
 537 031e 0823     		movs	r3, #8
 538 0320 FB18     		adds	r3, r7, r3
 539 0322 1800     		movs	r0, r3
 540 0324 0A23     		movs	r3, #10
 541 0326 1A00     		movs	r2, r3
 542 0328 0021     		movs	r1, #0
 543 032a FFF7FEFF 		bl	memset
 155:main.c        **** 		tU16 humidity = measureHumidity();
 544              		.loc 1 155 0
 545 032e FFF7FEFF 		bl	measureHumidity
 546 0332 0300     		movs	r3, r0
 547 0334 1A00     		movs	r2, r3
 548 0336 2421     		movs	r1, #36
 549 0338 7B18     		adds	r3, r7, r1
 550 033a 1A80     		strh	r2, [r3]
 156:main.c        **** 		sprintf(charArray,"%d",humidity);
 551              		.loc 1 156 0
 552 033c 7B18     		adds	r3, r7, r1
 553 033e 1A88     		ldrh	r2, [r3]
 554 0340 1949     		ldr	r1, .L31+32
 555 0342 1824     		movs	r4, #24
 556 0344 3B19     		adds	r3, r7, r4
 557 0346 1800     		movs	r0, r3
 558 0348 FFF7FEFF 		bl	sprintf
 157:main.c        **** 		lcdGotoxy(0,30);
 559              		.loc 1 157 0
 560 034c 1E21     		movs	r1, #30
 561 034e 0020     		movs	r0, #0
 562 0350 FFF7FEFF 		bl	lcdGotoxy
 158:main.c        **** 		lcdPuts("Wilgotnosc:");
 563              		.loc 1 158 0
 564 0354 154B     		ldr	r3, .L31+36
 565 0356 1800     		movs	r0, r3
 566 0358 FFF7FEFF 		bl	lcdPuts
 159:main.c        **** 		lcdGotoxy(0,45);
 567              		.loc 1 159 0
 568 035c 2D21     		movs	r1, #45
 569 035e 0020     		movs	r0, #0
ARM GAS  C:\Users\embedded\AppData\Local\Temp\cc5AaADL.s 			page 14


 570 0360 FFF7FEFF 		bl	lcdGotoxy
 160:main.c        **** 		tU8 percent[2] = "%\0";
 571              		.loc 1 160 0
 572 0364 3B1D     		adds	r3, r7, #4
 573 0366 124A     		ldr	r2, .L31+40
 574 0368 1288     		ldrh	r2, [r2]
 575 036a 1A80     		strh	r2, [r3]
 161:main.c        **** 		lcdPuts(charArray);
 576              		.loc 1 161 0
 577 036c 3B19     		adds	r3, r7, r4
 578 036e 1800     		movs	r0, r3
 579 0370 FFF7FEFF 		bl	lcdPuts
 162:main.c        **** 		lcdGotoxy(20,45);
 580              		.loc 1 162 0
 581 0374 2D21     		movs	r1, #45
 582 0376 1420     		movs	r0, #20
 583 0378 FFF7FEFF 		bl	lcdGotoxy
 163:main.c        **** 		lcdPuts(percent);
 584              		.loc 1 163 0
 585 037c 3B1D     		adds	r3, r7, #4
 586 037e 1800     		movs	r0, r3
 587 0380 FFF7FEFF 		bl	lcdPuts
 588              	.LBE2:
  62:main.c        **** 		showTime(RTC_SEC, RTC_MIN,RTC_HOUR,5);
 589              		.loc 1 62 0
 590 0384 81E6     		b	.L24
 591              	.L32:
 592 0386 C046     		.align	2
 593              	.L31:
 594 0388 204002E0 		.word	-536723424
 595 038c 244002E0 		.word	-536723420
 596 0390 284002E0 		.word	-536723416
 597 0394 008002E0 		.word	-536707072
 598 0398 004002E0 		.word	-536723456
 599 039c 00000000 		.word	.LC0
 600 03a0 104002E0 		.word	-536723440
 601 03a4 0C000000 		.word	.LC2
 602 03a8 1C000000 		.word	.LC4
 603 03ac 20000000 		.word	.LC6
 604 03b0 2C000000 		.word	.LC8
 605              		.cfi_endproc
 606              	.LFE3:
 607              		.size	main, .-main
 608              	.Letext0:
 609              		.file 2 "general.h"
 610              		.file 3 "c:\\embedded\\tools\\arm-none-eabi\\include\\sys\\lock.h"
 611              		.file 4 "c:\\embedded\\tools\\arm-none-eabi\\include\\sys\\_types.h"
 612              		.file 5 "c:\\embedded\\tools\\lib\\gcc\\arm-none-eabi\\7.3.1\\include\\stddef.h"
 613              		.file 6 "c:\\embedded\\tools\\arm-none-eabi\\include\\sys\\reent.h"
 614              		.file 7 "sound.h"
 615              		.section	.debug_info,"",%progbits
 616              	.Ldebug_info0:
 617 0000 F20A0000 		.4byte	0xaf2
 618 0004 0200     		.2byte	0x2
 619 0006 00000000 		.4byte	.Ldebug_abbrev0
 620 000a 04       		.byte	0x4
 621 000b 01       		.uleb128 0x1
ARM GAS  C:\Users\embedded\AppData\Local\Temp\cc5AaADL.s 			page 15


 622 000c 12030000 		.4byte	.LASF137
 623 0010 0C       		.byte	0xc
 624 0011 6D020000 		.4byte	.LASF138
 625 0015 E4020000 		.4byte	.LASF139
 626 0019 00000000 		.4byte	.Ltext0
 627 001d B4030000 		.4byte	.Letext0
 628 0021 00000000 		.4byte	.Ldebug_line0
 629 0025 02       		.uleb128 0x2
 630 0026 74553800 		.ascii	"tU8\000"
 631 002a 02       		.byte	0x2
 632 002b 18       		.byte	0x18
 633 002c 35000000 		.4byte	0x35
 634 0030 03       		.uleb128 0x3
 635 0031 25000000 		.4byte	0x25
 636 0035 04       		.uleb128 0x4
 637 0036 01       		.byte	0x1
 638 0037 08       		.byte	0x8
 639 0038 B7030000 		.4byte	.LASF1
 640 003c 05       		.uleb128 0x5
 641 003d FA000000 		.4byte	.LASF0
 642 0041 02       		.byte	0x2
 643 0042 19       		.byte	0x19
 644 0043 47000000 		.4byte	0x47
 645 0047 04       		.uleb128 0x4
 646 0048 02       		.byte	0x2
 647 0049 07       		.byte	0x7
 648 004a 0D020000 		.4byte	.LASF2
 649 004e 04       		.uleb128 0x4
 650 004f 04       		.byte	0x4
 651 0050 07       		.byte	0x7
 652 0051 B5010000 		.4byte	.LASF3
 653 0055 04       		.uleb128 0x4
 654 0056 08       		.byte	0x8
 655 0057 07       		.byte	0x7
 656 0058 64000000 		.4byte	.LASF4
 657 005c 04       		.uleb128 0x4
 658 005d 01       		.byte	0x1
 659 005e 06       		.byte	0x6
 660 005f B5000000 		.4byte	.LASF5
 661 0063 04       		.uleb128 0x4
 662 0064 02       		.byte	0x2
 663 0065 05       		.byte	0x5
 664 0066 D3030000 		.4byte	.LASF6
 665 006a 06       		.uleb128 0x6
 666 006b 04       		.byte	0x4
 667 006c 05       		.byte	0x5
 668 006d 696E7400 		.ascii	"int\000"
 669 0071 04       		.uleb128 0x4
 670 0072 08       		.byte	0x8
 671 0073 05       		.byte	0x5
 672 0074 A7000000 		.4byte	.LASF7
 673 0078 07       		.uleb128 0x7
 674 0079 07       		.byte	0x7
 675 007a 01       		.byte	0x1
 676 007b 35000000 		.4byte	0x35
 677 007f 02       		.byte	0x2
 678 0080 20       		.byte	0x20
ARM GAS  C:\Users\embedded\AppData\Local\Temp\cc5AaADL.s 			page 16


 679 0081 92000000 		.4byte	0x92
 680 0085 08       		.uleb128 0x8
 681 0086 0C030000 		.4byte	.LASF8
 682 008a 00       		.byte	0
 683 008b 08       		.uleb128 0x8
 684 008c 61040000 		.4byte	.LASF9
 685 0090 01       		.byte	0x1
 686 0091 00       		.byte	0
 687 0092 04       		.uleb128 0x4
 688 0093 04       		.byte	0x4
 689 0094 05       		.byte	0x5
 690 0095 FF000000 		.4byte	.LASF10
 691 0099 04       		.uleb128 0x4
 692 009a 04       		.byte	0x4
 693 009b 07       		.byte	0x7
 694 009c EE010000 		.4byte	.LASF11
 695 00a0 04       		.uleb128 0x4
 696 00a1 08       		.byte	0x8
 697 00a2 04       		.byte	0x4
 698 00a3 A3020000 		.4byte	.LASF12
 699 00a7 09       		.uleb128 0x9
 700 00a8 04       		.byte	0x4
 701 00a9 05       		.uleb128 0x5
 702 00aa 65020000 		.4byte	.LASF13
 703 00ae 03       		.byte	0x3
 704 00af 22       		.byte	0x22
 705 00b0 B4000000 		.4byte	0xb4
 706 00b4 0A       		.uleb128 0xa
 707 00b5 04       		.byte	0x4
 708 00b6 BA000000 		.4byte	0xba
 709 00ba 0B       		.uleb128 0xb
 710 00bb 7B040000 		.4byte	.LASF120
 711 00bf 01       		.byte	0x1
 712 00c0 05       		.uleb128 0x5
 713 00c1 DD020000 		.4byte	.LASF14
 714 00c5 04       		.byte	0x4
 715 00c6 2C       		.byte	0x2c
 716 00c7 92000000 		.4byte	0x92
 717 00cb 05       		.uleb128 0x5
 718 00cc 9C040000 		.4byte	.LASF15
 719 00d0 04       		.byte	0x4
 720 00d1 72       		.byte	0x72
 721 00d2 92000000 		.4byte	0x92
 722 00d6 0C       		.uleb128 0xc
 723 00d7 74020000 		.4byte	.LASF16
 724 00db 05       		.byte	0x5
 725 00dc 6501     		.2byte	0x165
 726 00de 4E000000 		.4byte	0x4e
 727 00e2 0D       		.uleb128 0xd
 728 00e3 04       		.byte	0x4
 729 00e4 04       		.byte	0x4
 730 00e5 A6       		.byte	0xa6
 731 00e6 01010000 		.4byte	0x101
 732 00ea 0E       		.uleb128 0xe
 733 00eb 5F020000 		.4byte	.LASF17
 734 00ef 04       		.byte	0x4
 735 00f0 A8       		.byte	0xa8
ARM GAS  C:\Users\embedded\AppData\Local\Temp\cc5AaADL.s 			page 17


 736 00f1 D6000000 		.4byte	0xd6
 737 00f5 0E       		.uleb128 0xe
 738 00f6 C2010000 		.4byte	.LASF18
 739 00fa 04       		.byte	0x4
 740 00fb A9       		.byte	0xa9
 741 00fc 01010000 		.4byte	0x101
 742 0100 00       		.byte	0
 743 0101 0F       		.uleb128 0xf
 744 0102 35000000 		.4byte	0x35
 745 0106 11010000 		.4byte	0x111
 746 010a 10       		.uleb128 0x10
 747 010b 4E000000 		.4byte	0x4e
 748 010f 03       		.byte	0x3
 749 0110 00       		.byte	0
 750 0111 11       		.uleb128 0x11
 751 0112 08       		.byte	0x8
 752 0113 04       		.byte	0x4
 753 0114 A3       		.byte	0xa3
 754 0115 36010000 		.4byte	0x136
 755 0119 12       		.uleb128 0x12
 756 011a 73040000 		.4byte	.LASF19
 757 011e 04       		.byte	0x4
 758 011f A5       		.byte	0xa5
 759 0120 6A000000 		.4byte	0x6a
 760 0124 02       		.byte	0x2
 761 0125 23       		.byte	0x23
 762 0126 00       		.uleb128 0
 763 0127 12       		.uleb128 0x12
 764 0128 82040000 		.4byte	.LASF20
 765 012c 04       		.byte	0x4
 766 012d AA       		.byte	0xaa
 767 012e E2000000 		.4byte	0xe2
 768 0132 02       		.byte	0x2
 769 0133 23       		.byte	0x23
 770 0134 04       		.uleb128 0x4
 771 0135 00       		.byte	0
 772 0136 05       		.uleb128 0x5
 773 0137 FF030000 		.4byte	.LASF21
 774 013b 04       		.byte	0x4
 775 013c AB       		.byte	0xab
 776 013d 11010000 		.4byte	0x111
 777 0141 05       		.uleb128 0x5
 778 0142 78010000 		.4byte	.LASF22
 779 0146 04       		.byte	0x4
 780 0147 AF       		.byte	0xaf
 781 0148 A9000000 		.4byte	0xa9
 782 014c 05       		.uleb128 0x5
 783 014d 08050000 		.4byte	.LASF23
 784 0151 06       		.byte	0x6
 785 0152 16       		.byte	0x16
 786 0153 99000000 		.4byte	0x99
 787 0157 13       		.uleb128 0x13
 788 0158 89010000 		.4byte	.LASF28
 789 015c 18       		.byte	0x18
 790 015d 06       		.byte	0x6
 791 015e 2F       		.byte	0x2f
 792 015f B6010000 		.4byte	0x1b6
ARM GAS  C:\Users\embedded\AppData\Local\Temp\cc5AaADL.s 			page 18


 793 0163 12       		.uleb128 0x12
 794 0164 D3040000 		.4byte	.LASF24
 795 0168 06       		.byte	0x6
 796 0169 31       		.byte	0x31
 797 016a B6010000 		.4byte	0x1b6
 798 016e 02       		.byte	0x2
 799 016f 23       		.byte	0x23
 800 0170 00       		.uleb128 0
 801 0171 14       		.uleb128 0x14
 802 0172 5F6B00   		.ascii	"_k\000"
 803 0175 06       		.byte	0x6
 804 0176 32       		.byte	0x32
 805 0177 6A000000 		.4byte	0x6a
 806 017b 02       		.byte	0x2
 807 017c 23       		.byte	0x23
 808 017d 04       		.uleb128 0x4
 809 017e 12       		.uleb128 0x12
 810 017f EF040000 		.4byte	.LASF25
 811 0183 06       		.byte	0x6
 812 0184 32       		.byte	0x32
 813 0185 6A000000 		.4byte	0x6a
 814 0189 02       		.byte	0x2
 815 018a 23       		.byte	0x23
 816 018b 08       		.uleb128 0x8
 817 018c 12       		.uleb128 0x12
 818 018d 72010000 		.4byte	.LASF26
 819 0191 06       		.byte	0x6
 820 0192 32       		.byte	0x32
 821 0193 6A000000 		.4byte	0x6a
 822 0197 02       		.byte	0x2
 823 0198 23       		.byte	0x23
 824 0199 0C       		.uleb128 0xc
 825 019a 12       		.uleb128 0x12
 826 019b 3D050000 		.4byte	.LASF27
 827 019f 06       		.byte	0x6
 828 01a0 32       		.byte	0x32
 829 01a1 6A000000 		.4byte	0x6a
 830 01a5 02       		.byte	0x2
 831 01a6 23       		.byte	0x23
 832 01a7 10       		.uleb128 0x10
 833 01a8 14       		.uleb128 0x14
 834 01a9 5F7800   		.ascii	"_x\000"
 835 01ac 06       		.byte	0x6
 836 01ad 33       		.byte	0x33
 837 01ae BC010000 		.4byte	0x1bc
 838 01b2 02       		.byte	0x2
 839 01b3 23       		.byte	0x23
 840 01b4 14       		.uleb128 0x14
 841 01b5 00       		.byte	0
 842 01b6 0A       		.uleb128 0xa
 843 01b7 04       		.byte	0x4
 844 01b8 57010000 		.4byte	0x157
 845 01bc 0F       		.uleb128 0xf
 846 01bd 4C010000 		.4byte	0x14c
 847 01c1 CC010000 		.4byte	0x1cc
 848 01c5 10       		.uleb128 0x10
 849 01c6 4E000000 		.4byte	0x4e
ARM GAS  C:\Users\embedded\AppData\Local\Temp\cc5AaADL.s 			page 19


 850 01ca 00       		.byte	0
 851 01cb 00       		.byte	0
 852 01cc 13       		.uleb128 0x13
 853 01cd B0010000 		.4byte	.LASF29
 854 01d1 24       		.byte	0x24
 855 01d2 06       		.byte	0x6
 856 01d3 37       		.byte	0x37
 857 01d4 57020000 		.4byte	0x257
 858 01d8 12       		.uleb128 0x12
 859 01d9 9E000000 		.4byte	.LASF30
 860 01dd 06       		.byte	0x6
 861 01de 39       		.byte	0x39
 862 01df 6A000000 		.4byte	0x6a
 863 01e3 02       		.byte	0x2
 864 01e4 23       		.byte	0x23
 865 01e5 00       		.uleb128 0
 866 01e6 12       		.uleb128 0x12
 867 01e7 B8040000 		.4byte	.LASF31
 868 01eb 06       		.byte	0x6
 869 01ec 3A       		.byte	0x3a
 870 01ed 6A000000 		.4byte	0x6a
 871 01f1 02       		.byte	0x2
 872 01f2 23       		.byte	0x23
 873 01f3 04       		.uleb128 0x4
 874 01f4 12       		.uleb128 0x12
 875 01f5 CD000000 		.4byte	.LASF32
 876 01f9 06       		.byte	0x6
 877 01fa 3B       		.byte	0x3b
 878 01fb 6A000000 		.4byte	0x6a
 879 01ff 02       		.byte	0x2
 880 0200 23       		.byte	0x23
 881 0201 08       		.uleb128 0x8
 882 0202 12       		.uleb128 0x12
 883 0203 D2050000 		.4byte	.LASF33
 884 0207 06       		.byte	0x6
 885 0208 3C       		.byte	0x3c
 886 0209 6A000000 		.4byte	0x6a
 887 020d 02       		.byte	0x2
 888 020e 23       		.byte	0x23
 889 020f 0C       		.uleb128 0xc
 890 0210 12       		.uleb128 0x12
 891 0211 C1020000 		.4byte	.LASF34
 892 0215 06       		.byte	0x6
 893 0216 3D       		.byte	0x3d
 894 0217 6A000000 		.4byte	0x6a
 895 021b 02       		.byte	0x2
 896 021c 23       		.byte	0x23
 897 021d 10       		.uleb128 0x10
 898 021e 12       		.uleb128 0x12
 899 021f 99020000 		.4byte	.LASF35
 900 0223 06       		.byte	0x6
 901 0224 3E       		.byte	0x3e
 902 0225 6A000000 		.4byte	0x6a
 903 0229 02       		.byte	0x2
 904 022a 23       		.byte	0x23
 905 022b 14       		.uleb128 0x14
 906 022c 12       		.uleb128 0x12
ARM GAS  C:\Users\embedded\AppData\Local\Temp\cc5AaADL.s 			page 20


 907 022d 42050000 		.4byte	.LASF36
 908 0231 06       		.byte	0x6
 909 0232 3F       		.byte	0x3f
 910 0233 6A000000 		.4byte	0x6a
 911 0237 02       		.byte	0x2
 912 0238 23       		.byte	0x23
 913 0239 18       		.uleb128 0x18
 914 023a 12       		.uleb128 0x12
 915 023b DD030000 		.4byte	.LASF37
 916 023f 06       		.byte	0x6
 917 0240 40       		.byte	0x40
 918 0241 6A000000 		.4byte	0x6a
 919 0245 02       		.byte	0x2
 920 0246 23       		.byte	0x23
 921 0247 1C       		.uleb128 0x1c
 922 0248 12       		.uleb128 0x12
 923 0249 7D050000 		.4byte	.LASF38
 924 024d 06       		.byte	0x6
 925 024e 41       		.byte	0x41
 926 024f 6A000000 		.4byte	0x6a
 927 0253 02       		.byte	0x2
 928 0254 23       		.byte	0x23
 929 0255 20       		.uleb128 0x20
 930 0256 00       		.byte	0
 931 0257 15       		.uleb128 0x15
 932 0258 DC000000 		.4byte	.LASF39
 933 025c 0801     		.2byte	0x108
 934 025e 06       		.byte	0x6
 935 025f 4A       		.byte	0x4a
 936 0260 A0020000 		.4byte	0x2a0
 937 0264 12       		.uleb128 0x12
 938 0265 65010000 		.4byte	.LASF40
 939 0269 06       		.byte	0x6
 940 026a 4B       		.byte	0x4b
 941 026b A0020000 		.4byte	0x2a0
 942 026f 02       		.byte	0x2
 943 0270 23       		.byte	0x23
 944 0271 00       		.uleb128 0
 945 0272 12       		.uleb128 0x12
 946 0273 00000000 		.4byte	.LASF41
 947 0277 06       		.byte	0x6
 948 0278 4C       		.byte	0x4c
 949 0279 A0020000 		.4byte	0x2a0
 950 027d 03       		.byte	0x3
 951 027e 23       		.byte	0x23
 952 027f 8001     		.uleb128 0x80
 953 0281 12       		.uleb128 0x12
 954 0282 E6040000 		.4byte	.LASF42
 955 0286 06       		.byte	0x6
 956 0287 4E       		.byte	0x4e
 957 0288 4C010000 		.4byte	0x14c
 958 028c 03       		.byte	0x3
 959 028d 23       		.byte	0x23
 960 028e 8002     		.uleb128 0x100
 961 0290 12       		.uleb128 0x12
 962 0291 0F010000 		.4byte	.LASF43
 963 0295 06       		.byte	0x6
ARM GAS  C:\Users\embedded\AppData\Local\Temp\cc5AaADL.s 			page 21


 964 0296 51       		.byte	0x51
 965 0297 4C010000 		.4byte	0x14c
 966 029b 03       		.byte	0x3
 967 029c 23       		.byte	0x23
 968 029d 8402     		.uleb128 0x104
 969 029f 00       		.byte	0
 970 02a0 0F       		.uleb128 0xf
 971 02a1 A7000000 		.4byte	0xa7
 972 02a5 B0020000 		.4byte	0x2b0
 973 02a9 10       		.uleb128 0x10
 974 02aa 4E000000 		.4byte	0x4e
 975 02ae 1F       		.byte	0x1f
 976 02af 00       		.byte	0
 977 02b0 15       		.uleb128 0x15
 978 02b1 CA020000 		.4byte	.LASF44
 979 02b5 9001     		.2byte	0x190
 980 02b7 06       		.byte	0x6
 981 02b8 5D       		.byte	0x5d
 982 02b9 F7020000 		.4byte	0x2f7
 983 02bd 12       		.uleb128 0x12
 984 02be D3040000 		.4byte	.LASF24
 985 02c2 06       		.byte	0x6
 986 02c3 5E       		.byte	0x5e
 987 02c4 F7020000 		.4byte	0x2f7
 988 02c8 02       		.byte	0x2
 989 02c9 23       		.byte	0x23
 990 02ca 00       		.uleb128 0
 991 02cb 12       		.uleb128 0x12
 992 02cc 31040000 		.4byte	.LASF45
 993 02d0 06       		.byte	0x6
 994 02d1 5F       		.byte	0x5f
 995 02d2 6A000000 		.4byte	0x6a
 996 02d6 02       		.byte	0x2
 997 02d7 23       		.byte	0x23
 998 02d8 04       		.uleb128 0x4
 999 02d9 12       		.uleb128 0x12
 1000 02da 6D010000 		.4byte	.LASF46
 1001 02de 06       		.byte	0x6
 1002 02df 61       		.byte	0x61
 1003 02e0 FD020000 		.4byte	0x2fd
 1004 02e4 02       		.byte	0x2
 1005 02e5 23       		.byte	0x23
 1006 02e6 08       		.uleb128 0x8
 1007 02e7 12       		.uleb128 0x12
 1008 02e8 DC000000 		.4byte	.LASF39
 1009 02ec 06       		.byte	0x6
 1010 02ed 62       		.byte	0x62
 1011 02ee 57020000 		.4byte	0x257
 1012 02f2 03       		.byte	0x3
 1013 02f3 23       		.byte	0x23
 1014 02f4 8801     		.uleb128 0x88
 1015 02f6 00       		.byte	0
 1016 02f7 0A       		.uleb128 0xa
 1017 02f8 04       		.byte	0x4
 1018 02f9 B0020000 		.4byte	0x2b0
 1019 02fd 0F       		.uleb128 0xf
 1020 02fe 0D030000 		.4byte	0x30d
ARM GAS  C:\Users\embedded\AppData\Local\Temp\cc5AaADL.s 			page 22


 1021 0302 0D030000 		.4byte	0x30d
 1022 0306 10       		.uleb128 0x10
 1023 0307 4E000000 		.4byte	0x4e
 1024 030b 1F       		.byte	0x1f
 1025 030c 00       		.byte	0
 1026 030d 0A       		.uleb128 0xa
 1027 030e 04       		.byte	0x4
 1028 030f 13030000 		.4byte	0x313
 1029 0313 16       		.uleb128 0x16
 1030 0314 01       		.byte	0x1
 1031 0315 13       		.uleb128 0x13
 1032 0316 E7030000 		.4byte	.LASF47
 1033 031a 08       		.byte	0x8
 1034 031b 06       		.byte	0x6
 1035 031c 75       		.byte	0x75
 1036 031d 3E030000 		.4byte	0x33e
 1037 0321 12       		.uleb128 0x12
 1038 0322 C7000000 		.4byte	.LASF48
 1039 0326 06       		.byte	0x6
 1040 0327 76       		.byte	0x76
 1041 0328 3E030000 		.4byte	0x33e
 1042 032c 02       		.byte	0x2
 1043 032d 23       		.byte	0x23
 1044 032e 00       		.uleb128 0
 1045 032f 12       		.uleb128 0x12
 1046 0330 1B000000 		.4byte	.LASF49
 1047 0334 06       		.byte	0x6
 1048 0335 77       		.byte	0x77
 1049 0336 6A000000 		.4byte	0x6a
 1050 033a 02       		.byte	0x2
 1051 033b 23       		.byte	0x23
 1052 033c 04       		.uleb128 0x4
 1053 033d 00       		.byte	0
 1054 033e 0A       		.uleb128 0xa
 1055 033f 04       		.byte	0x4
 1056 0340 35000000 		.4byte	0x35
 1057 0344 13       		.uleb128 0x13
 1058 0345 0A040000 		.4byte	.LASF50
 1059 0349 68       		.byte	0x68
 1060 034a 06       		.byte	0x6
 1061 034b B5       		.byte	0xb5
 1062 034c 9E040000 		.4byte	0x49e
 1063 0350 14       		.uleb128 0x14
 1064 0351 5F7000   		.ascii	"_p\000"
 1065 0354 06       		.byte	0x6
 1066 0355 B6       		.byte	0xb6
 1067 0356 3E030000 		.4byte	0x33e
 1068 035a 02       		.byte	0x2
 1069 035b 23       		.byte	0x23
 1070 035c 00       		.uleb128 0
 1071 035d 14       		.uleb128 0x14
 1072 035e 5F7200   		.ascii	"_r\000"
 1073 0361 06       		.byte	0x6
 1074 0362 B7       		.byte	0xb7
 1075 0363 6A000000 		.4byte	0x6a
 1076 0367 02       		.byte	0x2
 1077 0368 23       		.byte	0x23
ARM GAS  C:\Users\embedded\AppData\Local\Temp\cc5AaADL.s 			page 23


 1078 0369 04       		.uleb128 0x4
 1079 036a 14       		.uleb128 0x14
 1080 036b 5F7700   		.ascii	"_w\000"
 1081 036e 06       		.byte	0x6
 1082 036f B8       		.byte	0xb8
 1083 0370 6A000000 		.4byte	0x6a
 1084 0374 02       		.byte	0x2
 1085 0375 23       		.byte	0x23
 1086 0376 08       		.uleb128 0x8
 1087 0377 12       		.uleb128 0x12
 1088 0378 08010000 		.4byte	.LASF51
 1089 037c 06       		.byte	0x6
 1090 037d B9       		.byte	0xb9
 1091 037e 63000000 		.4byte	0x63
 1092 0382 02       		.byte	0x2
 1093 0383 23       		.byte	0x23
 1094 0384 0C       		.uleb128 0xc
 1095 0385 12       		.uleb128 0x12
 1096 0386 00020000 		.4byte	.LASF52
 1097 038a 06       		.byte	0x6
 1098 038b BA       		.byte	0xba
 1099 038c 63000000 		.4byte	0x63
 1100 0390 02       		.byte	0x2
 1101 0391 23       		.byte	0x23
 1102 0392 0E       		.uleb128 0xe
 1103 0393 14       		.uleb128 0x14
 1104 0394 5F626600 		.ascii	"_bf\000"
 1105 0398 06       		.byte	0x6
 1106 0399 BB       		.byte	0xbb
 1107 039a 15030000 		.4byte	0x315
 1108 039e 02       		.byte	0x2
 1109 039f 23       		.byte	0x23
 1110 03a0 10       		.uleb128 0x10
 1111 03a1 12       		.uleb128 0x12
 1112 03a2 7B000000 		.4byte	.LASF53
 1113 03a6 06       		.byte	0x6
 1114 03a7 BC       		.byte	0xbc
 1115 03a8 6A000000 		.4byte	0x6a
 1116 03ac 02       		.byte	0x2
 1117 03ad 23       		.byte	0x23
 1118 03ae 18       		.uleb128 0x18
 1119 03af 12       		.uleb128 0x12
 1120 03b0 EA000000 		.4byte	.LASF54
 1121 03b4 06       		.byte	0x6
 1122 03b5 C3       		.byte	0xc3
 1123 03b6 A7000000 		.4byte	0xa7
 1124 03ba 02       		.byte	0x2
 1125 03bb 23       		.byte	0x23
 1126 03bc 1C       		.uleb128 0x1c
 1127 03bd 12       		.uleb128 0x12
 1128 03be A0010000 		.4byte	.LASF55
 1129 03c2 06       		.byte	0x6
 1130 03c3 C5       		.byte	0xc5
 1131 03c4 38060000 		.4byte	0x638
 1132 03c8 02       		.byte	0x2
 1133 03c9 23       		.byte	0x23
 1134 03ca 20       		.uleb128 0x20
ARM GAS  C:\Users\embedded\AppData\Local\Temp\cc5AaADL.s 			page 24


 1135 03cb 12       		.uleb128 0x12
 1136 03cc 92020000 		.4byte	.LASF56
 1137 03d0 06       		.byte	0x6
 1138 03d1 C7       		.byte	0xc7
 1139 03d2 63060000 		.4byte	0x663
 1140 03d6 02       		.byte	0x2
 1141 03d7 23       		.byte	0x23
 1142 03d8 24       		.uleb128 0x24
 1143 03d9 12       		.uleb128 0x12
 1144 03da 8A040000 		.4byte	.LASF57
 1145 03de 06       		.byte	0x6
 1146 03df CA       		.byte	0xca
 1147 03e0 88060000 		.4byte	0x688
 1148 03e4 02       		.byte	0x2
 1149 03e5 23       		.byte	0x23
 1150 03e6 28       		.uleb128 0x28
 1151 03e7 12       		.uleb128 0x12
 1152 03e8 97050000 		.4byte	.LASF58
 1153 03ec 06       		.byte	0x6
 1154 03ed CB       		.byte	0xcb
 1155 03ee A3060000 		.4byte	0x6a3
 1156 03f2 02       		.byte	0x2
 1157 03f3 23       		.byte	0x23
 1158 03f4 2C       		.uleb128 0x2c
 1159 03f5 14       		.uleb128 0x14
 1160 03f6 5F756200 		.ascii	"_ub\000"
 1161 03fa 06       		.byte	0x6
 1162 03fb CE       		.byte	0xce
 1163 03fc 15030000 		.4byte	0x315
 1164 0400 02       		.byte	0x2
 1165 0401 23       		.byte	0x23
 1166 0402 30       		.uleb128 0x30
 1167 0403 14       		.uleb128 0x14
 1168 0404 5F757000 		.ascii	"_up\000"
 1169 0408 06       		.byte	0x6
 1170 0409 CF       		.byte	0xcf
 1171 040a 3E030000 		.4byte	0x33e
 1172 040e 02       		.byte	0x2
 1173 040f 23       		.byte	0x23
 1174 0410 38       		.uleb128 0x38
 1175 0411 14       		.uleb128 0x14
 1176 0412 5F757200 		.ascii	"_ur\000"
 1177 0416 06       		.byte	0x6
 1178 0417 D0       		.byte	0xd0
 1179 0418 6A000000 		.4byte	0x6a
 1180 041c 02       		.byte	0x2
 1181 041d 23       		.byte	0x23
 1182 041e 3C       		.uleb128 0x3c
 1183 041f 12       		.uleb128 0x12
 1184 0420 C1000000 		.4byte	.LASF59
 1185 0424 06       		.byte	0x6
 1186 0425 D3       		.byte	0xd3
 1187 0426 A9060000 		.4byte	0x6a9
 1188 042a 02       		.byte	0x2
 1189 042b 23       		.byte	0x23
 1190 042c 40       		.uleb128 0x40
 1191 042d 12       		.uleb128 0x12
ARM GAS  C:\Users\embedded\AppData\Local\Temp\cc5AaADL.s 			page 25


 1192 042e 6F050000 		.4byte	.LASF60
 1193 0432 06       		.byte	0x6
 1194 0433 D4       		.byte	0xd4
 1195 0434 B9060000 		.4byte	0x6b9
 1196 0438 02       		.byte	0x2
 1197 0439 23       		.byte	0x23
 1198 043a 43       		.uleb128 0x43
 1199 043b 14       		.uleb128 0x14
 1200 043c 5F6C6200 		.ascii	"_lb\000"
 1201 0440 06       		.byte	0x6
 1202 0441 D7       		.byte	0xd7
 1203 0442 15030000 		.4byte	0x315
 1204 0446 02       		.byte	0x2
 1205 0447 23       		.byte	0x23
 1206 0448 44       		.uleb128 0x44
 1207 0449 12       		.uleb128 0x12
 1208 044a 2D010000 		.4byte	.LASF61
 1209 044e 06       		.byte	0x6
 1210 044f DA       		.byte	0xda
 1211 0450 6A000000 		.4byte	0x6a
 1212 0454 02       		.byte	0x2
 1213 0455 23       		.byte	0x23
 1214 0456 4C       		.uleb128 0x4c
 1215 0457 12       		.uleb128 0x12
 1216 0458 3E010000 		.4byte	.LASF62
 1217 045c 06       		.byte	0x6
 1218 045d DB       		.byte	0xdb
 1219 045e C0000000 		.4byte	0xc0
 1220 0462 02       		.byte	0x2
 1221 0463 23       		.byte	0x23
 1222 0464 50       		.uleb128 0x50
 1223 0465 12       		.uleb128 0x12
 1224 0466 3E000000 		.4byte	.LASF63
 1225 046a 06       		.byte	0x6
 1226 046b DE       		.byte	0xde
 1227 046c BD040000 		.4byte	0x4bd
 1228 0470 02       		.byte	0x2
 1229 0471 23       		.byte	0x23
 1230 0472 54       		.uleb128 0x54
 1231 0473 12       		.uleb128 0x12
 1232 0474 7B020000 		.4byte	.LASF64
 1233 0478 06       		.byte	0x6
 1234 0479 E2       		.byte	0xe2
 1235 047a 41010000 		.4byte	0x141
 1236 047e 02       		.byte	0x2
 1237 047f 23       		.byte	0x23
 1238 0480 58       		.uleb128 0x58
 1239 0481 12       		.uleb128 0x12
 1240 0482 12040000 		.4byte	.LASF65
 1241 0486 06       		.byte	0x6
 1242 0487 E4       		.byte	0xe4
 1243 0488 36010000 		.4byte	0x136
 1244 048c 02       		.byte	0x2
 1245 048d 23       		.byte	0x23
 1246 048e 5C       		.uleb128 0x5c
 1247 048f 12       		.uleb128 0x12
 1248 0490 81020000 		.4byte	.LASF66
ARM GAS  C:\Users\embedded\AppData\Local\Temp\cc5AaADL.s 			page 26


 1249 0494 06       		.byte	0x6
 1250 0495 E5       		.byte	0xe5
 1251 0496 6A000000 		.4byte	0x6a
 1252 049a 02       		.byte	0x2
 1253 049b 23       		.byte	0x23
 1254 049c 64       		.uleb128 0x64
 1255 049d 00       		.byte	0
 1256 049e 17       		.uleb128 0x17
 1257 049f 01       		.byte	0x1
 1258 04a0 6A000000 		.4byte	0x6a
 1259 04a4 BD040000 		.4byte	0x4bd
 1260 04a8 18       		.uleb128 0x18
 1261 04a9 BD040000 		.4byte	0x4bd
 1262 04ad 18       		.uleb128 0x18
 1263 04ae A7000000 		.4byte	0xa7
 1264 04b2 18       		.uleb128 0x18
 1265 04b3 26060000 		.4byte	0x626
 1266 04b7 18       		.uleb128 0x18
 1267 04b8 6A000000 		.4byte	0x6a
 1268 04bc 00       		.byte	0
 1269 04bd 0A       		.uleb128 0xa
 1270 04be 04       		.byte	0x4
 1271 04bf C8040000 		.4byte	0x4c8
 1272 04c3 03       		.uleb128 0x3
 1273 04c4 BD040000 		.4byte	0x4bd
 1274 04c8 19       		.uleb128 0x19
 1275 04c9 66040000 		.4byte	.LASF67
 1276 04cd 2804     		.2byte	0x428
 1277 04cf 06       		.byte	0x6
 1278 04d0 6002     		.2byte	0x260
 1279 04d2 26060000 		.4byte	0x626
 1280 04d6 1A       		.uleb128 0x1a
 1281 04d7 A4040000 		.4byte	.LASF68
 1282 04db 06       		.byte	0x6
 1283 04dc 6202     		.2byte	0x262
 1284 04de 6A000000 		.4byte	0x6a
 1285 04e2 02       		.byte	0x2
 1286 04e3 23       		.byte	0x23
 1287 04e4 00       		.uleb128 0
 1288 04e5 1A       		.uleb128 0x1a
 1289 04e6 17010000 		.4byte	.LASF69
 1290 04ea 06       		.byte	0x6
 1291 04eb 6702     		.2byte	0x267
 1292 04ed 16070000 		.4byte	0x716
 1293 04f1 02       		.byte	0x2
 1294 04f2 23       		.byte	0x23
 1295 04f3 04       		.uleb128 0x4
 1296 04f4 1A       		.uleb128 0x1a
 1297 04f5 D5010000 		.4byte	.LASF70
 1298 04f9 06       		.byte	0x6
 1299 04fa 6702     		.2byte	0x267
 1300 04fc 16070000 		.4byte	0x716
 1301 0500 02       		.byte	0x2
 1302 0501 23       		.byte	0x23
 1303 0502 08       		.uleb128 0x8
 1304 0503 1A       		.uleb128 0x1a
 1305 0504 81010000 		.4byte	.LASF71
ARM GAS  C:\Users\embedded\AppData\Local\Temp\cc5AaADL.s 			page 27


 1306 0508 06       		.byte	0x6
 1307 0509 6702     		.2byte	0x267
 1308 050b 16070000 		.4byte	0x716
 1309 050f 02       		.byte	0x2
 1310 0510 23       		.byte	0x23
 1311 0511 0C       		.uleb128 0xc
 1312 0512 1A       		.uleb128 0x1a
 1313 0513 2C040000 		.4byte	.LASF72
 1314 0517 06       		.byte	0x6
 1315 0518 6902     		.2byte	0x269
 1316 051a 6A000000 		.4byte	0x6a
 1317 051e 02       		.byte	0x2
 1318 051f 23       		.byte	0x23
 1319 0520 10       		.uleb128 0x10
 1320 0521 1A       		.uleb128 0x1a
 1321 0522 29000000 		.4byte	.LASF73
 1322 0526 06       		.byte	0x6
 1323 0527 6A02     		.2byte	0x26a
 1324 0529 31090000 		.4byte	0x931
 1325 052d 02       		.byte	0x2
 1326 052e 23       		.byte	0x23
 1327 052f 14       		.uleb128 0x14
 1328 0530 1A       		.uleb128 0x1a
 1329 0531 48040000 		.4byte	.LASF74
 1330 0535 06       		.byte	0x6
 1331 0536 6D02     		.2byte	0x26d
 1332 0538 6A000000 		.4byte	0x6a
 1333 053c 02       		.byte	0x2
 1334 053d 23       		.byte	0x23
 1335 053e 30       		.uleb128 0x30
 1336 053f 1A       		.uleb128 0x1a
 1337 0540 36040000 		.4byte	.LASF75
 1338 0544 06       		.byte	0x6
 1339 0545 6E02     		.2byte	0x26e
 1340 0547 47090000 		.4byte	0x947
 1341 054b 02       		.byte	0x2
 1342 054c 23       		.byte	0x23
 1343 054d 34       		.uleb128 0x34
 1344 054e 1A       		.uleb128 0x1a
 1345 054f D2020000 		.4byte	.LASF76
 1346 0553 06       		.byte	0x6
 1347 0554 7002     		.2byte	0x270
 1348 0556 6A000000 		.4byte	0x6a
 1349 055a 02       		.byte	0x2
 1350 055b 23       		.byte	0x23
 1351 055c 38       		.uleb128 0x38
 1352 055d 1A       		.uleb128 0x1a
 1353 055e 3E040000 		.4byte	.LASF77
 1354 0562 06       		.byte	0x6
 1355 0563 7202     		.2byte	0x272
 1356 0565 59090000 		.4byte	0x959
 1357 0569 02       		.byte	0x2
 1358 056a 23       		.byte	0x23
 1359 056b 3C       		.uleb128 0x3c
 1360 056c 1A       		.uleb128 0x1a
 1361 056d 57020000 		.4byte	.LASF78
 1362 0571 06       		.byte	0x6
ARM GAS  C:\Users\embedded\AppData\Local\Temp\cc5AaADL.s 			page 28


 1363 0572 7502     		.2byte	0x275
 1364 0574 B6010000 		.4byte	0x1b6
 1365 0578 02       		.byte	0x2
 1366 0579 23       		.byte	0x23
 1367 057a 40       		.uleb128 0x40
 1368 057b 1A       		.uleb128 0x1a
 1369 057c A6010000 		.4byte	.LASF79
 1370 0580 06       		.byte	0x6
 1371 0581 7602     		.2byte	0x276
 1372 0583 6A000000 		.4byte	0x6a
 1373 0587 02       		.byte	0x2
 1374 0588 23       		.byte	0x23
 1375 0589 44       		.uleb128 0x44
 1376 058a 1A       		.uleb128 0x1a
 1377 058b C8050000 		.4byte	.LASF80
 1378 058f 06       		.byte	0x6
 1379 0590 7702     		.2byte	0x277
 1380 0592 B6010000 		.4byte	0x1b6
 1381 0596 02       		.byte	0x2
 1382 0597 23       		.byte	0x23
 1383 0598 48       		.uleb128 0x48
 1384 0599 1A       		.uleb128 0x1a
 1385 059a EE030000 		.4byte	.LASF81
 1386 059e 06       		.byte	0x6
 1387 059f 7802     		.2byte	0x278
 1388 05a1 5F090000 		.4byte	0x95f
 1389 05a5 02       		.byte	0x2
 1390 05a6 23       		.byte	0x23
 1391 05a7 4C       		.uleb128 0x4c
 1392 05a8 1A       		.uleb128 0x1a
 1393 05a9 DD010000 		.4byte	.LASF82
 1394 05ad 06       		.byte	0x6
 1395 05ae 7B02     		.2byte	0x27b
 1396 05b0 6A000000 		.4byte	0x6a
 1397 05b4 02       		.byte	0x2
 1398 05b5 23       		.byte	0x23
 1399 05b6 50       		.uleb128 0x50
 1400 05b7 1A       		.uleb128 0x1a
 1401 05b8 36010000 		.4byte	.LASF83
 1402 05bc 06       		.byte	0x6
 1403 05bd 7C02     		.2byte	0x27c
 1404 05bf 26060000 		.4byte	0x626
 1405 05c3 02       		.byte	0x2
 1406 05c4 23       		.byte	0x23
 1407 05c5 54       		.uleb128 0x54
 1408 05c6 1A       		.uleb128 0x1a
 1409 05c7 C5030000 		.4byte	.LASF84
 1410 05cb 06       		.byte	0x6
 1411 05cc 9F02     		.2byte	0x29f
 1412 05ce 0F090000 		.4byte	0x90f
 1413 05d2 02       		.byte	0x2
 1414 05d3 23       		.byte	0x23
 1415 05d4 58       		.uleb128 0x58
 1416 05d5 1A       		.uleb128 0x1a
 1417 05d6 CA020000 		.4byte	.LASF44
 1418 05da 06       		.byte	0x6
 1419 05db A302     		.2byte	0x2a3
ARM GAS  C:\Users\embedded\AppData\Local\Temp\cc5AaADL.s 			page 29


 1420 05dd F7020000 		.4byte	0x2f7
 1421 05e1 03       		.byte	0x3
 1422 05e2 23       		.byte	0x23
 1423 05e3 C802     		.uleb128 0x148
 1424 05e5 1A       		.uleb128 0x1a
 1425 05e6 20020000 		.4byte	.LASF85
 1426 05ea 06       		.byte	0x6
 1427 05eb A402     		.2byte	0x2a4
 1428 05ed B0020000 		.4byte	0x2b0
 1429 05f1 03       		.byte	0x3
 1430 05f2 23       		.byte	0x23
 1431 05f3 CC02     		.uleb128 0x14c
 1432 05f5 1A       		.uleb128 0x1a
 1433 05f6 65050000 		.4byte	.LASF86
 1434 05fa 06       		.byte	0x6
 1435 05fb A802     		.2byte	0x2a8
 1436 05fd 71090000 		.4byte	0x971
 1437 0601 03       		.byte	0x3
 1438 0602 23       		.byte	0x23
 1439 0603 DC05     		.uleb128 0x2dc
 1440 0605 1A       		.uleb128 0x1a
 1441 0606 F2000000 		.4byte	.LASF87
 1442 060a 06       		.byte	0x6
 1443 060b AD02     		.2byte	0x2ad
 1444 060d D5060000 		.4byte	0x6d5
 1445 0611 03       		.byte	0x3
 1446 0612 23       		.byte	0x23
 1447 0613 E005     		.uleb128 0x2e0
 1448 0615 1A       		.uleb128 0x1a
 1449 0616 D7000000 		.4byte	.LASF88
 1450 061a 06       		.byte	0x6
 1451 061b AF02     		.2byte	0x2af
 1452 061d 7D090000 		.4byte	0x97d
 1453 0621 03       		.byte	0x3
 1454 0622 23       		.byte	0x23
 1455 0623 EC05     		.uleb128 0x2ec
 1456 0625 00       		.byte	0
 1457 0626 0A       		.uleb128 0xa
 1458 0627 04       		.byte	0x4
 1459 0628 2C060000 		.4byte	0x62c
 1460 062c 04       		.uleb128 0x4
 1461 062d 01       		.byte	0x1
 1462 062e 08       		.byte	0x8
 1463 062f AB040000 		.4byte	.LASF89
 1464 0633 03       		.uleb128 0x3
 1465 0634 2C060000 		.4byte	0x62c
 1466 0638 0A       		.uleb128 0xa
 1467 0639 04       		.byte	0x4
 1468 063a 9E040000 		.4byte	0x49e
 1469 063e 17       		.uleb128 0x17
 1470 063f 01       		.byte	0x1
 1471 0640 6A000000 		.4byte	0x6a
 1472 0644 5D060000 		.4byte	0x65d
 1473 0648 18       		.uleb128 0x18
 1474 0649 BD040000 		.4byte	0x4bd
 1475 064d 18       		.uleb128 0x18
 1476 064e A7000000 		.4byte	0xa7
ARM GAS  C:\Users\embedded\AppData\Local\Temp\cc5AaADL.s 			page 30


 1477 0652 18       		.uleb128 0x18
 1478 0653 5D060000 		.4byte	0x65d
 1479 0657 18       		.uleb128 0x18
 1480 0658 6A000000 		.4byte	0x6a
 1481 065c 00       		.byte	0
 1482 065d 0A       		.uleb128 0xa
 1483 065e 04       		.byte	0x4
 1484 065f 33060000 		.4byte	0x633
 1485 0663 0A       		.uleb128 0xa
 1486 0664 04       		.byte	0x4
 1487 0665 3E060000 		.4byte	0x63e
 1488 0669 17       		.uleb128 0x17
 1489 066a 01       		.byte	0x1
 1490 066b CB000000 		.4byte	0xcb
 1491 066f 88060000 		.4byte	0x688
 1492 0673 18       		.uleb128 0x18
 1493 0674 BD040000 		.4byte	0x4bd
 1494 0678 18       		.uleb128 0x18
 1495 0679 A7000000 		.4byte	0xa7
 1496 067d 18       		.uleb128 0x18
 1497 067e CB000000 		.4byte	0xcb
 1498 0682 18       		.uleb128 0x18
 1499 0683 6A000000 		.4byte	0x6a
 1500 0687 00       		.byte	0
 1501 0688 0A       		.uleb128 0xa
 1502 0689 04       		.byte	0x4
 1503 068a 69060000 		.4byte	0x669
 1504 068e 17       		.uleb128 0x17
 1505 068f 01       		.byte	0x1
 1506 0690 6A000000 		.4byte	0x6a
 1507 0694 A3060000 		.4byte	0x6a3
 1508 0698 18       		.uleb128 0x18
 1509 0699 BD040000 		.4byte	0x4bd
 1510 069d 18       		.uleb128 0x18
 1511 069e A7000000 		.4byte	0xa7
 1512 06a2 00       		.byte	0
 1513 06a3 0A       		.uleb128 0xa
 1514 06a4 04       		.byte	0x4
 1515 06a5 8E060000 		.4byte	0x68e
 1516 06a9 0F       		.uleb128 0xf
 1517 06aa 35000000 		.4byte	0x35
 1518 06ae B9060000 		.4byte	0x6b9
 1519 06b2 10       		.uleb128 0x10
 1520 06b3 4E000000 		.4byte	0x4e
 1521 06b7 02       		.byte	0x2
 1522 06b8 00       		.byte	0
 1523 06b9 0F       		.uleb128 0xf
 1524 06ba 35000000 		.4byte	0x35
 1525 06be C9060000 		.4byte	0x6c9
 1526 06c2 10       		.uleb128 0x10
 1527 06c3 4E000000 		.4byte	0x4e
 1528 06c7 00       		.byte	0
 1529 06c8 00       		.byte	0
 1530 06c9 0C       		.uleb128 0xc
 1531 06ca F8030000 		.4byte	.LASF90
 1532 06ce 06       		.byte	0x6
 1533 06cf 1F01     		.2byte	0x11f
ARM GAS  C:\Users\embedded\AppData\Local\Temp\cc5AaADL.s 			page 31


 1534 06d1 44030000 		.4byte	0x344
 1535 06d5 1B       		.uleb128 0x1b
 1536 06d6 4C050000 		.4byte	.LASF91
 1537 06da 0C       		.byte	0xc
 1538 06db 06       		.byte	0x6
 1539 06dc 2301     		.2byte	0x123
 1540 06de 10070000 		.4byte	0x710
 1541 06e2 1A       		.uleb128 0x1a
 1542 06e3 D3040000 		.4byte	.LASF24
 1543 06e7 06       		.byte	0x6
 1544 06e8 2501     		.2byte	0x125
 1545 06ea 10070000 		.4byte	0x710
 1546 06ee 02       		.byte	0x2
 1547 06ef 23       		.byte	0x23
 1548 06f0 00       		.uleb128 0
 1549 06f1 1A       		.uleb128 0x1a
 1550 06f2 06020000 		.4byte	.LASF92
 1551 06f6 06       		.byte	0x6
 1552 06f7 2601     		.2byte	0x126
 1553 06f9 6A000000 		.4byte	0x6a
 1554 06fd 02       		.byte	0x2
 1555 06fe 23       		.byte	0x23
 1556 06ff 04       		.uleb128 0x4
 1557 0700 1A       		.uleb128 0x1a
 1558 0701 26040000 		.4byte	.LASF93
 1559 0705 06       		.byte	0x6
 1560 0706 2701     		.2byte	0x127
 1561 0708 16070000 		.4byte	0x716
 1562 070c 02       		.byte	0x2
 1563 070d 23       		.byte	0x23
 1564 070e 08       		.uleb128 0x8
 1565 070f 00       		.byte	0
 1566 0710 0A       		.uleb128 0xa
 1567 0711 04       		.byte	0x4
 1568 0712 D5060000 		.4byte	0x6d5
 1569 0716 0A       		.uleb128 0xa
 1570 0717 04       		.byte	0x4
 1571 0718 C9060000 		.4byte	0x6c9
 1572 071c 1B       		.uleb128 0x1b
 1573 071d 21000000 		.4byte	.LASF94
 1574 0721 0E       		.byte	0xe
 1575 0722 06       		.byte	0x6
 1576 0723 3F01     		.2byte	0x13f
 1577 0725 57070000 		.4byte	0x757
 1578 0729 1A       		.uleb128 0x1a
 1579 072a 6D040000 		.4byte	.LASF95
 1580 072e 06       		.byte	0x6
 1581 072f 4001     		.2byte	0x140
 1582 0731 57070000 		.4byte	0x757
 1583 0735 02       		.byte	0x2
 1584 0736 23       		.byte	0x23
 1585 0737 00       		.uleb128 0
 1586 0738 1A       		.uleb128 0x1a
 1587 0739 CD040000 		.4byte	.LASF96
 1588 073d 06       		.byte	0x6
 1589 073e 4101     		.2byte	0x141
 1590 0740 57070000 		.4byte	0x757
ARM GAS  C:\Users\embedded\AppData\Local\Temp\cc5AaADL.s 			page 32


 1591 0744 02       		.byte	0x2
 1592 0745 23       		.byte	0x23
 1593 0746 06       		.uleb128 0x6
 1594 0747 1A       		.uleb128 0x1a
 1595 0748 03050000 		.4byte	.LASF97
 1596 074c 06       		.byte	0x6
 1597 074d 4201     		.2byte	0x142
 1598 074f 47000000 		.4byte	0x47
 1599 0753 02       		.byte	0x2
 1600 0754 23       		.byte	0x23
 1601 0755 0C       		.uleb128 0xc
 1602 0756 00       		.byte	0
 1603 0757 0F       		.uleb128 0xf
 1604 0758 47000000 		.4byte	0x47
 1605 075c 67070000 		.4byte	0x767
 1606 0760 10       		.uleb128 0x10
 1607 0761 4E000000 		.4byte	0x4e
 1608 0765 02       		.byte	0x2
 1609 0766 00       		.byte	0
 1610 0767 1C       		.uleb128 0x1c
 1611 0768 D0       		.byte	0xd0
 1612 0769 06       		.byte	0x6
 1613 076a 8002     		.2byte	0x280
 1614 076c 97080000 		.4byte	0x897
 1615 0770 1A       		.uleb128 0x1a
 1616 0771 30050000 		.4byte	.LASF98
 1617 0775 06       		.byte	0x6
 1618 0776 8202     		.2byte	0x282
 1619 0778 4E000000 		.4byte	0x4e
 1620 077c 02       		.byte	0x2
 1621 077d 23       		.byte	0x23
 1622 077e 00       		.uleb128 0
 1623 077f 1A       		.uleb128 0x1a
 1624 0780 D9040000 		.4byte	.LASF99
 1625 0784 06       		.byte	0x6
 1626 0785 8302     		.2byte	0x283
 1627 0787 26060000 		.4byte	0x626
 1628 078b 02       		.byte	0x2
 1629 078c 23       		.byte	0x23
 1630 078d 04       		.uleb128 0x4
 1631 078e 1A       		.uleb128 0x1a
 1632 078f 3E020000 		.4byte	.LASF100
 1633 0793 06       		.byte	0x6
 1634 0794 8402     		.2byte	0x284
 1635 0796 97080000 		.4byte	0x897
 1636 079a 02       		.byte	0x2
 1637 079b 23       		.byte	0x23
 1638 079c 08       		.uleb128 0x8
 1639 079d 1A       		.uleb128 0x1a
 1640 079e 88050000 		.4byte	.LASF101
 1641 07a2 06       		.byte	0x6
 1642 07a3 8502     		.2byte	0x285
 1643 07a5 CC010000 		.4byte	0x1cc
 1644 07a9 02       		.byte	0x2
 1645 07aa 23       		.byte	0x23
 1646 07ab 24       		.uleb128 0x24
 1647 07ac 1A       		.uleb128 0x1a
ARM GAS  C:\Users\embedded\AppData\Local\Temp\cc5AaADL.s 			page 33


 1648 07ad 91010000 		.4byte	.LASF102
 1649 07b1 06       		.byte	0x6
 1650 07b2 8602     		.2byte	0x286
 1651 07b4 6A000000 		.4byte	0x6a
 1652 07b8 02       		.byte	0x2
 1653 07b9 23       		.byte	0x23
 1654 07ba 48       		.uleb128 0x48
 1655 07bb 1A       		.uleb128 0x1a
 1656 07bc 1B040000 		.4byte	.LASF103
 1657 07c0 06       		.byte	0x6
 1658 07c1 8702     		.2byte	0x287
 1659 07c3 55000000 		.4byte	0x55
 1660 07c7 02       		.byte	0x2
 1661 07c8 23       		.byte	0x23
 1662 07c9 50       		.uleb128 0x50
 1663 07ca 1A       		.uleb128 0x1a
 1664 07cb 9E050000 		.4byte	.LASF104
 1665 07cf 06       		.byte	0x6
 1666 07d0 8802     		.2byte	0x288
 1667 07d2 1C070000 		.4byte	0x71c
 1668 07d6 02       		.byte	0x2
 1669 07d7 23       		.byte	0x23
 1670 07d8 58       		.uleb128 0x58
 1671 07d9 1A       		.uleb128 0x1a
 1672 07da A0030000 		.4byte	.LASF105
 1673 07de 06       		.byte	0x6
 1674 07df 8902     		.2byte	0x289
 1675 07e1 36010000 		.4byte	0x136
 1676 07e5 02       		.byte	0x2
 1677 07e6 23       		.byte	0x23
 1678 07e7 68       		.uleb128 0x68
 1679 07e8 1A       		.uleb128 0x1a
 1680 07e9 B2050000 		.4byte	.LASF106
 1681 07ed 06       		.byte	0x6
 1682 07ee 8A02     		.2byte	0x28a
 1683 07f0 36010000 		.4byte	0x136
 1684 07f4 02       		.byte	0x2
 1685 07f5 23       		.byte	0x23
 1686 07f6 70       		.uleb128 0x70
 1687 07f7 1A       		.uleb128 0x1a
 1688 07f8 92030000 		.4byte	.LASF107
 1689 07fc 06       		.byte	0x6
 1690 07fd 8B02     		.2byte	0x28b
 1691 07ff 36010000 		.4byte	0x136
 1692 0803 02       		.byte	0x2
 1693 0804 23       		.byte	0x23
 1694 0805 78       		.uleb128 0x78
 1695 0806 1A       		.uleb128 0x1a
 1696 0807 5B050000 		.4byte	.LASF108
 1697 080b 06       		.byte	0x6
 1698 080c 8C02     		.2byte	0x28c
 1699 080e A7080000 		.4byte	0x8a7
 1700 0812 03       		.byte	0x3
 1701 0813 23       		.byte	0x23
 1702 0814 8001     		.uleb128 0x80
 1703 0816 1A       		.uleb128 0x1a
 1704 0817 32020000 		.4byte	.LASF109
ARM GAS  C:\Users\embedded\AppData\Local\Temp\cc5AaADL.s 			page 34


 1705 081b 06       		.byte	0x6
 1706 081c 8D02     		.2byte	0x28d
 1707 081e B7080000 		.4byte	0x8b7
 1708 0822 03       		.byte	0x3
 1709 0823 23       		.byte	0x23
 1710 0824 8801     		.uleb128 0x88
 1711 0826 1A       		.uleb128 0x1a
 1712 0827 10050000 		.4byte	.LASF110
 1713 082b 06       		.byte	0x6
 1714 082c 8E02     		.2byte	0x28e
 1715 082e 6A000000 		.4byte	0x6a
 1716 0832 03       		.byte	0x3
 1717 0833 23       		.byte	0x23
 1718 0834 A001     		.uleb128 0xa0
 1719 0836 1A       		.uleb128 0x1a
 1720 0837 57010000 		.4byte	.LASF111
 1721 083b 06       		.byte	0x6
 1722 083c 8F02     		.2byte	0x28f
 1723 083e 36010000 		.4byte	0x136
 1724 0842 03       		.byte	0x3
 1725 0843 23       		.byte	0x23
 1726 0844 A401     		.uleb128 0xa4
 1727 0846 1A       		.uleb128 0x1a
 1728 0847 8F000000 		.4byte	.LASF112
 1729 084b 06       		.byte	0x6
 1730 084c 9002     		.2byte	0x290
 1731 084e 36010000 		.4byte	0x136
 1732 0852 03       		.byte	0x3
 1733 0853 23       		.byte	0x23
 1734 0854 AC01     		.uleb128 0xac
 1735 0856 1A       		.uleb128 0x1a
 1736 0857 46010000 		.4byte	.LASF113
 1737 085b 06       		.byte	0x6
 1738 085c 9102     		.2byte	0x291
 1739 085e 36010000 		.4byte	0x136
 1740 0862 03       		.byte	0x3
 1741 0863 23       		.byte	0x23
 1742 0864 B401     		.uleb128 0xb4
 1743 0866 1A       		.uleb128 0x1a
 1744 0867 44000000 		.4byte	.LASF114
 1745 086b 06       		.byte	0x6
 1746 086c 9202     		.2byte	0x292
 1747 086e 36010000 		.4byte	0x136
 1748 0872 03       		.byte	0x3
 1749 0873 23       		.byte	0x23
 1750 0874 BC01     		.uleb128 0xbc
 1751 0876 1A       		.uleb128 0x1a
 1752 0877 53000000 		.4byte	.LASF115
 1753 087b 06       		.byte	0x6
 1754 087c 9302     		.2byte	0x293
 1755 087e 36010000 		.4byte	0x136
 1756 0882 03       		.byte	0x3
 1757 0883 23       		.byte	0x23
 1758 0884 C401     		.uleb128 0xc4
 1759 0886 1A       		.uleb128 0x1a
 1760 0887 CA030000 		.4byte	.LASF116
 1761 088b 06       		.byte	0x6
ARM GAS  C:\Users\embedded\AppData\Local\Temp\cc5AaADL.s 			page 35


 1762 088c 9402     		.2byte	0x294
 1763 088e 6A000000 		.4byte	0x6a
 1764 0892 03       		.byte	0x3
 1765 0893 23       		.byte	0x23
 1766 0894 CC01     		.uleb128 0xcc
 1767 0896 00       		.byte	0
 1768 0897 0F       		.uleb128 0xf
 1769 0898 2C060000 		.4byte	0x62c
 1770 089c A7080000 		.4byte	0x8a7
 1771 08a0 10       		.uleb128 0x10
 1772 08a1 4E000000 		.4byte	0x4e
 1773 08a5 19       		.byte	0x19
 1774 08a6 00       		.byte	0
 1775 08a7 0F       		.uleb128 0xf
 1776 08a8 2C060000 		.4byte	0x62c
 1777 08ac B7080000 		.4byte	0x8b7
 1778 08b0 10       		.uleb128 0x10
 1779 08b1 4E000000 		.4byte	0x4e
 1780 08b5 07       		.byte	0x7
 1781 08b6 00       		.byte	0
 1782 08b7 0F       		.uleb128 0xf
 1783 08b8 2C060000 		.4byte	0x62c
 1784 08bc C7080000 		.4byte	0x8c7
 1785 08c0 10       		.uleb128 0x10
 1786 08c1 4E000000 		.4byte	0x4e
 1787 08c5 17       		.byte	0x17
 1788 08c6 00       		.byte	0
 1789 08c7 1C       		.uleb128 0x1c
 1790 08c8 F0       		.byte	0xf0
 1791 08c9 06       		.byte	0x6
 1792 08ca 9902     		.2byte	0x299
 1793 08cc EF080000 		.4byte	0x8ef
 1794 08d0 1A       		.uleb128 0x1a
 1795 08d1 BA020000 		.4byte	.LASF117
 1796 08d5 06       		.byte	0x6
 1797 08d6 9C02     		.2byte	0x29c
 1798 08d8 EF080000 		.4byte	0x8ef
 1799 08dc 02       		.byte	0x2
 1800 08dd 23       		.byte	0x23
 1801 08de 00       		.uleb128 0
 1802 08df 1A       		.uleb128 0x1a
 1803 08e0 52050000 		.4byte	.LASF118
 1804 08e4 06       		.byte	0x6
 1805 08e5 9D02     		.2byte	0x29d
 1806 08e7 FF080000 		.4byte	0x8ff
 1807 08eb 02       		.byte	0x2
 1808 08ec 23       		.byte	0x23
 1809 08ed 78       		.uleb128 0x78
 1810 08ee 00       		.byte	0
 1811 08ef 0F       		.uleb128 0xf
 1812 08f0 3E030000 		.4byte	0x33e
 1813 08f4 FF080000 		.4byte	0x8ff
 1814 08f8 10       		.uleb128 0x10
 1815 08f9 4E000000 		.4byte	0x4e
 1816 08fd 1D       		.byte	0x1d
 1817 08fe 00       		.byte	0
 1818 08ff 0F       		.uleb128 0xf
ARM GAS  C:\Users\embedded\AppData\Local\Temp\cc5AaADL.s 			page 36


 1819 0900 4E000000 		.4byte	0x4e
 1820 0904 0F090000 		.4byte	0x90f
 1821 0908 10       		.uleb128 0x10
 1822 0909 4E000000 		.4byte	0x4e
 1823 090d 1D       		.byte	0x1d
 1824 090e 00       		.byte	0
 1825 090f 1D       		.uleb128 0x1d
 1826 0910 F0       		.byte	0xf0
 1827 0911 06       		.byte	0x6
 1828 0912 7E02     		.2byte	0x27e
 1829 0914 31090000 		.4byte	0x931
 1830 0918 1E       		.uleb128 0x1e
 1831 0919 66040000 		.4byte	.LASF67
 1832 091d 06       		.byte	0x6
 1833 091e 9502     		.2byte	0x295
 1834 0920 67070000 		.4byte	0x767
 1835 0924 1E       		.uleb128 0x1e
 1836 0925 75050000 		.4byte	.LASF119
 1837 0929 06       		.byte	0x6
 1838 092a 9E02     		.2byte	0x29e
 1839 092c C7080000 		.4byte	0x8c7
 1840 0930 00       		.byte	0
 1841 0931 0F       		.uleb128 0xf
 1842 0932 2C060000 		.4byte	0x62c
 1843 0936 41090000 		.4byte	0x941
 1844 093a 10       		.uleb128 0x10
 1845 093b 4E000000 		.4byte	0x4e
 1846 093f 18       		.byte	0x18
 1847 0940 00       		.byte	0
 1848 0941 0B       		.uleb128 0xb
 1849 0942 84000000 		.4byte	.LASF121
 1850 0946 01       		.byte	0x1
 1851 0947 0A       		.uleb128 0xa
 1852 0948 04       		.byte	0x4
 1853 0949 41090000 		.4byte	0x941
 1854 094d 1F       		.uleb128 0x1f
 1855 094e 01       		.byte	0x1
 1856 094f 59090000 		.4byte	0x959
 1857 0953 18       		.uleb128 0x18
 1858 0954 BD040000 		.4byte	0x4bd
 1859 0958 00       		.byte	0
 1860 0959 0A       		.uleb128 0xa
 1861 095a 04       		.byte	0x4
 1862 095b 4D090000 		.4byte	0x94d
 1863 095f 0A       		.uleb128 0xa
 1864 0960 04       		.byte	0x4
 1865 0961 B6010000 		.4byte	0x1b6
 1866 0965 1F       		.uleb128 0x1f
 1867 0966 01       		.byte	0x1
 1868 0967 71090000 		.4byte	0x971
 1869 096b 18       		.uleb128 0x18
 1870 096c 6A000000 		.4byte	0x6a
 1871 0970 00       		.byte	0
 1872 0971 0A       		.uleb128 0xa
 1873 0972 04       		.byte	0x4
 1874 0973 77090000 		.4byte	0x977
 1875 0977 0A       		.uleb128 0xa
ARM GAS  C:\Users\embedded\AppData\Local\Temp\cc5AaADL.s 			page 37


 1876 0978 04       		.byte	0x4
 1877 0979 65090000 		.4byte	0x965
 1878 097d 0F       		.uleb128 0xf
 1879 097e C9060000 		.4byte	0x6c9
 1880 0982 8D090000 		.4byte	0x98d
 1881 0986 10       		.uleb128 0x10
 1882 0987 4E000000 		.4byte	0x4e
 1883 098b 02       		.byte	0x2
 1884 098c 00       		.byte	0
 1885 098d 20       		.uleb128 0x20
 1886 098e 90040000 		.4byte	.LASF122
 1887 0992 06       		.byte	0x6
 1888 0993 2E03     		.2byte	0x32e
 1889 0995 BD040000 		.4byte	0x4bd
 1890 0999 01       		.byte	0x1
 1891 099a 01       		.byte	0x1
 1892 099b 20       		.uleb128 0x20
 1893 099c 1D050000 		.4byte	.LASF123
 1894 09a0 06       		.byte	0x6
 1895 09a1 2F03     		.2byte	0x32f
 1896 09a3 C3040000 		.4byte	0x4c3
 1897 09a7 01       		.byte	0x1
 1898 09a8 01       		.byte	0x1
 1899 09a9 0F       		.uleb128 0xf
 1900 09aa 30000000 		.4byte	0x30
 1901 09ae B4090000 		.4byte	0x9b4
 1902 09b2 21       		.uleb128 0x21
 1903 09b3 00       		.byte	0
 1904 09b4 03       		.uleb128 0x3
 1905 09b5 A9090000 		.4byte	0x9a9
 1906 09b9 22       		.uleb128 0x22
 1907 09ba C0050000 		.4byte	.LASF124
 1908 09be 07       		.byte	0x7
 1909 09bf 06       		.byte	0x6
 1910 09c0 B4090000 		.4byte	0x9b4
 1911 09c4 01       		.byte	0x1
 1912 09c5 05       		.byte	0x5
 1913 09c6 03       		.byte	0x3
 1914 09c7 00000000 		.4byte	myArray
 1915 09cb 23       		.uleb128 0x23
 1916 09cc 01       		.byte	0x1
 1917 09cd CD050000 		.4byte	.LASF140
 1918 09d1 01       		.byte	0x1
 1919 09d2 1C       		.byte	0x1c
 1920 09d3 01       		.byte	0x1
 1921 09d4 6A000000 		.4byte	0x6a
 1922 09d8 00000000 		.4byte	.LFB3
 1923 09dc B4030000 		.4byte	.LFE3
 1924 09e0 00000000 		.4byte	.LLST0
 1925 09e4 01       		.byte	0x1
 1926 09e5 D30A0000 		.4byte	0xad3
 1927 09e9 24       		.uleb128 0x24
 1928 09ea 1E010000 		.4byte	.LASF125
 1929 09ee 01       		.byte	0x1
 1930 09ef 20       		.byte	0x20
 1931 09f0 25000000 		.4byte	0x25
 1932 09f4 02       		.byte	0x2
ARM GAS  C:\Users\embedded\AppData\Local\Temp\cc5AaADL.s 			page 38


 1933 09f5 91       		.byte	0x91
 1934 09f6 68       		.sleb128 -24
 1935 09f7 25       		.uleb128 0x25
 1936 09f8 01       		.byte	0x1
 1937 09f9 F7040000 		.4byte	.LASF141
 1938 09fd 01       		.byte	0x1
 1939 09fe 21       		.byte	0x21
 1940 09ff 6A000000 		.4byte	0x6a
 1941 0a03 01       		.byte	0x1
 1942 0a04 0A0A0000 		.4byte	0xa0a
 1943 0a08 26       		.uleb128 0x26
 1944 0a09 00       		.byte	0
 1945 0a0a 24       		.uleb128 0x24
 1946 0a0b C9010000 		.4byte	.LASF126
 1947 0a0f 01       		.byte	0x1
 1948 0a10 22       		.byte	0x22
 1949 0a11 25000000 		.4byte	0x25
 1950 0a15 02       		.byte	0x2
 1951 0a16 91       		.byte	0x91
 1952 0a17 67       		.sleb128 -25
 1953 0a18 24       		.uleb128 0x24
 1954 0a19 A3050000 		.4byte	.LASF127
 1955 0a1d 01       		.byte	0x1
 1956 0a1e 2B       		.byte	0x2b
 1957 0a1f 25000000 		.4byte	0x25
 1958 0a23 02       		.byte	0x2
 1959 0a24 91       		.byte	0x91
 1960 0a25 6F       		.sleb128 -17
 1961 0a26 24       		.uleb128 0x24
 1962 0a27 4B020000 		.4byte	.LASF128
 1963 0a2b 01       		.byte	0x1
 1964 0a2c 2C       		.byte	0x2c
 1965 0a2d 3C000000 		.4byte	0x3c
 1966 0a31 02       		.byte	0x2
 1967 0a32 91       		.byte	0x91
 1968 0a33 6C       		.sleb128 -20
 1969 0a34 24       		.uleb128 0x24
 1970 0a35 34000000 		.4byte	.LASF129
 1971 0a39 01       		.byte	0x1
 1972 0a3a 2D       		.byte	0x2d
 1973 0a3b D30A0000 		.4byte	0xad3
 1974 0a3f 02       		.byte	0x2
 1975 0a40 91       		.byte	0x91
 1976 0a41 58       		.sleb128 -40
 1977 0a42 27       		.uleb128 0x27
 1978 0a43 0C000000 		.4byte	.LASF142
 1979 0a47 01       		.byte	0x1
 1980 0a48 2E       		.byte	0x2e
 1981 0a49 E30A0000 		.4byte	0xae3
 1982 0a4d 24       		.uleb128 0x24
 1983 0a4e C1040000 		.4byte	.LASF130
 1984 0a52 01       		.byte	0x1
 1985 0a53 2F       		.byte	0x2f
 1986 0a54 E90A0000 		.4byte	0xae9
 1987 0a58 02       		.byte	0x2
 1988 0a59 91       		.byte	0x91
 1989 0a5a 54       		.sleb128 -44
ARM GAS  C:\Users\embedded\AppData\Local\Temp\cc5AaADL.s 			page 39


 1990 0a5b 24       		.uleb128 0x24
 1991 0a5c 89020000 		.4byte	.LASF131
 1992 0a60 01       		.byte	0x1
 1993 0a61 35       		.byte	0x35
 1994 0a62 25000000 		.4byte	0x25
 1995 0a66 02       		.byte	0x2
 1996 0a67 91       		.byte	0x91
 1997 0a68 6B       		.sleb128 -21
 1998 0a69 24       		.uleb128 0x24
 1999 0a6a E5010000 		.4byte	.LASF132
 2000 0a6e 01       		.byte	0x1
 2001 0a6f 36       		.byte	0x36
 2002 0a70 25000000 		.4byte	0x25
 2003 0a74 02       		.byte	0x2
 2004 0a75 91       		.byte	0x91
 2005 0a76 6A       		.sleb128 -22
 2006 0a77 24       		.uleb128 0x24
 2007 0a78 02030000 		.4byte	.LASF133
 2008 0a7c 01       		.byte	0x1
 2009 0a7d 37       		.byte	0x37
 2010 0a7e 25000000 		.4byte	0x25
 2011 0a82 02       		.byte	0x2
 2012 0a83 91       		.byte	0x91
 2013 0a84 69       		.sleb128 -23
 2014 0a85 28       		.uleb128 0x28
 2015 0a86 8A000000 		.4byte	.LBB2
 2016 0a8a 84030000 		.4byte	.LBE2
 2017 0a8e 24       		.uleb128 0x24
 2018 0a8f AF020000 		.4byte	.LASF134
 2019 0a93 01       		.byte	0x1
 2020 0a94 9A       		.byte	0x9a
 2021 0a95 D30A0000 		.4byte	0xad3
 2022 0a99 02       		.byte	0x2
 2023 0a9a 91       		.byte	0x91
 2024 0a9b 48       		.sleb128 -56
 2025 0a9c 24       		.uleb128 0x24
 2026 0a9d 29020000 		.4byte	.LASF135
 2027 0aa1 01       		.byte	0x1
 2028 0aa2 9B       		.byte	0x9b
 2029 0aa3 3C000000 		.4byte	0x3c
 2030 0aa7 02       		.byte	0x2
 2031 0aa8 91       		.byte	0x91
 2032 0aa9 64       		.sleb128 -28
 2033 0aaa 24       		.uleb128 0x24
 2034 0aab B0040000 		.4byte	.LASF136
 2035 0aaf 01       		.byte	0x1
 2036 0ab0 A0       		.byte	0xa0
 2037 0ab1 E90A0000 		.4byte	0xae9
 2038 0ab5 02       		.byte	0x2
 2039 0ab6 91       		.byte	0x91
 2040 0ab7 44       		.sleb128 -60
 2041 0ab8 28       		.uleb128 0x28
 2042 0ab9 80020000 		.4byte	.LBB3
 2043 0abd E4020000 		.4byte	.LBE3
 2044 0ac1 29       		.uleb128 0x29
 2045 0ac2 01       		.byte	0x1
 2046 0ac3 AD030000 		.4byte	.LASF143
ARM GAS  C:\Users\embedded\AppData\Local\Temp\cc5AaADL.s 			page 40


 2047 0ac7 01       		.byte	0x1
 2048 0ac8 8B       		.byte	0x8b
 2049 0ac9 6A000000 		.4byte	0x6a
 2050 0acd 01       		.byte	0x1
 2051 0ace 26       		.uleb128 0x26
 2052 0acf 00       		.byte	0
 2053 0ad0 00       		.byte	0
 2054 0ad1 00       		.byte	0
 2055 0ad2 00       		.byte	0
 2056 0ad3 0F       		.uleb128 0xf
 2057 0ad4 25000000 		.4byte	0x25
 2058 0ad8 E30A0000 		.4byte	0xae3
 2059 0adc 10       		.uleb128 0x10
 2060 0add 4E000000 		.4byte	0x4e
 2061 0ae1 09       		.byte	0x9
 2062 0ae2 00       		.byte	0
 2063 0ae3 0A       		.uleb128 0xa
 2064 0ae4 04       		.byte	0x4
 2065 0ae5 25000000 		.4byte	0x25
 2066 0ae9 2A       		.uleb128 0x2a
 2067 0aea 25000000 		.4byte	0x25
 2068 0aee 10       		.uleb128 0x10
 2069 0aef 4E000000 		.4byte	0x4e
 2070 0af3 01       		.byte	0x1
 2071 0af4 00       		.byte	0
 2072 0af5 00       		.byte	0
 2073              		.section	.debug_abbrev,"",%progbits
 2074              	.Ldebug_abbrev0:
 2075 0000 01       		.uleb128 0x1
 2076 0001 11       		.uleb128 0x11
 2077 0002 01       		.byte	0x1
 2078 0003 25       		.uleb128 0x25
 2079 0004 0E       		.uleb128 0xe
 2080 0005 13       		.uleb128 0x13
 2081 0006 0B       		.uleb128 0xb
 2082 0007 03       		.uleb128 0x3
 2083 0008 0E       		.uleb128 0xe
 2084 0009 1B       		.uleb128 0x1b
 2085 000a 0E       		.uleb128 0xe
 2086 000b 11       		.uleb128 0x11
 2087 000c 01       		.uleb128 0x1
 2088 000d 12       		.uleb128 0x12
 2089 000e 01       		.uleb128 0x1
 2090 000f 10       		.uleb128 0x10
 2091 0010 06       		.uleb128 0x6
 2092 0011 00       		.byte	0
 2093 0012 00       		.byte	0
 2094 0013 02       		.uleb128 0x2
 2095 0014 16       		.uleb128 0x16
 2096 0015 00       		.byte	0
 2097 0016 03       		.uleb128 0x3
 2098 0017 08       		.uleb128 0x8
 2099 0018 3A       		.uleb128 0x3a
 2100 0019 0B       		.uleb128 0xb
 2101 001a 3B       		.uleb128 0x3b
 2102 001b 0B       		.uleb128 0xb
 2103 001c 49       		.uleb128 0x49
ARM GAS  C:\Users\embedded\AppData\Local\Temp\cc5AaADL.s 			page 41


 2104 001d 13       		.uleb128 0x13
 2105 001e 00       		.byte	0
 2106 001f 00       		.byte	0
 2107 0020 03       		.uleb128 0x3
 2108 0021 26       		.uleb128 0x26
 2109 0022 00       		.byte	0
 2110 0023 49       		.uleb128 0x49
 2111 0024 13       		.uleb128 0x13
 2112 0025 00       		.byte	0
 2113 0026 00       		.byte	0
 2114 0027 04       		.uleb128 0x4
 2115 0028 24       		.uleb128 0x24
 2116 0029 00       		.byte	0
 2117 002a 0B       		.uleb128 0xb
 2118 002b 0B       		.uleb128 0xb
 2119 002c 3E       		.uleb128 0x3e
 2120 002d 0B       		.uleb128 0xb
 2121 002e 03       		.uleb128 0x3
 2122 002f 0E       		.uleb128 0xe
 2123 0030 00       		.byte	0
 2124 0031 00       		.byte	0
 2125 0032 05       		.uleb128 0x5
 2126 0033 16       		.uleb128 0x16
 2127 0034 00       		.byte	0
 2128 0035 03       		.uleb128 0x3
 2129 0036 0E       		.uleb128 0xe
 2130 0037 3A       		.uleb128 0x3a
 2131 0038 0B       		.uleb128 0xb
 2132 0039 3B       		.uleb128 0x3b
 2133 003a 0B       		.uleb128 0xb
 2134 003b 49       		.uleb128 0x49
 2135 003c 13       		.uleb128 0x13
 2136 003d 00       		.byte	0
 2137 003e 00       		.byte	0
 2138 003f 06       		.uleb128 0x6
 2139 0040 24       		.uleb128 0x24
 2140 0041 00       		.byte	0
 2141 0042 0B       		.uleb128 0xb
 2142 0043 0B       		.uleb128 0xb
 2143 0044 3E       		.uleb128 0x3e
 2144 0045 0B       		.uleb128 0xb
 2145 0046 03       		.uleb128 0x3
 2146 0047 08       		.uleb128 0x8
 2147 0048 00       		.byte	0
 2148 0049 00       		.byte	0
 2149 004a 07       		.uleb128 0x7
 2150 004b 04       		.uleb128 0x4
 2151 004c 01       		.byte	0x1
 2152 004d 3E       		.uleb128 0x3e
 2153 004e 0B       		.uleb128 0xb
 2154 004f 0B       		.uleb128 0xb
 2155 0050 0B       		.uleb128 0xb
 2156 0051 49       		.uleb128 0x49
 2157 0052 13       		.uleb128 0x13
 2158 0053 3A       		.uleb128 0x3a
 2159 0054 0B       		.uleb128 0xb
 2160 0055 3B       		.uleb128 0x3b
ARM GAS  C:\Users\embedded\AppData\Local\Temp\cc5AaADL.s 			page 42


 2161 0056 0B       		.uleb128 0xb
 2162 0057 01       		.uleb128 0x1
 2163 0058 13       		.uleb128 0x13
 2164 0059 00       		.byte	0
 2165 005a 00       		.byte	0
 2166 005b 08       		.uleb128 0x8
 2167 005c 28       		.uleb128 0x28
 2168 005d 00       		.byte	0
 2169 005e 03       		.uleb128 0x3
 2170 005f 0E       		.uleb128 0xe
 2171 0060 1C       		.uleb128 0x1c
 2172 0061 0B       		.uleb128 0xb
 2173 0062 00       		.byte	0
 2174 0063 00       		.byte	0
 2175 0064 09       		.uleb128 0x9
 2176 0065 0F       		.uleb128 0xf
 2177 0066 00       		.byte	0
 2178 0067 0B       		.uleb128 0xb
 2179 0068 0B       		.uleb128 0xb
 2180 0069 00       		.byte	0
 2181 006a 00       		.byte	0
 2182 006b 0A       		.uleb128 0xa
 2183 006c 0F       		.uleb128 0xf
 2184 006d 00       		.byte	0
 2185 006e 0B       		.uleb128 0xb
 2186 006f 0B       		.uleb128 0xb
 2187 0070 49       		.uleb128 0x49
 2188 0071 13       		.uleb128 0x13
 2189 0072 00       		.byte	0
 2190 0073 00       		.byte	0
 2191 0074 0B       		.uleb128 0xb
 2192 0075 13       		.uleb128 0x13
 2193 0076 00       		.byte	0
 2194 0077 03       		.uleb128 0x3
 2195 0078 0E       		.uleb128 0xe
 2196 0079 3C       		.uleb128 0x3c
 2197 007a 0C       		.uleb128 0xc
 2198 007b 00       		.byte	0
 2199 007c 00       		.byte	0
 2200 007d 0C       		.uleb128 0xc
 2201 007e 16       		.uleb128 0x16
 2202 007f 00       		.byte	0
 2203 0080 03       		.uleb128 0x3
 2204 0081 0E       		.uleb128 0xe
 2205 0082 3A       		.uleb128 0x3a
 2206 0083 0B       		.uleb128 0xb
 2207 0084 3B       		.uleb128 0x3b
 2208 0085 05       		.uleb128 0x5
 2209 0086 49       		.uleb128 0x49
 2210 0087 13       		.uleb128 0x13
 2211 0088 00       		.byte	0
 2212 0089 00       		.byte	0
 2213 008a 0D       		.uleb128 0xd
 2214 008b 17       		.uleb128 0x17
 2215 008c 01       		.byte	0x1
 2216 008d 0B       		.uleb128 0xb
 2217 008e 0B       		.uleb128 0xb
ARM GAS  C:\Users\embedded\AppData\Local\Temp\cc5AaADL.s 			page 43


 2218 008f 3A       		.uleb128 0x3a
 2219 0090 0B       		.uleb128 0xb
 2220 0091 3B       		.uleb128 0x3b
 2221 0092 0B       		.uleb128 0xb
 2222 0093 01       		.uleb128 0x1
 2223 0094 13       		.uleb128 0x13
 2224 0095 00       		.byte	0
 2225 0096 00       		.byte	0
 2226 0097 0E       		.uleb128 0xe
 2227 0098 0D       		.uleb128 0xd
 2228 0099 00       		.byte	0
 2229 009a 03       		.uleb128 0x3
 2230 009b 0E       		.uleb128 0xe
 2231 009c 3A       		.uleb128 0x3a
 2232 009d 0B       		.uleb128 0xb
 2233 009e 3B       		.uleb128 0x3b
 2234 009f 0B       		.uleb128 0xb
 2235 00a0 49       		.uleb128 0x49
 2236 00a1 13       		.uleb128 0x13
 2237 00a2 00       		.byte	0
 2238 00a3 00       		.byte	0
 2239 00a4 0F       		.uleb128 0xf
 2240 00a5 01       		.uleb128 0x1
 2241 00a6 01       		.byte	0x1
 2242 00a7 49       		.uleb128 0x49
 2243 00a8 13       		.uleb128 0x13
 2244 00a9 01       		.uleb128 0x1
 2245 00aa 13       		.uleb128 0x13
 2246 00ab 00       		.byte	0
 2247 00ac 00       		.byte	0
 2248 00ad 10       		.uleb128 0x10
 2249 00ae 21       		.uleb128 0x21
 2250 00af 00       		.byte	0
 2251 00b0 49       		.uleb128 0x49
 2252 00b1 13       		.uleb128 0x13
 2253 00b2 2F       		.uleb128 0x2f
 2254 00b3 0B       		.uleb128 0xb
 2255 00b4 00       		.byte	0
 2256 00b5 00       		.byte	0
 2257 00b6 11       		.uleb128 0x11
 2258 00b7 13       		.uleb128 0x13
 2259 00b8 01       		.byte	0x1
 2260 00b9 0B       		.uleb128 0xb
 2261 00ba 0B       		.uleb128 0xb
 2262 00bb 3A       		.uleb128 0x3a
 2263 00bc 0B       		.uleb128 0xb
 2264 00bd 3B       		.uleb128 0x3b
 2265 00be 0B       		.uleb128 0xb
 2266 00bf 01       		.uleb128 0x1
 2267 00c0 13       		.uleb128 0x13
 2268 00c1 00       		.byte	0
 2269 00c2 00       		.byte	0
 2270 00c3 12       		.uleb128 0x12
 2271 00c4 0D       		.uleb128 0xd
 2272 00c5 00       		.byte	0
 2273 00c6 03       		.uleb128 0x3
 2274 00c7 0E       		.uleb128 0xe
ARM GAS  C:\Users\embedded\AppData\Local\Temp\cc5AaADL.s 			page 44


 2275 00c8 3A       		.uleb128 0x3a
 2276 00c9 0B       		.uleb128 0xb
 2277 00ca 3B       		.uleb128 0x3b
 2278 00cb 0B       		.uleb128 0xb
 2279 00cc 49       		.uleb128 0x49
 2280 00cd 13       		.uleb128 0x13
 2281 00ce 38       		.uleb128 0x38
 2282 00cf 0A       		.uleb128 0xa
 2283 00d0 00       		.byte	0
 2284 00d1 00       		.byte	0
 2285 00d2 13       		.uleb128 0x13
 2286 00d3 13       		.uleb128 0x13
 2287 00d4 01       		.byte	0x1
 2288 00d5 03       		.uleb128 0x3
 2289 00d6 0E       		.uleb128 0xe
 2290 00d7 0B       		.uleb128 0xb
 2291 00d8 0B       		.uleb128 0xb
 2292 00d9 3A       		.uleb128 0x3a
 2293 00da 0B       		.uleb128 0xb
 2294 00db 3B       		.uleb128 0x3b
 2295 00dc 0B       		.uleb128 0xb
 2296 00dd 01       		.uleb128 0x1
 2297 00de 13       		.uleb128 0x13
 2298 00df 00       		.byte	0
 2299 00e0 00       		.byte	0
 2300 00e1 14       		.uleb128 0x14
 2301 00e2 0D       		.uleb128 0xd
 2302 00e3 00       		.byte	0
 2303 00e4 03       		.uleb128 0x3
 2304 00e5 08       		.uleb128 0x8
 2305 00e6 3A       		.uleb128 0x3a
 2306 00e7 0B       		.uleb128 0xb
 2307 00e8 3B       		.uleb128 0x3b
 2308 00e9 0B       		.uleb128 0xb
 2309 00ea 49       		.uleb128 0x49
 2310 00eb 13       		.uleb128 0x13
 2311 00ec 38       		.uleb128 0x38
 2312 00ed 0A       		.uleb128 0xa
 2313 00ee 00       		.byte	0
 2314 00ef 00       		.byte	0
 2315 00f0 15       		.uleb128 0x15
 2316 00f1 13       		.uleb128 0x13
 2317 00f2 01       		.byte	0x1
 2318 00f3 03       		.uleb128 0x3
 2319 00f4 0E       		.uleb128 0xe
 2320 00f5 0B       		.uleb128 0xb
 2321 00f6 05       		.uleb128 0x5
 2322 00f7 3A       		.uleb128 0x3a
 2323 00f8 0B       		.uleb128 0xb
 2324 00f9 3B       		.uleb128 0x3b
 2325 00fa 0B       		.uleb128 0xb
 2326 00fb 01       		.uleb128 0x1
 2327 00fc 13       		.uleb128 0x13
 2328 00fd 00       		.byte	0
 2329 00fe 00       		.byte	0
 2330 00ff 16       		.uleb128 0x16
 2331 0100 15       		.uleb128 0x15
ARM GAS  C:\Users\embedded\AppData\Local\Temp\cc5AaADL.s 			page 45


 2332 0101 00       		.byte	0
 2333 0102 27       		.uleb128 0x27
 2334 0103 0C       		.uleb128 0xc
 2335 0104 00       		.byte	0
 2336 0105 00       		.byte	0
 2337 0106 17       		.uleb128 0x17
 2338 0107 15       		.uleb128 0x15
 2339 0108 01       		.byte	0x1
 2340 0109 27       		.uleb128 0x27
 2341 010a 0C       		.uleb128 0xc
 2342 010b 49       		.uleb128 0x49
 2343 010c 13       		.uleb128 0x13
 2344 010d 01       		.uleb128 0x1
 2345 010e 13       		.uleb128 0x13
 2346 010f 00       		.byte	0
 2347 0110 00       		.byte	0
 2348 0111 18       		.uleb128 0x18
 2349 0112 05       		.uleb128 0x5
 2350 0113 00       		.byte	0
 2351 0114 49       		.uleb128 0x49
 2352 0115 13       		.uleb128 0x13
 2353 0116 00       		.byte	0
 2354 0117 00       		.byte	0
 2355 0118 19       		.uleb128 0x19
 2356 0119 13       		.uleb128 0x13
 2357 011a 01       		.byte	0x1
 2358 011b 03       		.uleb128 0x3
 2359 011c 0E       		.uleb128 0xe
 2360 011d 0B       		.uleb128 0xb
 2361 011e 05       		.uleb128 0x5
 2362 011f 3A       		.uleb128 0x3a
 2363 0120 0B       		.uleb128 0xb
 2364 0121 3B       		.uleb128 0x3b
 2365 0122 05       		.uleb128 0x5
 2366 0123 01       		.uleb128 0x1
 2367 0124 13       		.uleb128 0x13
 2368 0125 00       		.byte	0
 2369 0126 00       		.byte	0
 2370 0127 1A       		.uleb128 0x1a
 2371 0128 0D       		.uleb128 0xd
 2372 0129 00       		.byte	0
 2373 012a 03       		.uleb128 0x3
 2374 012b 0E       		.uleb128 0xe
 2375 012c 3A       		.uleb128 0x3a
 2376 012d 0B       		.uleb128 0xb
 2377 012e 3B       		.uleb128 0x3b
 2378 012f 05       		.uleb128 0x5
 2379 0130 49       		.uleb128 0x49
 2380 0131 13       		.uleb128 0x13
 2381 0132 38       		.uleb128 0x38
 2382 0133 0A       		.uleb128 0xa
 2383 0134 00       		.byte	0
 2384 0135 00       		.byte	0
 2385 0136 1B       		.uleb128 0x1b
 2386 0137 13       		.uleb128 0x13
 2387 0138 01       		.byte	0x1
 2388 0139 03       		.uleb128 0x3
ARM GAS  C:\Users\embedded\AppData\Local\Temp\cc5AaADL.s 			page 46


 2389 013a 0E       		.uleb128 0xe
 2390 013b 0B       		.uleb128 0xb
 2391 013c 0B       		.uleb128 0xb
 2392 013d 3A       		.uleb128 0x3a
 2393 013e 0B       		.uleb128 0xb
 2394 013f 3B       		.uleb128 0x3b
 2395 0140 05       		.uleb128 0x5
 2396 0141 01       		.uleb128 0x1
 2397 0142 13       		.uleb128 0x13
 2398 0143 00       		.byte	0
 2399 0144 00       		.byte	0
 2400 0145 1C       		.uleb128 0x1c
 2401 0146 13       		.uleb128 0x13
 2402 0147 01       		.byte	0x1
 2403 0148 0B       		.uleb128 0xb
 2404 0149 0B       		.uleb128 0xb
 2405 014a 3A       		.uleb128 0x3a
 2406 014b 0B       		.uleb128 0xb
 2407 014c 3B       		.uleb128 0x3b
 2408 014d 05       		.uleb128 0x5
 2409 014e 01       		.uleb128 0x1
 2410 014f 13       		.uleb128 0x13
 2411 0150 00       		.byte	0
 2412 0151 00       		.byte	0
 2413 0152 1D       		.uleb128 0x1d
 2414 0153 17       		.uleb128 0x17
 2415 0154 01       		.byte	0x1
 2416 0155 0B       		.uleb128 0xb
 2417 0156 0B       		.uleb128 0xb
 2418 0157 3A       		.uleb128 0x3a
 2419 0158 0B       		.uleb128 0xb
 2420 0159 3B       		.uleb128 0x3b
 2421 015a 05       		.uleb128 0x5
 2422 015b 01       		.uleb128 0x1
 2423 015c 13       		.uleb128 0x13
 2424 015d 00       		.byte	0
 2425 015e 00       		.byte	0
 2426 015f 1E       		.uleb128 0x1e
 2427 0160 0D       		.uleb128 0xd
 2428 0161 00       		.byte	0
 2429 0162 03       		.uleb128 0x3
 2430 0163 0E       		.uleb128 0xe
 2431 0164 3A       		.uleb128 0x3a
 2432 0165 0B       		.uleb128 0xb
 2433 0166 3B       		.uleb128 0x3b
 2434 0167 05       		.uleb128 0x5
 2435 0168 49       		.uleb128 0x49
 2436 0169 13       		.uleb128 0x13
 2437 016a 00       		.byte	0
 2438 016b 00       		.byte	0
 2439 016c 1F       		.uleb128 0x1f
 2440 016d 15       		.uleb128 0x15
 2441 016e 01       		.byte	0x1
 2442 016f 27       		.uleb128 0x27
 2443 0170 0C       		.uleb128 0xc
 2444 0171 01       		.uleb128 0x1
 2445 0172 13       		.uleb128 0x13
ARM GAS  C:\Users\embedded\AppData\Local\Temp\cc5AaADL.s 			page 47


 2446 0173 00       		.byte	0
 2447 0174 00       		.byte	0
 2448 0175 20       		.uleb128 0x20
 2449 0176 34       		.uleb128 0x34
 2450 0177 00       		.byte	0
 2451 0178 03       		.uleb128 0x3
 2452 0179 0E       		.uleb128 0xe
 2453 017a 3A       		.uleb128 0x3a
 2454 017b 0B       		.uleb128 0xb
 2455 017c 3B       		.uleb128 0x3b
 2456 017d 05       		.uleb128 0x5
 2457 017e 49       		.uleb128 0x49
 2458 017f 13       		.uleb128 0x13
 2459 0180 3F       		.uleb128 0x3f
 2460 0181 0C       		.uleb128 0xc
 2461 0182 3C       		.uleb128 0x3c
 2462 0183 0C       		.uleb128 0xc
 2463 0184 00       		.byte	0
 2464 0185 00       		.byte	0
 2465 0186 21       		.uleb128 0x21
 2466 0187 21       		.uleb128 0x21
 2467 0188 00       		.byte	0
 2468 0189 00       		.byte	0
 2469 018a 00       		.byte	0
 2470 018b 22       		.uleb128 0x22
 2471 018c 34       		.uleb128 0x34
 2472 018d 00       		.byte	0
 2473 018e 03       		.uleb128 0x3
 2474 018f 0E       		.uleb128 0xe
 2475 0190 3A       		.uleb128 0x3a
 2476 0191 0B       		.uleb128 0xb
 2477 0192 3B       		.uleb128 0x3b
 2478 0193 0B       		.uleb128 0xb
 2479 0194 49       		.uleb128 0x49
 2480 0195 13       		.uleb128 0x13
 2481 0196 3F       		.uleb128 0x3f
 2482 0197 0C       		.uleb128 0xc
 2483 0198 02       		.uleb128 0x2
 2484 0199 0A       		.uleb128 0xa
 2485 019a 00       		.byte	0
 2486 019b 00       		.byte	0
 2487 019c 23       		.uleb128 0x23
 2488 019d 2E       		.uleb128 0x2e
 2489 019e 01       		.byte	0x1
 2490 019f 3F       		.uleb128 0x3f
 2491 01a0 0C       		.uleb128 0xc
 2492 01a1 03       		.uleb128 0x3
 2493 01a2 0E       		.uleb128 0xe
 2494 01a3 3A       		.uleb128 0x3a
 2495 01a4 0B       		.uleb128 0xb
 2496 01a5 3B       		.uleb128 0x3b
 2497 01a6 0B       		.uleb128 0xb
 2498 01a7 27       		.uleb128 0x27
 2499 01a8 0C       		.uleb128 0xc
 2500 01a9 49       		.uleb128 0x49
 2501 01aa 13       		.uleb128 0x13
 2502 01ab 11       		.uleb128 0x11
ARM GAS  C:\Users\embedded\AppData\Local\Temp\cc5AaADL.s 			page 48


 2503 01ac 01       		.uleb128 0x1
 2504 01ad 12       		.uleb128 0x12
 2505 01ae 01       		.uleb128 0x1
 2506 01af 40       		.uleb128 0x40
 2507 01b0 06       		.uleb128 0x6
 2508 01b1 9642     		.uleb128 0x2116
 2509 01b3 0C       		.uleb128 0xc
 2510 01b4 01       		.uleb128 0x1
 2511 01b5 13       		.uleb128 0x13
 2512 01b6 00       		.byte	0
 2513 01b7 00       		.byte	0
 2514 01b8 24       		.uleb128 0x24
 2515 01b9 34       		.uleb128 0x34
 2516 01ba 00       		.byte	0
 2517 01bb 03       		.uleb128 0x3
 2518 01bc 0E       		.uleb128 0xe
 2519 01bd 3A       		.uleb128 0x3a
 2520 01be 0B       		.uleb128 0xb
 2521 01bf 3B       		.uleb128 0x3b
 2522 01c0 0B       		.uleb128 0xb
 2523 01c1 49       		.uleb128 0x49
 2524 01c2 13       		.uleb128 0x13
 2525 01c3 02       		.uleb128 0x2
 2526 01c4 0A       		.uleb128 0xa
 2527 01c5 00       		.byte	0
 2528 01c6 00       		.byte	0
 2529 01c7 25       		.uleb128 0x25
 2530 01c8 2E       		.uleb128 0x2e
 2531 01c9 01       		.byte	0x1
 2532 01ca 3F       		.uleb128 0x3f
 2533 01cb 0C       		.uleb128 0xc
 2534 01cc 03       		.uleb128 0x3
 2535 01cd 0E       		.uleb128 0xe
 2536 01ce 3A       		.uleb128 0x3a
 2537 01cf 0B       		.uleb128 0xb
 2538 01d0 3B       		.uleb128 0x3b
 2539 01d1 0B       		.uleb128 0xb
 2540 01d2 49       		.uleb128 0x49
 2541 01d3 13       		.uleb128 0x13
 2542 01d4 3C       		.uleb128 0x3c
 2543 01d5 0C       		.uleb128 0xc
 2544 01d6 01       		.uleb128 0x1
 2545 01d7 13       		.uleb128 0x13
 2546 01d8 00       		.byte	0
 2547 01d9 00       		.byte	0
 2548 01da 26       		.uleb128 0x26
 2549 01db 18       		.uleb128 0x18
 2550 01dc 00       		.byte	0
 2551 01dd 00       		.byte	0
 2552 01de 00       		.byte	0
 2553 01df 27       		.uleb128 0x27
 2554 01e0 34       		.uleb128 0x34
 2555 01e1 00       		.byte	0
 2556 01e2 03       		.uleb128 0x3
 2557 01e3 0E       		.uleb128 0xe
 2558 01e4 3A       		.uleb128 0x3a
 2559 01e5 0B       		.uleb128 0xb
ARM GAS  C:\Users\embedded\AppData\Local\Temp\cc5AaADL.s 			page 49


 2560 01e6 3B       		.uleb128 0x3b
 2561 01e7 0B       		.uleb128 0xb
 2562 01e8 49       		.uleb128 0x49
 2563 01e9 13       		.uleb128 0x13
 2564 01ea 00       		.byte	0
 2565 01eb 00       		.byte	0
 2566 01ec 28       		.uleb128 0x28
 2567 01ed 0B       		.uleb128 0xb
 2568 01ee 01       		.byte	0x1
 2569 01ef 11       		.uleb128 0x11
 2570 01f0 01       		.uleb128 0x1
 2571 01f1 12       		.uleb128 0x12
 2572 01f2 01       		.uleb128 0x1
 2573 01f3 00       		.byte	0
 2574 01f4 00       		.byte	0
 2575 01f5 29       		.uleb128 0x29
 2576 01f6 2E       		.uleb128 0x2e
 2577 01f7 01       		.byte	0x1
 2578 01f8 3F       		.uleb128 0x3f
 2579 01f9 0C       		.uleb128 0xc
 2580 01fa 03       		.uleb128 0x3
 2581 01fb 0E       		.uleb128 0xe
 2582 01fc 3A       		.uleb128 0x3a
 2583 01fd 0B       		.uleb128 0xb
 2584 01fe 3B       		.uleb128 0x3b
 2585 01ff 0B       		.uleb128 0xb
 2586 0200 49       		.uleb128 0x49
 2587 0201 13       		.uleb128 0x13
 2588 0202 3C       		.uleb128 0x3c
 2589 0203 0C       		.uleb128 0xc
 2590 0204 00       		.byte	0
 2591 0205 00       		.byte	0
 2592 0206 2A       		.uleb128 0x2a
 2593 0207 01       		.uleb128 0x1
 2594 0208 01       		.byte	0x1
 2595 0209 49       		.uleb128 0x49
 2596 020a 13       		.uleb128 0x13
 2597 020b 00       		.byte	0
 2598 020c 00       		.byte	0
 2599 020d 00       		.byte	0
 2600              		.section	.debug_loc,"",%progbits
 2601              	.Ldebug_loc0:
 2602              	.LLST0:
 2603 0000 00000000 		.4byte	.LFB3-.Ltext0
 2604 0004 02000000 		.4byte	.LCFI0-.Ltext0
 2605 0008 0200     		.2byte	0x2
 2606 000a 7D       		.byte	0x7d
 2607 000b 00       		.sleb128 0
 2608 000c 02000000 		.4byte	.LCFI0-.Ltext0
 2609 0010 04000000 		.4byte	.LCFI1-.Ltext0
 2610 0014 0200     		.2byte	0x2
 2611 0016 7D       		.byte	0x7d
 2612 0017 0C       		.sleb128 12
 2613 0018 04000000 		.4byte	.LCFI1-.Ltext0
 2614 001c 06000000 		.4byte	.LCFI2-.Ltext0
 2615 0020 0300     		.2byte	0x3
 2616 0022 7D       		.byte	0x7d
ARM GAS  C:\Users\embedded\AppData\Local\Temp\cc5AaADL.s 			page 50


 2617 0023 C000     		.sleb128 64
 2618 0025 06000000 		.4byte	.LCFI2-.Ltext0
 2619 0029 B4030000 		.4byte	.LFE3-.Ltext0
 2620 002d 0300     		.2byte	0x3
 2621 002f 77       		.byte	0x77
 2622 0030 C000     		.sleb128 64
 2623 0032 00000000 		.4byte	0
 2624 0036 00000000 		.4byte	0
 2625              		.section	.debug_aranges,"",%progbits
 2626 0000 1C000000 		.4byte	0x1c
 2627 0004 0200     		.2byte	0x2
 2628 0006 00000000 		.4byte	.Ldebug_info0
 2629 000a 04       		.byte	0x4
 2630 000b 00       		.byte	0
 2631 000c 0000     		.2byte	0
 2632 000e 0000     		.2byte	0
 2633 0010 00000000 		.4byte	.Ltext0
 2634 0014 B4030000 		.4byte	.Letext0-.Ltext0
 2635 0018 00000000 		.4byte	0
 2636 001c 00000000 		.4byte	0
 2637              		.section	.debug_line,"",%progbits
 2638              	.Ldebug_line0:
 2639 0000 49010000 		.section	.debug_str,"MS",%progbits,1
 2639      0200C400 
 2639      00000201 
 2639      FB0E0D00 
 2639      01010101 
 2640              	.LASF41:
 2641 0000 5F64736F 		.ascii	"_dso_handle\000"
 2641      5F68616E 
 2641      646C6500 
 2642              	.LASF142:
 2643 000c 6D657373 		.ascii	"messagePointer\000"
 2643      61676550 
 2643      6F696E74 
 2643      657200
 2644              	.LASF49:
 2645 001b 5F73697A 		.ascii	"_size\000"
 2645      6500
 2646              	.LASF94:
 2647 0021 5F72616E 		.ascii	"_rand48\000"
 2647      64343800 
 2648              	.LASF73:
 2649 0029 5F656D65 		.ascii	"_emergency\000"
 2649      7267656E 
 2649      637900
 2650              	.LASF129:
 2651 0034 63686172 		.ascii	"charArray\000"
 2651      41727261 
 2651      7900
 2652              	.LASF63:
 2653 003e 5F646174 		.ascii	"_data\000"
 2653      6100
 2654              	.LASF114:
 2655 0044 5F776372 		.ascii	"_wcrtomb_state\000"
 2655      746F6D62 
 2655      5F737461 
ARM GAS  C:\Users\embedded\AppData\Local\Temp\cc5AaADL.s 			page 51


 2655      746500
 2656              	.LASF115:
 2657 0053 5F776373 		.ascii	"_wcsrtombs_state\000"
 2657      72746F6D 
 2657      62735F73 
 2657      74617465 
 2657      00
 2658              	.LASF4:
 2659 0064 6C6F6E67 		.ascii	"long long unsigned int\000"
 2659      206C6F6E 
 2659      6720756E 
 2659      7369676E 
 2659      65642069 
 2660              	.LASF53:
 2661 007b 5F6C6266 		.ascii	"_lbfsize\000"
 2661      73697A65 
 2661      00
 2662              	.LASF121:
 2663 0084 5F5F6C6F 		.ascii	"__locale_t\000"
 2663      63616C65 
 2663      5F7400
 2664              	.LASF112:
 2665 008f 5F6D6272 		.ascii	"_mbrtowc_state\000"
 2665      746F7763 
 2665      5F737461 
 2665      746500
 2666              	.LASF30:
 2667 009e 5F5F746D 		.ascii	"__tm_sec\000"
 2667      5F736563 
 2667      00
 2668              	.LASF7:
 2669 00a7 6C6F6E67 		.ascii	"long long int\000"
 2669      206C6F6E 
 2669      6720696E 
 2669      7400
 2670              	.LASF5:
 2671 00b5 7369676E 		.ascii	"signed char\000"
 2671      65642063 
 2671      68617200 
 2672              	.LASF59:
 2673 00c1 5F756275 		.ascii	"_ubuf\000"
 2673      6600
 2674              	.LASF48:
 2675 00c7 5F626173 		.ascii	"_base\000"
 2675      6500
 2676              	.LASF32:
 2677 00cd 5F5F746D 		.ascii	"__tm_hour\000"
 2677      5F686F75 
 2677      7200
 2678              	.LASF88:
 2679 00d7 5F5F7366 		.ascii	"__sf\000"
 2679      00
 2680              	.LASF39:
 2681 00dc 5F6F6E5F 		.ascii	"_on_exit_args\000"
 2681      65786974 
 2681      5F617267 
 2681      7300
ARM GAS  C:\Users\embedded\AppData\Local\Temp\cc5AaADL.s 			page 52


 2682              	.LASF54:
 2683 00ea 5F636F6F 		.ascii	"_cookie\000"
 2683      6B696500 
 2684              	.LASF87:
 2685 00f2 5F5F7367 		.ascii	"__sglue\000"
 2685      6C756500 
 2686              	.LASF0:
 2687 00fa 74553136 		.ascii	"tU16\000"
 2687      00
 2688              	.LASF10:
 2689 00ff 6C6F6E67 		.ascii	"long int\000"
 2689      20696E74 
 2689      00
 2690              	.LASF51:
 2691 0108 5F666C61 		.ascii	"_flags\000"
 2691      677300
 2692              	.LASF43:
 2693 010f 5F69735F 		.ascii	"_is_cxa\000"
 2693      63786100 
 2694              	.LASF69:
 2695 0117 5F737464 		.ascii	"_stdin\000"
 2695      696E00
 2696              	.LASF125:
 2697 011e 70636139 		.ascii	"pca9532Present\000"
 2697      35333250 
 2697      72657365 
 2697      6E7400
 2698              	.LASF61:
 2699 012d 5F626C6B 		.ascii	"_blksize\000"
 2699      73697A65 
 2699      00
 2700              	.LASF83:
 2701 0136 5F637674 		.ascii	"_cvtbuf\000"
 2701      62756600 
 2702              	.LASF62:
 2703 013e 5F6F6666 		.ascii	"_offset\000"
 2703      73657400 
 2704              	.LASF113:
 2705 0146 5F6D6273 		.ascii	"_mbsrtowcs_state\000"
 2705      72746F77 
 2705      63735F73 
 2705      74617465 
 2705      00
 2706              	.LASF111:
 2707 0157 5F6D6272 		.ascii	"_mbrlen_state\000"
 2707      6C656E5F 
 2707      73746174 
 2707      6500
 2708              	.LASF40:
 2709 0165 5F666E61 		.ascii	"_fnargs\000"
 2709      72677300 
 2710              	.LASF46:
 2711 016d 5F666E73 		.ascii	"_fns\000"
 2711      00
 2712              	.LASF26:
 2713 0172 5F736967 		.ascii	"_sign\000"
 2713      6E00
ARM GAS  C:\Users\embedded\AppData\Local\Temp\cc5AaADL.s 			page 53


 2714              	.LASF22:
 2715 0178 5F666C6F 		.ascii	"_flock_t\000"
 2715      636B5F74 
 2715      00
 2716              	.LASF71:
 2717 0181 5F737464 		.ascii	"_stderr\000"
 2717      65727200 
 2718              	.LASF28:
 2719 0189 5F426967 		.ascii	"_Bigint\000"
 2719      696E7400 
 2720              	.LASF102:
 2721 0191 5F67616D 		.ascii	"_gamma_signgam\000"
 2721      6D615F73 
 2721      69676E67 
 2721      616D00
 2722              	.LASF55:
 2723 01a0 5F726561 		.ascii	"_read\000"
 2723      6400
 2724              	.LASF79:
 2725 01a6 5F726573 		.ascii	"_result_k\000"
 2725      756C745F 
 2725      6B00
 2726              	.LASF29:
 2727 01b0 5F5F746D 		.ascii	"__tm\000"
 2727      00
 2728              	.LASF3:
 2729 01b5 756E7369 		.ascii	"unsigned int\000"
 2729      676E6564 
 2729      20696E74 
 2729      00
 2730              	.LASF18:
 2731 01c2 5F5F7763 		.ascii	"__wchb\000"
 2731      686200
 2732              	.LASF126:
 2733 01c9 6C6D3735 		.ascii	"lm75address\000"
 2733      61646472 
 2733      65737300 
 2734              	.LASF70:
 2735 01d5 5F737464 		.ascii	"_stdout\000"
 2735      6F757400 
 2736              	.LASF82:
 2737 01dd 5F637674 		.ascii	"_cvtlen\000"
 2737      6C656E00 
 2738              	.LASF132:
 2739 01e5 74656D70 		.ascii	"temp_MIN\000"
 2739      5F4D494E 
 2739      00
 2740              	.LASF11:
 2741 01ee 6C6F6E67 		.ascii	"long unsigned int\000"
 2741      20756E73 
 2741      69676E65 
 2741      6420696E 
 2741      7400
 2742              	.LASF52:
 2743 0200 5F66696C 		.ascii	"_file\000"
 2743      6500
 2744              	.LASF92:
ARM GAS  C:\Users\embedded\AppData\Local\Temp\cc5AaADL.s 			page 54


 2745 0206 5F6E696F 		.ascii	"_niobs\000"
 2745      627300
 2746              	.LASF2:
 2747 020d 73686F72 		.ascii	"short unsigned int\000"
 2747      7420756E 
 2747      7369676E 
 2747      65642069 
 2747      6E7400
 2748              	.LASF85:
 2749 0220 5F617465 		.ascii	"_atexit0\000"
 2749      78697430 
 2749      00
 2750              	.LASF135:
 2751 0229 68756D69 		.ascii	"humidity\000"
 2751      64697479 
 2751      00
 2752              	.LASF109:
 2753 0232 5F736967 		.ascii	"_signal_buf\000"
 2753      6E616C5F 
 2753      62756600 
 2754              	.LASF100:
 2755 023e 5F617363 		.ascii	"_asctime_buf\000"
 2755      74696D65 
 2755      5F627566 
 2755      00
 2756              	.LASF128:
 2757 024b 63757272 		.ascii	"currentType\000"
 2757      656E7454 
 2757      79706500 
 2758              	.LASF78:
 2759 0257 5F726573 		.ascii	"_result\000"
 2759      756C7400 
 2760              	.LASF17:
 2761 025f 5F5F7763 		.ascii	"__wch\000"
 2761      6800
 2762              	.LASF13:
 2763 0265 5F4C4F43 		.ascii	"_LOCK_T\000"
 2763      4B5F5400 
 2764              	.LASF138:
 2765 026d 6D61696E 		.ascii	"main.c\000"
 2765      2E6300
 2766              	.LASF16:
 2767 0274 77696E74 		.ascii	"wint_t\000"
 2767      5F7400
 2768              	.LASF64:
 2769 027b 5F6C6F63 		.ascii	"_lock\000"
 2769      6B00
 2770              	.LASF66:
 2771 0281 5F666C61 		.ascii	"_flags2\000"
 2771      67733200 
 2772              	.LASF131:
 2773 0289 74656D70 		.ascii	"temp_SEC\000"
 2773      5F534543 
 2773      00
 2774              	.LASF56:
 2775 0292 5F777269 		.ascii	"_write\000"
 2775      746500
ARM GAS  C:\Users\embedded\AppData\Local\Temp\cc5AaADL.s 			page 55


 2776              	.LASF35:
 2777 0299 5F5F746D 		.ascii	"__tm_year\000"
 2777      5F796561 
 2777      7200
 2778              	.LASF12:
 2779 02a3 6C6F6E67 		.ascii	"long double\000"
 2779      20646F75 
 2779      626C6500 
 2780              	.LASF134:
 2781 02af 63686172 		.ascii	"charArrray\000"
 2781      41727272 
 2781      617900
 2782              	.LASF117:
 2783 02ba 5F6E6578 		.ascii	"_nextf\000"
 2783      746600
 2784              	.LASF34:
 2785 02c1 5F5F746D 		.ascii	"__tm_mon\000"
 2785      5F6D6F6E 
 2785      00
 2786              	.LASF44:
 2787 02ca 5F617465 		.ascii	"_atexit\000"
 2787      78697400 
 2788              	.LASF76:
 2789 02d2 5F5F7364 		.ascii	"__sdidinit\000"
 2789      6964696E 
 2789      697400
 2790              	.LASF14:
 2791 02dd 5F6F6666 		.ascii	"_off_t\000"
 2791      5F7400
 2792              	.LASF139:
 2793 02e4 433A5C45 		.ascii	"C:\\Embedded\\2138MiniDemo\\2138\000"
 2793      6D626564 
 2793      6465645C 
 2793      32313338 
 2793      4D696E69 
 2794              	.LASF133:
 2795 0302 74656D70 		.ascii	"temp_HOUR\000"
 2795      5F484F55 
 2795      5200
 2796              	.LASF8:
 2797 030c 46414C53 		.ascii	"FALSE\000"
 2797      4500
 2798              	.LASF137:
 2799 0312 474E5520 		.ascii	"GNU C11 7.3.1 20180622 (release) [ARM/embedded-7-br"
 2799      43313120 
 2799      372E332E 
 2799      31203230 
 2799      31383036 
 2800 0345 616E6368 		.ascii	"anch revision 261907] -mcpu=arm7tdmi -mthumb -mthum"
 2800      20726576 
 2800      6973696F 
 2800      6E203236 
 2800      31393037 
 2801 0378 622D696E 		.ascii	"b-interwork -gdwarf-2 -O0\000"
 2801      74657277 
 2801      6F726B20 
 2801      2D676477 
ARM GAS  C:\Users\embedded\AppData\Local\Temp\cc5AaADL.s 			page 56


 2801      6172662D 
 2802              	.LASF107:
 2803 0392 5F776374 		.ascii	"_wctomb_state\000"
 2803      6F6D625F 
 2803      73746174 
 2803      6500
 2804              	.LASF105:
 2805 03a0 5F6D626C 		.ascii	"_mblen_state\000"
 2805      656E5F73 
 2805      74617465 
 2805      00
 2806              	.LASF143:
 2807 03ad 626C696E 		.ascii	"blinkLeds\000"
 2807      6B4C6564 
 2807      7300
 2808              	.LASF1:
 2809 03b7 756E7369 		.ascii	"unsigned char\000"
 2809      676E6564 
 2809      20636861 
 2809      7200
 2810              	.LASF84:
 2811 03c5 5F6E6577 		.ascii	"_new\000"
 2811      00
 2812              	.LASF116:
 2813 03ca 5F685F65 		.ascii	"_h_errno\000"
 2813      72726E6F 
 2813      00
 2814              	.LASF6:
 2815 03d3 73686F72 		.ascii	"short int\000"
 2815      7420696E 
 2815      7400
 2816              	.LASF37:
 2817 03dd 5F5F746D 		.ascii	"__tm_yday\000"
 2817      5F796461 
 2817      7900
 2818              	.LASF47:
 2819 03e7 5F5F7362 		.ascii	"__sbuf\000"
 2819      756600
 2820              	.LASF81:
 2821 03ee 5F667265 		.ascii	"_freelist\000"
 2821      656C6973 
 2821      7400
 2822              	.LASF90:
 2823 03f8 5F5F4649 		.ascii	"__FILE\000"
 2823      4C4500
 2824              	.LASF21:
 2825 03ff 5F6D6273 		.ascii	"_mbstate_t\000"
 2825      74617465 
 2825      5F7400
 2826              	.LASF50:
 2827 040a 5F5F7346 		.ascii	"__sFILE\000"
 2827      494C4500 
 2828              	.LASF65:
 2829 0412 5F6D6273 		.ascii	"_mbstate\000"
 2829      74617465 
 2829      00
 2830              	.LASF103:
ARM GAS  C:\Users\embedded\AppData\Local\Temp\cc5AaADL.s 			page 57


 2831 041b 5F72616E 		.ascii	"_rand_next\000"
 2831      645F6E65 
 2831      787400
 2832              	.LASF93:
 2833 0426 5F696F62 		.ascii	"_iobs\000"
 2833      7300
 2834              	.LASF72:
 2835 042c 5F696E63 		.ascii	"_inc\000"
 2835      00
 2836              	.LASF45:
 2837 0431 5F696E64 		.ascii	"_ind\000"
 2837      00
 2838              	.LASF75:
 2839 0436 5F6C6F63 		.ascii	"_locale\000"
 2839      616C6500 
 2840              	.LASF77:
 2841 043e 5F5F636C 		.ascii	"__cleanup\000"
 2841      65616E75 
 2841      7000
 2842              	.LASF74:
 2843 0448 5F756E73 		.ascii	"_unspecified_locale_info\000"
 2843      70656369 
 2843      66696564 
 2843      5F6C6F63 
 2843      616C655F 
 2844              	.LASF9:
 2845 0461 54525545 		.ascii	"TRUE\000"
 2845      00
 2846              	.LASF67:
 2847 0466 5F726565 		.ascii	"_reent\000"
 2847      6E7400
 2848              	.LASF95:
 2849 046d 5F736565 		.ascii	"_seed\000"
 2849      6400
 2850              	.LASF19:
 2851 0473 5F5F636F 		.ascii	"__count\000"
 2851      756E7400 
 2852              	.LASF120:
 2853 047b 5F5F6C6F 		.ascii	"__lock\000"
 2853      636B00
 2854              	.LASF20:
 2855 0482 5F5F7661 		.ascii	"__value\000"
 2855      6C756500 
 2856              	.LASF57:
 2857 048a 5F736565 		.ascii	"_seek\000"
 2857      6B00
 2858              	.LASF122:
 2859 0490 5F696D70 		.ascii	"_impure_ptr\000"
 2859      7572655F 
 2859      70747200 
 2860              	.LASF15:
 2861 049c 5F66706F 		.ascii	"_fpos_t\000"
 2861      735F7400 
 2862              	.LASF68:
 2863 04a4 5F657272 		.ascii	"_errno\000"
 2863      6E6F00
 2864              	.LASF89:
ARM GAS  C:\Users\embedded\AppData\Local\Temp\cc5AaADL.s 			page 58


 2865 04ab 63686172 		.ascii	"char\000"
 2865      00
 2866              	.LASF136:
 2867 04b0 70657263 		.ascii	"percent\000"
 2867      656E7400 
 2868              	.LASF31:
 2869 04b8 5F5F746D 		.ascii	"__tm_min\000"
 2869      5F6D696E 
 2869      00
 2870              	.LASF130:
 2871 04c1 74656D70 		.ascii	"temperature\000"
 2871      65726174 
 2871      75726500 
 2872              	.LASF96:
 2873 04cd 5F6D756C 		.ascii	"_mult\000"
 2873      7400
 2874              	.LASF24:
 2875 04d3 5F6E6578 		.ascii	"_next\000"
 2875      7400
 2876              	.LASF99:
 2877 04d9 5F737472 		.ascii	"_strtok_last\000"
 2877      746F6B5F 
 2877      6C617374 
 2877      00
 2878              	.LASF42:
 2879 04e6 5F666E74 		.ascii	"_fntypes\000"
 2879      79706573 
 2879      00
 2880              	.LASF25:
 2881 04ef 5F6D6178 		.ascii	"_maxwds\000"
 2881      77647300 
 2882              	.LASF141:
 2883 04f7 70636139 		.ascii	"pca9532Init\000"
 2883      35333249 
 2883      6E697400 
 2884              	.LASF97:
 2885 0503 5F616464 		.ascii	"_add\000"
 2885      00
 2886              	.LASF23:
 2887 0508 5F5F554C 		.ascii	"__ULong\000"
 2887      6F6E6700 
 2888              	.LASF110:
 2889 0510 5F676574 		.ascii	"_getdate_err\000"
 2889      64617465 
 2889      5F657272 
 2889      00
 2890              	.LASF123:
 2891 051d 5F676C6F 		.ascii	"_global_impure_ptr\000"
 2891      62616C5F 
 2891      696D7075 
 2891      72655F70 
 2891      747200
 2892              	.LASF98:
 2893 0530 5F756E75 		.ascii	"_unused_rand\000"
 2893      7365645F 
 2893      72616E64 
 2893      00
ARM GAS  C:\Users\embedded\AppData\Local\Temp\cc5AaADL.s 			page 59


 2894              	.LASF27:
 2895 053d 5F776473 		.ascii	"_wds\000"
 2895      00
 2896              	.LASF36:
 2897 0542 5F5F746D 		.ascii	"__tm_wday\000"
 2897      5F776461 
 2897      7900
 2898              	.LASF91:
 2899 054c 5F676C75 		.ascii	"_glue\000"
 2899      6500
 2900              	.LASF118:
 2901 0552 5F6E6D61 		.ascii	"_nmalloc\000"
 2901      6C6C6F63 
 2901      00
 2902              	.LASF108:
 2903 055b 5F6C3634 		.ascii	"_l64a_buf\000"
 2903      615F6275 
 2903      6600
 2904              	.LASF86:
 2905 0565 5F736967 		.ascii	"_sig_func\000"
 2905      5F66756E 
 2905      6300
 2906              	.LASF60:
 2907 056f 5F6E6275 		.ascii	"_nbuf\000"
 2907      6600
 2908              	.LASF119:
 2909 0575 5F756E75 		.ascii	"_unused\000"
 2909      73656400 
 2910              	.LASF38:
 2911 057d 5F5F746D 		.ascii	"__tm_isdst\000"
 2911      5F697364 
 2911      737400
 2912              	.LASF101:
 2913 0588 5F6C6F63 		.ascii	"_localtime_buf\000"
 2913      616C7469 
 2913      6D655F62 
 2913      756600
 2914              	.LASF58:
 2915 0597 5F636C6F 		.ascii	"_close\000"
 2915      736500
 2916              	.LASF104:
 2917 059e 5F723438 		.ascii	"_r48\000"
 2917      00
 2918              	.LASF127:
 2919 05a3 69735469 		.ascii	"isTimeBeingSet\000"
 2919      6D654265 
 2919      696E6753 
 2919      657400
 2920              	.LASF106:
 2921 05b2 5F6D6274 		.ascii	"_mbtowc_state\000"
 2921      6F77635F 
 2921      73746174 
 2921      6500
 2922              	.LASF124:
 2923 05c0 6D794172 		.ascii	"myArray\000"
 2923      72617900 
 2924              	.LASF80:
ARM GAS  C:\Users\embedded\AppData\Local\Temp\cc5AaADL.s 			page 60


 2925 05c8 5F703573 		.ascii	"_p5s\000"
 2925      00
 2926              	.LASF140:
 2927 05cd 6D61696E 		.ascii	"main\000"
 2927      00
 2928              	.LASF33:
 2929 05d2 5F5F746D 		.ascii	"__tm_mday\000"
 2929      5F6D6461 
 2929      7900
 2930              		.ident	"GCC: (GNU Tools for Arm Embedded Processors 7-2018-q2-update) 7.3.1 20180622 (release) [AR
ARM GAS  C:\Users\embedded\AppData\Local\Temp\cc5AaADL.s 			page 61


DEFINED SYMBOLS
                            *ABS*:00000000 main.c
                            *COM*:00000001 myArray
C:\Users\embedded\AppData\Local\Temp\cc5AaADL.s:17     .rodata:00000000 $d
C:\Users\embedded\AppData\Local\Temp\cc5AaADL.s:40     .text:00000000 main
C:\Users\embedded\AppData\Local\Temp\cc5AaADL.s:48     .text:00000000 $t
C:\Users\embedded\AppData\Local\Temp\cc5AaADL.s:594    .text:00000388 $d

UNDEFINED SYMBOLS
i2cInit
pca9532Init
printf_init
lcdInit
lcdColor
lcdClrscr
memset
showTime
sdelay
setAlarm
mdelay
lcdGotoxy
lcdPuts
blinkLeds
beep
measureTemperature
calculateTemperatureValue
measureHumidity
sprintf
