ARM GAS  C:\Users\embedded\AppData\Local\Temp\cc6wDQE6.s 			page 1


   1              		.cpu arm7tdmi
   2              		.eabi_attribute 20, 1
   3              		.eabi_attribute 21, 1
   4              		.eabi_attribute 23, 3
   5              		.eabi_attribute 24, 1
   6              		.eabi_attribute 25, 1
   7              		.eabi_attribute 26, 1
   8              		.eabi_attribute 30, 6
   9              		.eabi_attribute 34, 0
  10              		.eabi_attribute 18, 4
  11              		.file	"pca9532.c"
  12              		.text
  13              	.Ltext0:
  14              		.cfi_sections	.debug_frame
  15              		.section	.rodata
  16              		.align	2
  17              	.LC0:
  18 0000 12       		.byte	18
  19 0001 97       		.byte	-105
  20 0002 80       		.byte	-128
  21 0003 4B       		.byte	75
  22 0004 C0       		.byte	-64
  23 0005 00       		.byte	0
  24 0006 00       		.byte	0
  25 0007 00       		.byte	0
  26 0008 00       		.byte	0
  27              		.text
  28              		.align	1
  29              		.global	pca9532Init
  30              		.syntax unified
  31              		.code	16
  32              		.thumb_func
  33              		.fpu softvfp
  34              		.type	pca9532Init, %function
  35              	pca9532Init:
  36              	.LFB0:
  37              		.file 1 "pca9532.c"
   1:pca9532.c     **** /******************************************************************************
   2:pca9532.c     ****  *
   3:pca9532.c     ****  * Copyright:
   4:pca9532.c     ****  *    (C) 2006 Embedded Artists AB
   5:pca9532.c     ****  *
   6:pca9532.c     ****  * File:
   7:pca9532.c     ****  *    pca9532.c
   8:pca9532.c     ****  *
   9:pca9532.c     ****  * Description:
  10:pca9532.c     ****  *    Implements hardware specific routines
  11:pca9532.c     ****  *
  12:pca9532.c     ****  *****************************************************************************/
  13:pca9532.c     **** 
  14:pca9532.c     **** /******************************************************************************
  15:pca9532.c     ****  * Includes
  16:pca9532.c     ****  *****************************************************************************/
  17:pca9532.c     **** #include "general.h"
  18:pca9532.c     **** #include <lpc2xxx.h>
  19:pca9532.c     **** #include <printf_P.h>
  20:pca9532.c     **** #include "i2c.h"
ARM GAS  C:\Users\embedded\AppData\Local\Temp\cc6wDQE6.s 			page 2


  21:pca9532.c     **** #include "pca9532.h"
  22:pca9532.c     **** #include "eeprom.h"
  23:pca9532.c     **** 
  24:pca9532.c     **** /******************************************************************************
  25:pca9532.c     ****  * Typedefs and defines
  26:pca9532.c     ****  *****************************************************************************/
  27:pca9532.c     **** 
  28:pca9532.c     **** 
  29:pca9532.c     **** /*****************************************************************************
  30:pca9532.c     ****  * Global variables
  31:pca9532.c     ****  ****************************************************************************/
  32:pca9532.c     **** 
  33:pca9532.c     **** /*****************************************************************************
  34:pca9532.c     ****  * Local variables
  35:pca9532.c     ****  ****************************************************************************/
  36:pca9532.c     **** 
  37:pca9532.c     **** /*****************************************************************************
  38:pca9532.c     ****  * Local prototypes
  39:pca9532.c     ****  ****************************************************************************/
  40:pca9532.c     **** 
  41:pca9532.c     **** 
  42:pca9532.c     **** /*****************************************************************************
  43:pca9532.c     ****  *
  44:pca9532.c     ****  * Description:
  45:pca9532.c     ****  *    Initialize the io-pins and find out if HW is ver 1.0 or ver 1.1
  46:pca9532.c     ****  *
  47:pca9532.c     ****  ****************************************************************************/
  48:pca9532.c     **** tBool
  49:pca9532.c     **** pca9532Init(void)
  50:pca9532.c     **** {
  38              		.loc 1 50 0
  39              		.cfi_startproc
  40              		@ Function supports interworking.
  41              		@ args = 0, pretend = 0, frame = 16
  42              		@ frame_needed = 1, uses_anonymous_args = 0
  43 0000 80B5     		push	{r7, lr}
  44              	.LCFI0:
  45              		.cfi_def_cfa_offset 8
  46              		.cfi_offset 7, -8
  47              		.cfi_offset 14, -4
  48 0002 84B0     		sub	sp, sp, #16
  49              	.LCFI1:
  50              		.cfi_def_cfa_offset 24
  51 0004 00AF     		add	r7, sp, #0
  52              	.LCFI2:
  53              		.cfi_def_cfa_register 7
  51:pca9532.c     ****   tU8 initCommand[] = {0x12, 0x97, 0x80, 0x4B, 0xC0, 0x00, 0x00, 0x00, 0x00};
  54              		.loc 1 51 0
  55 0006 3B1D     		adds	r3, r7, #4
  56 0008 0F4A     		ldr	r2, .L4
  57 000a 03CA     		ldmia	r2!, {r0, r1}
  58 000c 03C3     		stmia	r3!, {r0, r1}
  59 000e 1278     		ldrb	r2, [r2]
  60 0010 1A70     		strb	r2, [r3]
  52:pca9532.c     ****   //                                                         04 = LCD_RST# low
  53:pca9532.c     ****   //                                                         10 = BT_RST# low
  54:pca9532.c     **** 
ARM GAS  C:\Users\embedded\AppData\Local\Temp\cc6wDQE6.s 			page 3


  55:pca9532.c     ****   //initialize PCA9532
  56:pca9532.c     ****   tU8 returnedValue = FALSE;
  61              		.loc 1 56 0
  62 0012 0F23     		movs	r3, #15
  63 0014 FB18     		adds	r3, r7, r3
  64 0016 0022     		movs	r2, #0
  65 0018 1A70     		strb	r2, [r3]
  57:pca9532.c     ****   if (I2C_CODE_OK == pca9532(initCommand, sizeof(initCommand), NULL, 0))
  66              		.loc 1 57 0
  67 001a 381D     		adds	r0, r7, #4
  68 001c 0023     		movs	r3, #0
  69 001e 0022     		movs	r2, #0
  70 0020 0921     		movs	r1, #9
  71 0022 FFF7FEFF 		bl	pca9532
  72 0026 0300     		movs	r3, r0
  73 0028 012B     		cmp	r3, #1
  74 002a 03D1     		bne	.L2
  58:pca9532.c     ****   {
  59:pca9532.c     ****     returnedValue = TRUE;
  75              		.loc 1 59 0
  76 002c 0F23     		movs	r3, #15
  77 002e FB18     		adds	r3, r7, r3
  78 0030 0122     		movs	r2, #1
  79 0032 1A70     		strb	r2, [r3]
  80              	.L2:
  60:pca9532.c     ****   }
  61:pca9532.c     ****   return returnedValue;
  81              		.loc 1 61 0
  82 0034 0F23     		movs	r3, #15
  83 0036 FB18     		adds	r3, r7, r3
  84 0038 1B78     		ldrb	r3, [r3]
  62:pca9532.c     **** }
  85              		.loc 1 62 0
  86 003a 1800     		movs	r0, r3
  87 003c BD46     		mov	sp, r7
  88 003e 04B0     		add	sp, sp, #16
  89              		@ sp needed
  90 0040 80BC     		pop	{r7}
  91 0042 02BC     		pop	{r1}
  92 0044 0847     		bx	r1
  93              	.L5:
  94 0046 C046     		.align	2
  95              	.L4:
  96 0048 00000000 		.word	.LC0
  97              		.cfi_endproc
  98              	.LFE0:
  99              		.size	pca9532Init, .-pca9532Init
 100              		.align	1
 101              		.global	setPca9532Pin
 102              		.syntax unified
 103              		.code	16
 104              		.thumb_func
 105              		.fpu softvfp
 106              		.type	setPca9532Pin, %function
 107              	setPca9532Pin:
 108              	.LFB1:
  63:pca9532.c     **** 
ARM GAS  C:\Users\embedded\AppData\Local\Temp\cc6wDQE6.s 			page 4


  64:pca9532.c     **** 
  65:pca9532.c     **** /*****************************************************************************
  66:pca9532.c     ****  *
  67:pca9532.c     ****  * Description:
  68:pca9532.c     ****  *
  69:pca9532.c     ****  ****************************************************************************/
  70:pca9532.c     **** void
  71:pca9532.c     **** setPca9532Pin(tU8 pinNum, tU8 value)
  72:pca9532.c     **** {
 109              		.loc 1 72 0
 110              		.cfi_startproc
 111              		@ Function supports interworking.
 112              		@ args = 0, pretend = 0, frame = 16
 113              		@ frame_needed = 1, uses_anonymous_args = 0
 114 004c 90B5     		push	{r4, r7, lr}
 115              	.LCFI3:
 116              		.cfi_def_cfa_offset 12
 117              		.cfi_offset 4, -12
 118              		.cfi_offset 7, -8
 119              		.cfi_offset 14, -4
 120 004e 85B0     		sub	sp, sp, #20
 121              	.LCFI4:
 122              		.cfi_def_cfa_offset 32
 123 0050 00AF     		add	r7, sp, #0
 124              	.LCFI5:
 125              		.cfi_def_cfa_register 7
 126 0052 0200     		movs	r2, r0
 127 0054 FB1D     		adds	r3, r7, #7
 128 0056 1A70     		strb	r2, [r3]
 129 0058 BB1D     		adds	r3, r7, #6
 130 005a 0A1C     		adds	r2, r1, #0
 131 005c 1A70     		strb	r2, [r3]
  73:pca9532.c     ****   tU8 command[] = {0x00, 0x00};
 132              		.loc 1 73 0
 133 005e 0C21     		movs	r1, #12
 134 0060 7B18     		adds	r3, r7, r1
 135 0062 0022     		movs	r2, #0
 136 0064 1A70     		strb	r2, [r3]
 137 0066 7B18     		adds	r3, r7, r1
 138 0068 0022     		movs	r2, #0
 139 006a 5A70     		strb	r2, [r3, #1]
  74:pca9532.c     ****   tU8 regValue;
  75:pca9532.c     ****   tU8 mask;
  76:pca9532.c     ****   
  77:pca9532.c     ****   if (pinNum < (tU8)4) 
 140              		.loc 1 77 0
 141 006c FB1D     		adds	r3, r7, #7
 142 006e 1B78     		ldrb	r3, [r3]
 143 0070 032B     		cmp	r3, #3
 144 0072 04D8     		bhi	.L7
  78:pca9532.c     ****   {
  79:pca9532.c     ****     command[0] = 0x06;
 145              		.loc 1 79 0
 146 0074 0C23     		movs	r3, #12
 147 0076 FB18     		adds	r3, r7, r3
 148 0078 0622     		movs	r2, #6
 149 007a 1A70     		strb	r2, [r3]
ARM GAS  C:\Users\embedded\AppData\Local\Temp\cc6wDQE6.s 			page 5


 150 007c 15E0     		b	.L8
 151              	.L7:
  80:pca9532.c     ****   }
  81:pca9532.c     ****   else if (pinNum < (tU8)8) 
 152              		.loc 1 81 0
 153 007e FB1D     		adds	r3, r7, #7
 154 0080 1B78     		ldrb	r3, [r3]
 155 0082 072B     		cmp	r3, #7
 156 0084 04D8     		bhi	.L9
  82:pca9532.c     ****   {
  83:pca9532.c     ****     command[0] = 0x07;
 157              		.loc 1 83 0
 158 0086 0C23     		movs	r3, #12
 159 0088 FB18     		adds	r3, r7, r3
 160 008a 0722     		movs	r2, #7
 161 008c 1A70     		strb	r2, [r3]
 162 008e 0CE0     		b	.L8
 163              	.L9:
  84:pca9532.c     ****   }
  85:pca9532.c     ****   else if (pinNum < (tU8)12) 
 164              		.loc 1 85 0
 165 0090 FB1D     		adds	r3, r7, #7
 166 0092 1B78     		ldrb	r3, [r3]
 167 0094 0B2B     		cmp	r3, #11
 168 0096 04D8     		bhi	.L10
  86:pca9532.c     ****   {
  87:pca9532.c     ****     command[0] = 0x08;
 169              		.loc 1 87 0
 170 0098 0C23     		movs	r3, #12
 171 009a FB18     		adds	r3, r7, r3
 172 009c 0822     		movs	r2, #8
 173 009e 1A70     		strb	r2, [r3]
 174 00a0 03E0     		b	.L8
 175              	.L10:
  88:pca9532.c     ****   }
  89:pca9532.c     ****   else
  90:pca9532.c     ****   {
  91:pca9532.c     ****     command[0] = 0x09;
 176              		.loc 1 91 0
 177 00a2 0C23     		movs	r3, #12
 178 00a4 FB18     		adds	r3, r7, r3
 179 00a6 0922     		movs	r2, #9
 180 00a8 1A70     		strb	r2, [r3]
 181              	.L8:
  92:pca9532.c     ****   }
  93:pca9532.c     ****     
  94:pca9532.c     ****   pca9532(command, 1, &regValue, 1);
 182              		.loc 1 94 0
 183 00aa 0B24     		movs	r4, #11
 184 00ac 3A19     		adds	r2, r7, r4
 185 00ae 0C23     		movs	r3, #12
 186 00b0 F818     		adds	r0, r7, r3
 187 00b2 0123     		movs	r3, #1
 188 00b4 0121     		movs	r1, #1
 189 00b6 FFF7FEFF 		bl	pca9532
  95:pca9532.c     ****   
  96:pca9532.c     ****   mask = ((tU8)3 << ((tU8)2 * (tU8)(pinNum % (tU8)4)));
ARM GAS  C:\Users\embedded\AppData\Local\Temp\cc6wDQE6.s 			page 6


 190              		.loc 1 96 0
 191 00ba FB1D     		adds	r3, r7, #7
 192 00bc 1B78     		ldrb	r3, [r3]
 193 00be 0322     		movs	r2, #3
 194 00c0 1340     		ands	r3, r2
 195 00c2 5B00     		lsls	r3, r3, #1
 196 00c4 0322     		movs	r2, #3
 197 00c6 9A40     		lsls	r2, r2, r3
 198 00c8 0F21     		movs	r1, #15
 199 00ca 7B18     		adds	r3, r7, r1
 200 00cc 1A70     		strb	r2, [r3]
  97:pca9532.c     ****   
  98:pca9532.c     ****   regValue &= ~mask;
 201              		.loc 1 98 0
 202 00ce 7B18     		adds	r3, r7, r1
 203 00d0 1B78     		ldrb	r3, [r3]
 204 00d2 1B06     		lsls	r3, r3, #24
 205 00d4 1B16     		asrs	r3, r3, #24
 206 00d6 DB43     		mvns	r3, r3
 207 00d8 1B06     		lsls	r3, r3, #24
 208 00da 1B16     		asrs	r3, r3, #24
 209 00dc 3A19     		adds	r2, r7, r4
 210 00de 1278     		ldrb	r2, [r2]
 211 00e0 1206     		lsls	r2, r2, #24
 212 00e2 1216     		asrs	r2, r2, #24
 213 00e4 1340     		ands	r3, r2
 214 00e6 1B06     		lsls	r3, r3, #24
 215 00e8 1B16     		asrs	r3, r3, #24
 216 00ea 1B06     		lsls	r3, r3, #24
 217 00ec 1A0E     		lsrs	r2, r3, #24
 218 00ee 3B19     		adds	r3, r7, r4
 219 00f0 1A70     		strb	r2, [r3]
  99:pca9532.c     ****   
 100:pca9532.c     ****   if (value == (tU8)0)
 220              		.loc 1 100 0
 221 00f2 BB1D     		adds	r3, r7, #6
 222 00f4 1B78     		ldrb	r3, [r3]
 223 00f6 002B     		cmp	r3, #0
 224 00f8 04D1     		bne	.L11
 101:pca9532.c     ****   {
 102:pca9532.c     ****     // gdy wartość = 0 - wyłączamy diodę
 103:pca9532.c     ****     command[1] = 0x00;
 225              		.loc 1 103 0
 226 00fa 0C23     		movs	r3, #12
 227 00fc FB18     		adds	r3, r7, r3
 228 00fe 0022     		movs	r2, #0
 229 0100 5A70     		strb	r2, [r3, #1]
 230 0102 15E0     		b	.L12
 231              	.L11:
 104:pca9532.c     ****   }
 105:pca9532.c     ****   else if (value == (tU8)1)
 232              		.loc 1 105 0
 233 0104 BB1D     		adds	r3, r7, #6
 234 0106 1B78     		ldrb	r3, [r3]
 235 0108 012B     		cmp	r3, #1
 236 010a 04D1     		bne	.L13
 106:pca9532.c     ****   {
ARM GAS  C:\Users\embedded\AppData\Local\Temp\cc6wDQE6.s 			page 7


 107:pca9532.c     ****     // gdy wartość = 1 - włączamy diodę, która używa szybkość mrugania PWM0 
 108:pca9532.c     ****     command[1] = 0x02;
 237              		.loc 1 108 0
 238 010c 0C23     		movs	r3, #12
 239 010e FB18     		adds	r3, r7, r3
 240 0110 0222     		movs	r2, #2
 241 0112 5A70     		strb	r2, [r3, #1]
 242 0114 0CE0     		b	.L12
 243              	.L13:
 109:pca9532.c     ****   }
 110:pca9532.c     ****     else if (value == (tU8)2)
 244              		.loc 1 110 0
 245 0116 BB1D     		adds	r3, r7, #6
 246 0118 1B78     		ldrb	r3, [r3]
 247 011a 022B     		cmp	r3, #2
 248 011c 04D1     		bne	.L14
 111:pca9532.c     ****   {
 112:pca9532.c     ****     //gdy wartość = 2 - włączamy diodę, która używa szybkość mrugania PWM1 
 113:pca9532.c     ****     command[1] = 0x03;
 249              		.loc 1 113 0
 250 011e 0C23     		movs	r3, #12
 251 0120 FB18     		adds	r3, r7, r3
 252 0122 0322     		movs	r2, #3
 253 0124 5A70     		strb	r2, [r3, #1]
 254 0126 03E0     		b	.L12
 255              	.L14:
 114:pca9532.c     ****   }
 115:pca9532.c     ****   else
 116:pca9532.c     ****   {
 117:pca9532.c     ****     // gdy inna wartość =  włączamy diodę, która po prostu się świeci
 118:pca9532.c     ****     command[1] = 0x01; 
 256              		.loc 1 118 0
 257 0128 0C23     		movs	r3, #12
 258 012a FB18     		adds	r3, r7, r3
 259 012c 0122     		movs	r2, #1
 260 012e 5A70     		strb	r2, [r3, #1]
 261              	.L12:
 119:pca9532.c     ****   }
 120:pca9532.c     ****     
 121:pca9532.c     ****   command[1] = (command[1] << ((tU8)2 * (pinNum % (tU8)4)));
 262              		.loc 1 121 0
 263 0130 0C20     		movs	r0, #12
 264 0132 3B18     		adds	r3, r7, r0
 265 0134 5B78     		ldrb	r3, [r3, #1]
 266 0136 1900     		movs	r1, r3
 267 0138 FB1D     		adds	r3, r7, #7
 268 013a 1B78     		ldrb	r3, [r3]
 269 013c 0322     		movs	r2, #3
 270 013e 1340     		ands	r3, r2
 271 0140 5B00     		lsls	r3, r3, #1
 272 0142 9940     		lsls	r1, r1, r3
 273 0144 0B00     		movs	r3, r1
 274 0146 1B06     		lsls	r3, r3, #24
 275 0148 1A0E     		lsrs	r2, r3, #24
 276 014a 3B18     		adds	r3, r7, r0
 277 014c 5A70     		strb	r2, [r3, #1]
 122:pca9532.c     ****   
ARM GAS  C:\Users\embedded\AppData\Local\Temp\cc6wDQE6.s 			page 8


 123:pca9532.c     ****   command[1] |= regValue;
 278              		.loc 1 123 0
 279 014e 3B18     		adds	r3, r7, r0
 280 0150 5A78     		ldrb	r2, [r3, #1]
 281 0152 0B23     		movs	r3, #11
 282 0154 FB18     		adds	r3, r7, r3
 283 0156 1B78     		ldrb	r3, [r3]
 284 0158 1343     		orrs	r3, r2
 285 015a 1B06     		lsls	r3, r3, #24
 286 015c 1A0E     		lsrs	r2, r3, #24
 287 015e 3B18     		adds	r3, r7, r0
 288 0160 5A70     		strb	r2, [r3, #1]
 124:pca9532.c     **** 
 125:pca9532.c     ****   pca9532(command, sizeof(command), NULL, 0);
 289              		.loc 1 125 0
 290 0162 3818     		adds	r0, r7, r0
 291 0164 0023     		movs	r3, #0
 292 0166 0022     		movs	r2, #0
 293 0168 0221     		movs	r1, #2
 294 016a FFF7FEFF 		bl	pca9532
 126:pca9532.c     **** }
 295              		.loc 1 126 0
 296 016e C046     		nop
 297 0170 BD46     		mov	sp, r7
 298 0172 05B0     		add	sp, sp, #20
 299              		@ sp needed
 300 0174 90BC     		pop	{r4, r7}
 301 0176 01BC     		pop	{r0}
 302 0178 0047     		bx	r0
 303              		.cfi_endproc
 304              	.LFE1:
 305              		.size	setPca9532Pin, .-setPca9532Pin
 306              		.align	1
 307              		.global	getPca9532Pin
 308              		.syntax unified
 309              		.code	16
 310              		.thumb_func
 311              		.fpu softvfp
 312              		.type	getPca9532Pin, %function
 313              	getPca9532Pin:
 314              	.LFB2:
 127:pca9532.c     **** 
 128:pca9532.c     **** 
 129:pca9532.c     **** /*****************************************************************************
 130:pca9532.c     ****  *
 131:pca9532.c     ****  * Description:
 132:pca9532.c     ****  *
 133:pca9532.c     ****  ****************************************************************************/
 134:pca9532.c     **** tU16
 135:pca9532.c     **** getPca9532Pin(void)
 136:pca9532.c     **** {
 315              		.loc 1 136 0
 316              		.cfi_startproc
 317              		@ Function supports interworking.
 318              		@ args = 0, pretend = 0, frame = 8
 319              		@ frame_needed = 1, uses_anonymous_args = 0
 320 017a 80B5     		push	{r7, lr}
ARM GAS  C:\Users\embedded\AppData\Local\Temp\cc6wDQE6.s 			page 9


 321              	.LCFI6:
 322              		.cfi_def_cfa_offset 8
 323              		.cfi_offset 7, -8
 324              		.cfi_offset 14, -4
 325 017c 82B0     		sub	sp, sp, #8
 326              	.LCFI7:
 327              		.cfi_def_cfa_offset 16
 328 017e 00AF     		add	r7, sp, #0
 329              	.LCFI8:
 330              		.cfi_def_cfa_register 7
 137:pca9532.c     ****   tU8 command[] = {0x19};
 331              		.loc 1 137 0
 332 0180 3B1D     		adds	r3, r7, #4
 333 0182 1922     		movs	r2, #25
 334 0184 1A70     		strb	r2, [r3]
 138:pca9532.c     ****   tU8 regValue[3];
 139:pca9532.c     ****   
 140:pca9532.c     ****   pca9532(command, 1, regValue, 3);
 335              		.loc 1 140 0
 336 0186 3A00     		movs	r2, r7
 337 0188 381D     		adds	r0, r7, #4
 338 018a 0323     		movs	r3, #3
 339 018c 0121     		movs	r1, #1
 340 018e FFF7FEFF 		bl	pca9532
 141:pca9532.c     ****   
 142:pca9532.c     ****   return (tU16)regValue[1] | ((tU16)regValue[2] << 8);
 341              		.loc 1 142 0
 342 0192 3B00     		movs	r3, r7
 343 0194 5B78     		ldrb	r3, [r3, #1]
 344 0196 1A04     		lsls	r2, r3, #16
 345 0198 1214     		asrs	r2, r2, #16
 346 019a 3B00     		movs	r3, r7
 347 019c 9B78     		ldrb	r3, [r3, #2]
 348 019e 1B02     		lsls	r3, r3, #8
 349 01a0 1B04     		lsls	r3, r3, #16
 350 01a2 1B14     		asrs	r3, r3, #16
 351 01a4 1343     		orrs	r3, r2
 352 01a6 1B04     		lsls	r3, r3, #16
 353 01a8 1B14     		asrs	r3, r3, #16
 354 01aa 1B04     		lsls	r3, r3, #16
 355 01ac 1B0C     		lsrs	r3, r3, #16
 143:pca9532.c     **** }
 356              		.loc 1 143 0
 357 01ae 1800     		movs	r0, r3
 358 01b0 BD46     		mov	sp, r7
 359 01b2 02B0     		add	sp, sp, #8
 360              		@ sp needed
 361 01b4 80BC     		pop	{r7}
 362 01b6 02BC     		pop	{r1}
 363 01b8 0847     		bx	r1
 364              		.cfi_endproc
 365              	.LFE2:
 366              		.size	getPca9532Pin, .-getPca9532Pin
 367              		.align	1
 368              		.global	blinkLeds
 369              		.syntax unified
 370              		.code	16
ARM GAS  C:\Users\embedded\AppData\Local\Temp\cc6wDQE6.s 			page 10


 371              		.thumb_func
 372              		.fpu softvfp
 373              		.type	blinkLeds, %function
 374              	blinkLeds:
 375              	.LFB3:
 144:pca9532.c     **** 
 145:pca9532.c     **** 
 146:pca9532.c     **** /*
 147:pca9532.c     ****  * @brief   Funckja blinkLeds wykorzystywana jest do kontrolwoania 16 LED-ów o numerach 0-15. Dzia
 148:pca9532.c     ****  *			przy wartości parametru value == 1 polega na ustawieniu zewnętrznych LED-ów, tj. LED numer 
 149:pca9532.c     ****  *			na mruganie z szybkością PWM0 - diody te mrugają co 1 sekunde z mniejszą jasnością niż 
 150:pca9532.c     ****  *			które mrugają z szybkością PWM1 co 0.5 sekundy. Gdy parametr value == 0, wyłączamy wszys
 151:pca9532.c     ****  *
 152:pca9532.c     ****  * @param   value 
 153:pca9532.c     ****  *          Zmienna mówiąca czy włączyć czy wyłączyc diody
 154:pca9532.c     ****  * 
 155:pca9532.c     ****  * @param   pca9532Present 
 156:pca9532.c     ****  *          Zmienna sprawdzająca czy PCA9532 zostało zainicjalizowane.
 157:pca9532.c     ****  * @returns
 158:pca9532.c     ****  *          void
 159:pca9532.c     ****  * 
 160:pca9532.c     ****  * @side effects: 
 161:pca9532.c     ****  *          !!!!!!!!!!!!!!!!!!!!!!!!!!!!!!!!!!!!!!!!!!!!!!!!!!!!!!!!!!!!!!!!!!!!!!!!!!!!!!!!!!!!!!!
 162:pca9532.c     ****  */
 163:pca9532.c     **** void 
 164:pca9532.c     **** blinkLeds(tU8 value, tU8 pca9532Present)
 165:pca9532.c     **** {
 376              		.loc 1 165 0
 377              		.cfi_startproc
 378              		@ Function supports interworking.
 379              		@ args = 0, pretend = 0, frame = 16
 380              		@ frame_needed = 1, uses_anonymous_args = 0
 381 01ba 90B5     		push	{r4, r7, lr}
 382              	.LCFI9:
 383              		.cfi_def_cfa_offset 12
 384              		.cfi_offset 4, -12
 385              		.cfi_offset 7, -8
 386              		.cfi_offset 14, -4
 387 01bc 85B0     		sub	sp, sp, #20
 388              	.LCFI10:
 389              		.cfi_def_cfa_offset 32
 390 01be 00AF     		add	r7, sp, #0
 391              	.LCFI11:
 392              		.cfi_def_cfa_register 7
 393 01c0 0200     		movs	r2, r0
 394 01c2 FB1D     		adds	r3, r7, #7
 395 01c4 1A70     		strb	r2, [r3]
 396 01c6 BB1D     		adds	r3, r7, #6
 397 01c8 0A1C     		adds	r2, r1, #0
 398 01ca 1A70     		strb	r2, [r3]
 166:pca9532.c     **** 	 IODIR |= 0x00260000; //RGB           NIE wiadomo czy to potrzebne w ogole
 399              		.loc 1 166 0
 400 01cc 474B     		ldr	r3, .L28
 401 01ce 1A68     		ldr	r2, [r3]
 402 01d0 464B     		ldr	r3, .L28
 403 01d2 9821     		movs	r1, #152
 404 01d4 8903     		lsls	r1, r1, #14
ARM GAS  C:\Users\embedded\AppData\Local\Temp\cc6wDQE6.s 			page 11


 405 01d6 0A43     		orrs	r2, r1
 406 01d8 1A60     		str	r2, [r3]
 167:pca9532.c     **** 	 IOSET = 0x00260000;
 407              		.loc 1 167 0
 408 01da 454B     		ldr	r3, .L28+4
 409 01dc 9822     		movs	r2, #152
 410 01de 9203     		lsls	r2, r2, #14
 411 01e0 1A60     		str	r2, [r3]
 168:pca9532.c     **** 
 169:pca9532.c     **** 	 IODIR1 |= 0x000F0000; //LEDs
 412              		.loc 1 169 0
 413 01e2 444B     		ldr	r3, .L28+8
 414 01e4 1A68     		ldr	r2, [r3]
 415 01e6 434B     		ldr	r3, .L28+8
 416 01e8 F021     		movs	r1, #240
 417 01ea 0903     		lsls	r1, r1, #12
 418 01ec 0A43     		orrs	r2, r1
 419 01ee 1A60     		str	r2, [r3]
 170:pca9532.c     **** 	 IOSET1 = 0x000F0000;
 420              		.loc 1 170 0
 421 01f0 414B     		ldr	r3, .L28+12
 422 01f2 F022     		movs	r2, #240
 423 01f4 1203     		lsls	r2, r2, #12
 424 01f6 1A60     		str	r2, [r3]
 171:pca9532.c     **** 	 IOCLR1 = 0x00030000;
 425              		.loc 1 171 0
 426 01f8 404B     		ldr	r3, .L28+16
 427 01fa C022     		movs	r2, #192
 428 01fc 9202     		lsls	r2, r2, #10
 429 01fe 1A60     		str	r2, [r3]
 172:pca9532.c     **** 	 IOCLR1 = 0x00050000;
 430              		.loc 1 172 0
 431 0200 3E4B     		ldr	r3, .L28+16
 432 0202 A022     		movs	r2, #160
 433 0204 D202     		lsls	r2, r2, #11
 434 0206 1A60     		str	r2, [r3]
 173:pca9532.c     **** 	 IOCLR1 = 0x000c0000;
 435              		.loc 1 173 0
 436 0208 3C4B     		ldr	r3, .L28+16
 437 020a C022     		movs	r2, #192
 438 020c 1203     		lsls	r2, r2, #12
 439 020e 1A60     		str	r2, [r3]
 174:pca9532.c     **** 	 IOCLR1 = 0x00090000;
 440              		.loc 1 174 0
 441 0210 3A4B     		ldr	r3, .L28+16
 442 0212 9022     		movs	r2, #144
 443 0214 1203     		lsls	r2, r2, #12
 444 0216 1A60     		str	r2, [r3]
 175:pca9532.c     **** 	 IOSET1 = 0x000F0000;
 445              		.loc 1 175 0
 446 0218 374B     		ldr	r3, .L28+12
 447 021a F022     		movs	r2, #240
 448 021c 1203     		lsls	r2, r2, #12
 449 021e 1A60     		str	r2, [r3]
 176:pca9532.c     **** 	 IODIR1 &= ~0x00F00000; //Keys
 450              		.loc 1 176 0
 451 0220 344B     		ldr	r3, .L28+8
ARM GAS  C:\Users\embedded\AppData\Local\Temp\cc6wDQE6.s 			page 12


 452 0222 1A68     		ldr	r2, [r3]
 453 0224 334B     		ldr	r3, .L28+8
 454 0226 3649     		ldr	r1, .L28+20
 455 0228 0A40     		ands	r2, r1
 456 022a 1A60     		str	r2, [r3]
 177:pca9532.c     ****   if ((tU8)TRUE == pca9532Present)
 457              		.loc 1 177 0
 458 022c BB1D     		adds	r3, r7, #6
 459 022e 1B78     		ldrb	r3, [r3]
 460 0230 012B     		cmp	r3, #1
 461 0232 55D1     		bne	.L27
 462              	.LBB2:
 178:pca9532.c     ****   {
 179:pca9532.c     **** 	tU8 i = 0;
 463              		.loc 1 179 0
 464 0234 0F23     		movs	r3, #15
 465 0236 FB18     		adds	r3, r7, r3
 466 0238 0022     		movs	r2, #0
 467 023a 1A70     		strb	r2, [r3]
 180:pca9532.c     ****     tU8 j = 0;
 468              		.loc 1 180 0
 469 023c 0E23     		movs	r3, #14
 470 023e FB18     		adds	r3, r7, r3
 471 0240 0022     		movs	r2, #0
 472 0242 1A70     		strb	r2, [r3]
 181:pca9532.c     ****     if (value == (tU8)1)
 473              		.loc 1 181 0
 474 0244 FB1D     		adds	r3, r7, #7
 475 0246 1B78     		ldrb	r3, [r3]
 476 0248 012B     		cmp	r3, #1
 477 024a 33D1     		bne	.L19
 182:pca9532.c     ****     {
 183:pca9532.c     ****     	for (i = (tU8)0; i < (tU8)16; i = i + (tU8)1)
 478              		.loc 1 183 0
 479 024c 0F23     		movs	r3, #15
 480 024e FB18     		adds	r3, r7, r3
 481 0250 0022     		movs	r2, #0
 482 0252 1A70     		strb	r2, [r3]
 483 0254 28E0     		b	.L20
 484              	.L24:
 184:pca9532.c     ****     	{
 185:pca9532.c     **** 			if(i == (tU8)0 || i == (tU8)7 || i == (tU8)8 || i == (tU8)15)
 485              		.loc 1 185 0
 486 0256 0F23     		movs	r3, #15
 487 0258 FB18     		adds	r3, r7, r3
 488 025a 1B78     		ldrb	r3, [r3]
 489 025c 002B     		cmp	r3, #0
 490 025e 0ED0     		beq	.L21
 491              		.loc 1 185 0 is_stmt 0 discriminator 1
 492 0260 0F23     		movs	r3, #15
 493 0262 FB18     		adds	r3, r7, r3
 494 0264 1B78     		ldrb	r3, [r3]
 495 0266 072B     		cmp	r3, #7
 496 0268 09D0     		beq	.L21
 497              		.loc 1 185 0 discriminator 2
 498 026a 0F23     		movs	r3, #15
 499 026c FB18     		adds	r3, r7, r3
ARM GAS  C:\Users\embedded\AppData\Local\Temp\cc6wDQE6.s 			page 13


 500 026e 1B78     		ldrb	r3, [r3]
 501 0270 082B     		cmp	r3, #8
 502 0272 04D0     		beq	.L21
 503              		.loc 1 185 0 discriminator 3
 504 0274 0F23     		movs	r3, #15
 505 0276 FB18     		adds	r3, r7, r3
 506 0278 1B78     		ldrb	r3, [r3]
 507 027a 0F2B     		cmp	r3, #15
 508 027c 07D1     		bne	.L22
 509              	.L21:
 186:pca9532.c     **** 			{
 187:pca9532.c     **** 			setPca9532Pin(i, 1);
 510              		.loc 1 187 0 is_stmt 1
 511 027e 0F23     		movs	r3, #15
 512 0280 FB18     		adds	r3, r7, r3
 513 0282 1B78     		ldrb	r3, [r3]
 514 0284 0121     		movs	r1, #1
 515 0286 1800     		movs	r0, r3
 516 0288 FFF7FEFF 		bl	setPca9532Pin
 517 028c 06E0     		b	.L23
 518              	.L22:
 188:pca9532.c     **** 			}
 189:pca9532.c     **** 			else 
 190:pca9532.c     **** 			{
 191:pca9532.c     **** 			setPca9532Pin(i, 2);
 519              		.loc 1 191 0
 520 028e 0F23     		movs	r3, #15
 521 0290 FB18     		adds	r3, r7, r3
 522 0292 1B78     		ldrb	r3, [r3]
 523 0294 0221     		movs	r1, #2
 524 0296 1800     		movs	r0, r3
 525 0298 FFF7FEFF 		bl	setPca9532Pin
 526              	.L23:
 183:pca9532.c     ****     	{
 527              		.loc 1 183 0 discriminator 2
 528 029c 0F22     		movs	r2, #15
 529 029e BB18     		adds	r3, r7, r2
 530 02a0 BA18     		adds	r2, r7, r2
 531 02a2 1278     		ldrb	r2, [r2]
 532 02a4 0132     		adds	r2, r2, #1
 533 02a6 1A70     		strb	r2, [r3]
 534              	.L20:
 183:pca9532.c     ****     	{
 535              		.loc 1 183 0 is_stmt 0 discriminator 1
 536 02a8 0F23     		movs	r3, #15
 537 02aa FB18     		adds	r3, r7, r3
 538 02ac 1B78     		ldrb	r3, [r3]
 539 02ae 0F2B     		cmp	r3, #15
 540 02b0 D1D9     		bls	.L24
 541              	.LBE2:
 192:pca9532.c     **** 			}
 193:pca9532.c     ****     	}
 194:pca9532.c     ****     }
 195:pca9532.c     ****     else 
 196:pca9532.c     ****     {
 197:pca9532.c     **** 		for (i = (tU8)0; i < (tU8)16; i = i + (tU8)1)
 198:pca9532.c     **** 		{
ARM GAS  C:\Users\embedded\AppData\Local\Temp\cc6wDQE6.s 			page 14


 199:pca9532.c     **** 			setPca9532Pin(i, 0);
 200:pca9532.c     **** 		}
 201:pca9532.c     ****     }
 202:pca9532.c     ****   }
 203:pca9532.c     **** }
 542              		.loc 1 203 0 is_stmt 1
 543 02b2 15E0     		b	.L27
 544              	.L19:
 545              	.LBB3:
 197:pca9532.c     **** 		{
 546              		.loc 1 197 0
 547 02b4 0F23     		movs	r3, #15
 548 02b6 FB18     		adds	r3, r7, r3
 549 02b8 0022     		movs	r2, #0
 550 02ba 1A70     		strb	r2, [r3]
 551 02bc 0BE0     		b	.L25
 552              	.L26:
 199:pca9532.c     **** 		}
 553              		.loc 1 199 0 discriminator 3
 554 02be 0F24     		movs	r4, #15
 555 02c0 3B19     		adds	r3, r7, r4
 556 02c2 1B78     		ldrb	r3, [r3]
 557 02c4 0021     		movs	r1, #0
 558 02c6 1800     		movs	r0, r3
 559 02c8 FFF7FEFF 		bl	setPca9532Pin
 197:pca9532.c     **** 		{
 560              		.loc 1 197 0 discriminator 3
 561 02cc 3B19     		adds	r3, r7, r4
 562 02ce 3A19     		adds	r2, r7, r4
 563 02d0 1278     		ldrb	r2, [r2]
 564 02d2 0132     		adds	r2, r2, #1
 565 02d4 1A70     		strb	r2, [r3]
 566              	.L25:
 197:pca9532.c     **** 		{
 567              		.loc 1 197 0 is_stmt 0 discriminator 1
 568 02d6 0F23     		movs	r3, #15
 569 02d8 FB18     		adds	r3, r7, r3
 570 02da 1B78     		ldrb	r3, [r3]
 571 02dc 0F2B     		cmp	r3, #15
 572 02de EED9     		bls	.L26
 573              	.L27:
 574              	.LBE3:
 575              		.loc 1 203 0 is_stmt 1
 576 02e0 C046     		nop
 577 02e2 BD46     		mov	sp, r7
 578 02e4 05B0     		add	sp, sp, #20
 579              		@ sp needed
 580 02e6 90BC     		pop	{r4, r7}
 581 02e8 01BC     		pop	{r0}
 582 02ea 0047     		bx	r0
 583              	.L29:
 584              		.align	2
 585              	.L28:
 586 02ec 088002E0 		.word	-536707064
 587 02f0 048002E0 		.word	-536707068
 588 02f4 188002E0 		.word	-536707048
 589 02f8 148002E0 		.word	-536707052
ARM GAS  C:\Users\embedded\AppData\Local\Temp\cc6wDQE6.s 			page 15


 590 02fc 1C8002E0 		.word	-536707044
 591 0300 FFFF0FFF 		.word	-15728641
 592              		.cfi_endproc
 593              	.LFE3:
 594              		.size	blinkLeds, .-blinkLeds
 595              	.Letext0:
 596              		.file 2 "general.h"