ARM GAS  C:\Users\embedded\AppData\Local\Temp\ccWxIqiQ.s 			page 1


   1              		.cpu arm7tdmi
   2              		.eabi_attribute 20, 1
   3              		.eabi_attribute 21, 1
   4              		.eabi_attribute 23, 3
   5              		.eabi_attribute 24, 1
   6              		.eabi_attribute 25, 1
   7              		.eabi_attribute 26, 1
   8              		.eabi_attribute 30, 6
   9              		.eabi_attribute 34, 0
  10              		.eabi_attribute 18, 4
  11              		.file	"pca9532.c"
  12              		.text
  13              	.Ltext0:
  14              		.cfi_sections	.debug_frame
  15              		.section	.rodata
  16              		.align	2
  17              	.LC0:
  18 0000 12       		.byte	18
  19 0001 97       		.byte	-105
  20 0002 80       		.byte	-128
  21 0003 00       		.byte	0
  22 0004 40       		.byte	64
  23 0005 00       		.byte	0
  24 0006 00       		.byte	0
  25 0007 00       		.byte	0
  26 0008 00       		.byte	0
  27              		.text
  28              		.align	1
  29              		.global	pca9532Init
  30              		.syntax unified
  31              		.code	16
  32              		.thumb_func
  33              		.fpu softvfp
  34              		.type	pca9532Init, %function
  35              	pca9532Init:
  36              	.LFB0:
  37              		.file 1 "pca9532.c"
   1:pca9532.c     **** /******************************************************************************
   2:pca9532.c     ****  *
   3:pca9532.c     ****  * Copyright:
   4:pca9532.c     ****  *    (C) 2006 Embedded Artists AB
   5:pca9532.c     ****  *
   6:pca9532.c     ****  * File:
   7:pca9532.c     ****  *    pca9532.c
   8:pca9532.c     ****  *
   9:pca9532.c     ****  * Description:
  10:pca9532.c     ****  *    Implements hardware specific routines
  11:pca9532.c     ****  *
  12:pca9532.c     ****  *****************************************************************************/
  13:pca9532.c     **** 
  14:pca9532.c     **** /******************************************************************************
  15:pca9532.c     ****  * Includes
  16:pca9532.c     ****  *****************************************************************************/
  17:pca9532.c     **** #include "general.h"
  18:pca9532.c     **** #include <lpc2xxx.h>
  19:pca9532.c     **** #include <printf_P.h>
  20:pca9532.c     **** #include "i2c.h"
ARM GAS  C:\Users\embedded\AppData\Local\Temp\ccWxIqiQ.s 			page 2


  21:pca9532.c     **** #include "pca9532.h"
  22:pca9532.c     **** #include "eeprom.h"
  23:pca9532.c     **** 
  24:pca9532.c     **** /******************************************************************************
  25:pca9532.c     ****  * Typedefs and defines
  26:pca9532.c     ****  *****************************************************************************/
  27:pca9532.c     **** 
  28:pca9532.c     **** 
  29:pca9532.c     **** /*****************************************************************************
  30:pca9532.c     ****  * Global variables
  31:pca9532.c     ****  ****************************************************************************/
  32:pca9532.c     **** 
  33:pca9532.c     **** /*****************************************************************************
  34:pca9532.c     ****  * Local variables
  35:pca9532.c     ****  ****************************************************************************/
  36:pca9532.c     **** 
  37:pca9532.c     **** /*****************************************************************************
  38:pca9532.c     ****  * Local prototypes
  39:pca9532.c     ****  ****************************************************************************/
  40:pca9532.c     **** 
  41:pca9532.c     **** 
  42:pca9532.c     **** /*****************************************************************************
  43:pca9532.c     ****  *
  44:pca9532.c     ****  * Description:
  45:pca9532.c     ****  *    Initialize the io-pins and find out if HW is ver 1.0 or ver 1.1
  46:pca9532.c     ****  *
  47:pca9532.c     ****  ****************************************************************************/
  48:pca9532.c     **** tBool
  49:pca9532.c     **** pca9532Init(void)
  50:pca9532.c     **** {
  38              		.loc 1 50 0
  39              		.cfi_startproc
  40              		@ Function supports interworking.
  41              		@ args = 0, pretend = 0, frame = 16
  42              		@ frame_needed = 1, uses_anonymous_args = 0
  43 0000 80B5     		push	{r7, lr}
  44              	.LCFI0:
  45              		.cfi_def_cfa_offset 8
  46              		.cfi_offset 7, -8
  47              		.cfi_offset 14, -4
  48 0002 84B0     		sub	sp, sp, #16
  49              	.LCFI1:
  50              		.cfi_def_cfa_offset 24
  51 0004 00AF     		add	r7, sp, #0
  52              	.LCFI2:
  53              		.cfi_def_cfa_register 7
  51:pca9532.c     ****   tU8 initCommand[] = {0x12, 0x97, 0x80, 0x00, 0x40, 0x00, 0x00, 0x00, 0x00};
  54              		.loc 1 51 0
  55 0006 3B1D     		adds	r3, r7, #4
  56 0008 0F4A     		ldr	r2, .L4
  57 000a 03CA     		ldmia	r2!, {r0, r1}
  58 000c 03C3     		stmia	r3!, {r0, r1}
  59 000e 1278     		ldrb	r2, [r2]
  60 0010 1A70     		strb	r2, [r3]
  52:pca9532.c     ****   //                                                         04 = LCD_RST# low
  53:pca9532.c     ****   //                                                         10 = BT_RST# low
  54:pca9532.c     **** 
ARM GAS  C:\Users\embedded\AppData\Local\Temp\ccWxIqiQ.s 			page 3


  55:pca9532.c     ****   //initialize PCA9532
  56:pca9532.c     ****   tU8 returnedValue = FALSE;
  61              		.loc 1 56 0
  62 0012 0F23     		movs	r3, #15
  63 0014 FB18     		adds	r3, r7, r3
  64 0016 0022     		movs	r2, #0
  65 0018 1A70     		strb	r2, [r3]
  57:pca9532.c     ****   if (I2C_CODE_OK == pca9532(initCommand, sizeof(initCommand), NULL, 0))
  66              		.loc 1 57 0
  67 001a 381D     		adds	r0, r7, #4
  68 001c 0023     		movs	r3, #0
  69 001e 0022     		movs	r2, #0
  70 0020 0921     		movs	r1, #9
  71 0022 FFF7FEFF 		bl	pca9532
  72 0026 0300     		movs	r3, r0
  73 0028 012B     		cmp	r3, #1
  74 002a 03D1     		bne	.L2
  58:pca9532.c     ****   {
  59:pca9532.c     ****     returnedValue = TRUE;
  75              		.loc 1 59 0
  76 002c 0F23     		movs	r3, #15
  77 002e FB18     		adds	r3, r7, r3
  78 0030 0122     		movs	r2, #1
  79 0032 1A70     		strb	r2, [r3]
  80              	.L2:
  60:pca9532.c     ****   }
  61:pca9532.c     ****   return returnedValue;
  81              		.loc 1 61 0
  82 0034 0F23     		movs	r3, #15
  83 0036 FB18     		adds	r3, r7, r3
  84 0038 1B78     		ldrb	r3, [r3]
  62:pca9532.c     **** }
  85              		.loc 1 62 0
  86 003a 1800     		movs	r0, r3
  87 003c BD46     		mov	sp, r7
  88 003e 04B0     		add	sp, sp, #16
  89              		@ sp needed
  90 0040 80BC     		pop	{r7}
  91 0042 02BC     		pop	{r1}
  92 0044 0847     		bx	r1
  93              	.L5:
  94 0046 C046     		.align	2
  95              	.L4:
  96 0048 00000000 		.word	.LC0
  97              		.cfi_endproc
  98              	.LFE0:
  99              		.size	pca9532Init, .-pca9532Init
 100              		.align	1
 101              		.global	setPca9532Pin
 102              		.syntax unified
 103              		.code	16
 104              		.thumb_func
 105              		.fpu softvfp
 106              		.type	setPca9532Pin, %function
 107              	setPca9532Pin:
 108              	.LFB1:
  63:pca9532.c     **** 
ARM GAS  C:\Users\embedded\AppData\Local\Temp\ccWxIqiQ.s 			page 4


  64:pca9532.c     **** 
  65:pca9532.c     **** /*****************************************************************************
  66:pca9532.c     ****  *
  67:pca9532.c     ****  * Description:
  68:pca9532.c     ****  *
  69:pca9532.c     ****  ****************************************************************************/
  70:pca9532.c     **** void
  71:pca9532.c     **** setPca9532Pin(tU8 pinNum, tU8 value)
  72:pca9532.c     **** {
 109              		.loc 1 72 0
 110              		.cfi_startproc
 111              		@ Function supports interworking.
 112              		@ args = 0, pretend = 0, frame = 16
 113              		@ frame_needed = 1, uses_anonymous_args = 0
 114 004c 90B5     		push	{r4, r7, lr}
 115              	.LCFI3:
 116              		.cfi_def_cfa_offset 12
 117              		.cfi_offset 4, -12
 118              		.cfi_offset 7, -8
 119              		.cfi_offset 14, -4
 120 004e 85B0     		sub	sp, sp, #20
 121              	.LCFI4:
 122              		.cfi_def_cfa_offset 32
 123 0050 00AF     		add	r7, sp, #0
 124              	.LCFI5:
 125              		.cfi_def_cfa_register 7
 126 0052 0200     		movs	r2, r0
 127 0054 FB1D     		adds	r3, r7, #7
 128 0056 1A70     		strb	r2, [r3]
 129 0058 BB1D     		adds	r3, r7, #6
 130 005a 0A1C     		adds	r2, r1, #0
 131 005c 1A70     		strb	r2, [r3]
  73:pca9532.c     ****   tU8 command[] = {0x00, 0x00};
 132              		.loc 1 73 0
 133 005e 0C21     		movs	r1, #12
 134 0060 7B18     		adds	r3, r7, r1
 135 0062 0022     		movs	r2, #0
 136 0064 1A70     		strb	r2, [r3]
 137 0066 7B18     		adds	r3, r7, r1
 138 0068 0022     		movs	r2, #0
 139 006a 5A70     		strb	r2, [r3, #1]
  74:pca9532.c     ****   tU8 regValue;
  75:pca9532.c     ****   tU8 mask;
  76:pca9532.c     ****   
  77:pca9532.c     ****   if (pinNum < (tU8)4) 
 140              		.loc 1 77 0
 141 006c FB1D     		adds	r3, r7, #7
 142 006e 1B78     		ldrb	r3, [r3]
 143 0070 032B     		cmp	r3, #3
 144 0072 04D8     		bhi	.L7
  78:pca9532.c     ****   {
  79:pca9532.c     ****     command[0] = 0x06;
 145              		.loc 1 79 0
 146 0074 0C23     		movs	r3, #12
 147 0076 FB18     		adds	r3, r7, r3
 148 0078 0622     		movs	r2, #6
 149 007a 1A70     		strb	r2, [r3]
ARM GAS  C:\Users\embedded\AppData\Local\Temp\ccWxIqiQ.s 			page 5


 150 007c 15E0     		b	.L8
 151              	.L7:
  80:pca9532.c     ****   }
  81:pca9532.c     ****   else if (pinNum < (tU8)8) 
 152              		.loc 1 81 0
 153 007e FB1D     		adds	r3, r7, #7
 154 0080 1B78     		ldrb	r3, [r3]
 155 0082 072B     		cmp	r3, #7
 156 0084 04D8     		bhi	.L9
  82:pca9532.c     ****   {
  83:pca9532.c     ****     command[0] = 0x07;
 157              		.loc 1 83 0
 158 0086 0C23     		movs	r3, #12
 159 0088 FB18     		adds	r3, r7, r3
 160 008a 0722     		movs	r2, #7
 161 008c 1A70     		strb	r2, [r3]
 162 008e 0CE0     		b	.L8
 163              	.L9:
  84:pca9532.c     ****   }
  85:pca9532.c     ****   else if (pinNum < (tU8)12) 
 164              		.loc 1 85 0
 165 0090 FB1D     		adds	r3, r7, #7
 166 0092 1B78     		ldrb	r3, [r3]
 167 0094 0B2B     		cmp	r3, #11
 168 0096 04D8     		bhi	.L10
  86:pca9532.c     ****   {
  87:pca9532.c     ****     command[0] = 0x08;
 169              		.loc 1 87 0
 170 0098 0C23     		movs	r3, #12
 171 009a FB18     		adds	r3, r7, r3
 172 009c 0822     		movs	r2, #8
 173 009e 1A70     		strb	r2, [r3]
 174 00a0 03E0     		b	.L8
 175              	.L10:
  88:pca9532.c     ****   }
  89:pca9532.c     ****   else
  90:pca9532.c     ****   {
  91:pca9532.c     ****     command[0] = 0x09;
 176              		.loc 1 91 0
 177 00a2 0C23     		movs	r3, #12
 178 00a4 FB18     		adds	r3, r7, r3
 179 00a6 0922     		movs	r2, #9
 180 00a8 1A70     		strb	r2, [r3]
 181              	.L8:
  92:pca9532.c     ****   }
  93:pca9532.c     ****     
  94:pca9532.c     ****   pca9532(command, 1, &regValue, 1);
 182              		.loc 1 94 0
 183 00aa 0B24     		movs	r4, #11
 184 00ac 3A19     		adds	r2, r7, r4
 185 00ae 0C23     		movs	r3, #12
 186 00b0 F818     		adds	r0, r7, r3
 187 00b2 0123     		movs	r3, #1
 188 00b4 0121     		movs	r1, #1
 189 00b6 FFF7FEFF 		bl	pca9532
  95:pca9532.c     ****   
  96:pca9532.c     ****   mask = ((tU8)3 << ((tU8)2 * (tU8)(pinNum % (tU8)4)));
ARM GAS  C:\Users\embedded\AppData\Local\Temp\ccWxIqiQ.s 			page 6


 190              		.loc 1 96 0
 191 00ba FB1D     		adds	r3, r7, #7
 192 00bc 1B78     		ldrb	r3, [r3]
 193 00be 0322     		movs	r2, #3
 194 00c0 1340     		ands	r3, r2
 195 00c2 5B00     		lsls	r3, r3, #1
 196 00c4 0322     		movs	r2, #3
 197 00c6 9A40     		lsls	r2, r2, r3
 198 00c8 0F21     		movs	r1, #15
 199 00ca 7B18     		adds	r3, r7, r1
 200 00cc 1A70     		strb	r2, [r3]
  97:pca9532.c     ****   
  98:pca9532.c     ****   regValue &= ~mask;
 201              		.loc 1 98 0
 202 00ce 7B18     		adds	r3, r7, r1
 203 00d0 1B78     		ldrb	r3, [r3]
 204 00d2 1B06     		lsls	r3, r3, #24
 205 00d4 1B16     		asrs	r3, r3, #24
 206 00d6 DB43     		mvns	r3, r3
 207 00d8 1B06     		lsls	r3, r3, #24
 208 00da 1B16     		asrs	r3, r3, #24
 209 00dc 3A19     		adds	r2, r7, r4
 210 00de 1278     		ldrb	r2, [r2]
 211 00e0 1206     		lsls	r2, r2, #24
 212 00e2 1216     		asrs	r2, r2, #24
 213 00e4 1340     		ands	r3, r2
 214 00e6 1B06     		lsls	r3, r3, #24
 215 00e8 1B16     		asrs	r3, r3, #24
 216 00ea 1B06     		lsls	r3, r3, #24
 217 00ec 1A0E     		lsrs	r2, r3, #24
 218 00ee 3B19     		adds	r3, r7, r4
 219 00f0 1A70     		strb	r2, [r3]
  99:pca9532.c     ****   
 100:pca9532.c     ****   if (value == (tU8)0)
 220              		.loc 1 100 0
 221 00f2 BB1D     		adds	r3, r7, #6
 222 00f4 1B78     		ldrb	r3, [r3]
 223 00f6 002B     		cmp	r3, #0
 224 00f8 04D1     		bne	.L11
 101:pca9532.c     ****   {
 102:pca9532.c     ****     command[1] = 0x01;
 225              		.loc 1 102 0
 226 00fa 0C23     		movs	r3, #12
 227 00fc FB18     		adds	r3, r7, r3
 228 00fe 0122     		movs	r2, #1
 229 0100 5A70     		strb	r2, [r3, #1]
 230 0102 03E0     		b	.L12
 231              	.L11:
 103:pca9532.c     ****   }
 104:pca9532.c     ****   else
 105:pca9532.c     ****   {
 106:pca9532.c     ****     command[1] = 0x00;
 232              		.loc 1 106 0
 233 0104 0C23     		movs	r3, #12
 234 0106 FB18     		adds	r3, r7, r3
 235 0108 0022     		movs	r2, #0
 236 010a 5A70     		strb	r2, [r3, #1]
ARM GAS  C:\Users\embedded\AppData\Local\Temp\ccWxIqiQ.s 			page 7


 237              	.L12:
 107:pca9532.c     ****   }
 108:pca9532.c     ****     
 109:pca9532.c     ****   command[1] = (command[1] << ((tU8)2 * (pinNum % (tU8)4)));
 238              		.loc 1 109 0
 239 010c 0C20     		movs	r0, #12
 240 010e 3B18     		adds	r3, r7, r0
 241 0110 5B78     		ldrb	r3, [r3, #1]
 242 0112 1900     		movs	r1, r3
 243 0114 FB1D     		adds	r3, r7, #7
 244 0116 1B78     		ldrb	r3, [r3]
 245 0118 0322     		movs	r2, #3
 246 011a 1340     		ands	r3, r2
 247 011c 5B00     		lsls	r3, r3, #1
 248 011e 9940     		lsls	r1, r1, r3
 249 0120 0B00     		movs	r3, r1
 250 0122 1B06     		lsls	r3, r3, #24
 251 0124 1A0E     		lsrs	r2, r3, #24
 252 0126 3B18     		adds	r3, r7, r0
 253 0128 5A70     		strb	r2, [r3, #1]
 110:pca9532.c     ****   
 111:pca9532.c     ****   command[1] |= regValue;
 254              		.loc 1 111 0
 255 012a 3B18     		adds	r3, r7, r0
 256 012c 5A78     		ldrb	r2, [r3, #1]
 257 012e 0B23     		movs	r3, #11
 258 0130 FB18     		adds	r3, r7, r3
 259 0132 1B78     		ldrb	r3, [r3]
 260 0134 1343     		orrs	r3, r2
 261 0136 1B06     		lsls	r3, r3, #24
 262 0138 1A0E     		lsrs	r2, r3, #24
 263 013a 3B18     		adds	r3, r7, r0
 264 013c 5A70     		strb	r2, [r3, #1]
 112:pca9532.c     **** 
 113:pca9532.c     ****   pca9532(command, sizeof(command), NULL, 0);
 265              		.loc 1 113 0
 266 013e 3818     		adds	r0, r7, r0
 267 0140 0023     		movs	r3, #0
 268 0142 0022     		movs	r2, #0
 269 0144 0221     		movs	r1, #2
 270 0146 FFF7FEFF 		bl	pca9532
 114:pca9532.c     **** }
 271              		.loc 1 114 0
 272 014a C046     		nop
 273 014c BD46     		mov	sp, r7
 274 014e 05B0     		add	sp, sp, #20
 275              		@ sp needed
 276 0150 90BC     		pop	{r4, r7}
 277 0152 01BC     		pop	{r0}
 278 0154 0047     		bx	r0
 279              		.cfi_endproc
 280              	.LFE1:
 281              		.size	setPca9532Pin, .-setPca9532Pin
 282              		.align	1
 283              		.global	getPca9532Pin
 284              		.syntax unified
 285              		.code	16
ARM GAS  C:\Users\embedded\AppData\Local\Temp\ccWxIqiQ.s 			page 8


 286              		.thumb_func
 287              		.fpu softvfp
 288              		.type	getPca9532Pin, %function
 289              	getPca9532Pin:
 290              	.LFB2:
 115:pca9532.c     **** 
 116:pca9532.c     **** 
 117:pca9532.c     **** /*****************************************************************************
 118:pca9532.c     ****  *
 119:pca9532.c     ****  * Description:
 120:pca9532.c     ****  *
 121:pca9532.c     ****  ****************************************************************************/
 122:pca9532.c     **** tU16
 123:pca9532.c     **** getPca9532Pin(void)
 124:pca9532.c     **** {
 291              		.loc 1 124 0
 292              		.cfi_startproc
 293              		@ Function supports interworking.
 294              		@ args = 0, pretend = 0, frame = 8
 295              		@ frame_needed = 1, uses_anonymous_args = 0
 296 0156 80B5     		push	{r7, lr}
 297              	.LCFI6:
 298              		.cfi_def_cfa_offset 8
 299              		.cfi_offset 7, -8
 300              		.cfi_offset 14, -4
 301 0158 82B0     		sub	sp, sp, #8
 302              	.LCFI7:
 303              		.cfi_def_cfa_offset 16
 304 015a 00AF     		add	r7, sp, #0
 305              	.LCFI8:
 306              		.cfi_def_cfa_register 7
 125:pca9532.c     ****   tU8 command[] = {0x19};
 307              		.loc 1 125 0
 308 015c 3B1D     		adds	r3, r7, #4
 309 015e 1922     		movs	r2, #25
 310 0160 1A70     		strb	r2, [r3]
 126:pca9532.c     ****   tU8 regValue[3];
 127:pca9532.c     ****   
 128:pca9532.c     ****   pca9532(command, 1, regValue, 3);
 311              		.loc 1 128 0
 312 0162 3A00     		movs	r2, r7
 313 0164 381D     		adds	r0, r7, #4
 314 0166 0323     		movs	r3, #3
 315 0168 0121     		movs	r1, #1
 316 016a FFF7FEFF 		bl	pca9532
 129:pca9532.c     ****   
 130:pca9532.c     ****   return (tU16)regValue[1] | ((tU16)regValue[2] << 8);
 317              		.loc 1 130 0
 318 016e 3B00     		movs	r3, r7
 319 0170 5B78     		ldrb	r3, [r3, #1]
 320 0172 1A04     		lsls	r2, r3, #16
 321 0174 1214     		asrs	r2, r2, #16
 322 0176 3B00     		movs	r3, r7
 323 0178 9B78     		ldrb	r3, [r3, #2]
 324 017a 1B02     		lsls	r3, r3, #8
 325 017c 1B04     		lsls	r3, r3, #16
 326 017e 1B14     		asrs	r3, r3, #16
ARM GAS  C:\Users\embedded\AppData\Local\Temp\ccWxIqiQ.s 			page 9


 327 0180 1343     		orrs	r3, r2
 328 0182 1B04     		lsls	r3, r3, #16
 329 0184 1B14     		asrs	r3, r3, #16
 330 0186 1B04     		lsls	r3, r3, #16
 331 0188 1B0C     		lsrs	r3, r3, #16
 131:pca9532.c     **** }
 332              		.loc 1 131 0
 333 018a 1800     		movs	r0, r3
 334 018c BD46     		mov	sp, r7
 335 018e 02B0     		add	sp, sp, #8
 336              		@ sp needed
 337 0190 80BC     		pop	{r7}
 338 0192 02BC     		pop	{r1}
 339 0194 0847     		bx	r1
 340              		.cfi_endproc
 341              	.LFE2:
 342              		.size	getPca9532Pin, .-getPca9532Pin
 343              	.Letext0:
 344              		.file 2 "general.h"
 345 0196 C046     		.section	.debug_info,"",%progbits
 346              	.Ldebug_info0:
 347 0000 A8010000 		.4byte	0x1a8
 348 0004 0200     		.2byte	0x2
 349 0006 00000000 		.4byte	.Ldebug_abbrev0
 350 000a 04       		.byte	0x4
 351 000b 01       		.uleb128 0x1
 352 000c 8B000000 		.4byte	.LASF20
 353 0010 0C       		.byte	0xc
 354 0011 44010000 		.4byte	.LASF21
 355 0015 13010000 		.4byte	.LASF22
 356 0019 00000000 		.4byte	.Ltext0
 357 001d 96010000 		.4byte	.Letext0
 358 0021 00000000 		.4byte	.Ldebug_line0
 359 0025 02       		.uleb128 0x2
 360 0026 74553800 		.ascii	"tU8\000"
 361 002a 02       		.byte	0x2
 362 002b 18       		.byte	0x18
 363 002c 30000000 		.4byte	0x30
 364 0030 03       		.uleb128 0x3
 365 0031 01       		.byte	0x1
 366 0032 08       		.byte	0x8
 367 0033 71000000 		.4byte	.LASF1
 368 0037 04       		.uleb128 0x4
 369 0038 65010000 		.4byte	.LASF0
 370 003c 02       		.byte	0x2
 371 003d 19       		.byte	0x19
 372 003e 42000000 		.4byte	0x42
 373 0042 03       		.uleb128 0x3
 374 0043 02       		.byte	0x2
 375 0044 07       		.byte	0x7
 376 0045 31010000 		.4byte	.LASF2
 377 0049 03       		.uleb128 0x3
 378 004a 04       		.byte	0x4
 379 004b 07       		.byte	0x7
 380 004c 14000000 		.4byte	.LASF3
 381 0050 03       		.uleb128 0x3
 382 0051 08       		.byte	0x8
ARM GAS  C:\Users\embedded\AppData\Local\Temp\ccWxIqiQ.s 			page 10


 383 0052 07       		.byte	0x7
 384 0053 3B000000 		.4byte	.LASF4
 385 0057 03       		.uleb128 0x3
 386 0058 01       		.byte	0x1
 387 0059 06       		.byte	0x6
 388 005a 80010000 		.4byte	.LASF5
 389 005e 03       		.uleb128 0x3
 390 005f 02       		.byte	0x2
 391 0060 05       		.byte	0x5
 392 0061 70010000 		.4byte	.LASF6
 393 0065 05       		.uleb128 0x5
 394 0066 04       		.byte	0x4
 395 0067 05       		.byte	0x5
 396 0068 696E7400 		.ascii	"int\000"
 397 006c 03       		.uleb128 0x3
 398 006d 08       		.byte	0x8
 399 006e 05       		.byte	0x5
 400 006f 00000000 		.4byte	.LASF7
 401 0073 06       		.uleb128 0x6
 402 0074 07       		.byte	0x7
 403 0075 01       		.byte	0x1
 404 0076 30000000 		.4byte	0x30
 405 007a 02       		.byte	0x2
 406 007b 20       		.byte	0x20
 407 007c 8D000000 		.4byte	0x8d
 408 0080 07       		.uleb128 0x7
 409 0081 7A010000 		.4byte	.LASF8
 410 0085 00       		.byte	0
 411 0086 07       		.uleb128 0x7
 412 0087 7F000000 		.4byte	.LASF9
 413 008b 01       		.byte	0x1
 414 008c 00       		.byte	0
 415 008d 04       		.uleb128 0x4
 416 008e 6A010000 		.4byte	.LASF10
 417 0092 02       		.byte	0x2
 418 0093 21       		.byte	0x21
 419 0094 73000000 		.4byte	0x73
 420 0098 08       		.uleb128 0x8
 421 0099 01       		.byte	0x1
 422 009a 21000000 		.4byte	.LASF16
 423 009e 01       		.byte	0x1
 424 009f 7B       		.byte	0x7b
 425 00a0 01       		.byte	0x1
 426 00a1 37000000 		.4byte	0x37
 427 00a5 56010000 		.4byte	.LFB2
 428 00a9 96010000 		.4byte	.LFE2
 429 00ad 00000000 		.4byte	.LLST2
 430 00b1 01       		.byte	0x1
 431 00b2 D3000000 		.4byte	0xd3
 432 00b6 09       		.uleb128 0x9
 433 00b7 0B010000 		.4byte	.LASF11
 434 00bb 01       		.byte	0x1
 435 00bc 7D       		.byte	0x7d
 436 00bd D3000000 		.4byte	0xd3
 437 00c1 02       		.byte	0x2
 438 00c2 91       		.byte	0x91
 439 00c3 74       		.sleb128 -12
ARM GAS  C:\Users\embedded\AppData\Local\Temp\ccWxIqiQ.s 			page 11


 440 00c4 09       		.uleb128 0x9
 441 00c5 5C010000 		.4byte	.LASF12
 442 00c9 01       		.byte	0x1
 443 00ca 7E       		.byte	0x7e
 444 00cb E3000000 		.4byte	0xe3
 445 00cf 02       		.byte	0x2
 446 00d0 91       		.byte	0x91
 447 00d1 70       		.sleb128 -16
 448 00d2 00       		.byte	0
 449 00d3 0A       		.uleb128 0xa
 450 00d4 25000000 		.4byte	0x25
 451 00d8 E3000000 		.4byte	0xe3
 452 00dc 0B       		.uleb128 0xb
 453 00dd 49000000 		.4byte	0x49
 454 00e1 00       		.byte	0
 455 00e2 00       		.byte	0
 456 00e3 0A       		.uleb128 0xa
 457 00e4 25000000 		.4byte	0x25
 458 00e8 F3000000 		.4byte	0xf3
 459 00ec 0B       		.uleb128 0xb
 460 00ed 49000000 		.4byte	0x49
 461 00f1 02       		.byte	0x2
 462 00f2 00       		.byte	0
 463 00f3 0C       		.uleb128 0xc
 464 00f4 01       		.byte	0x1
 465 00f5 4E010000 		.4byte	.LASF23
 466 00f9 01       		.byte	0x1
 467 00fa 47       		.byte	0x47
 468 00fb 01       		.byte	0x1
 469 00fc 4C000000 		.4byte	.LFB1
 470 0100 56010000 		.4byte	.LFE1
 471 0104 38000000 		.4byte	.LLST1
 472 0108 01       		.byte	0x1
 473 0109 54010000 		.4byte	0x154
 474 010d 0D       		.uleb128 0xd
 475 010e 84000000 		.4byte	.LASF13
 476 0112 01       		.byte	0x1
 477 0113 47       		.byte	0x47
 478 0114 25000000 		.4byte	0x25
 479 0118 02       		.byte	0x2
 480 0119 91       		.byte	0x91
 481 011a 67       		.sleb128 -25
 482 011b 0D       		.uleb128 0xd
 483 011c 0E000000 		.4byte	.LASF14
 484 0120 01       		.byte	0x1
 485 0121 47       		.byte	0x47
 486 0122 25000000 		.4byte	0x25
 487 0126 02       		.byte	0x2
 488 0127 91       		.byte	0x91
 489 0128 66       		.sleb128 -26
 490 0129 09       		.uleb128 0x9
 491 012a 0B010000 		.4byte	.LASF11
 492 012e 01       		.byte	0x1
 493 012f 49       		.byte	0x49
 494 0130 54010000 		.4byte	0x154
 495 0134 02       		.byte	0x2
 496 0135 91       		.byte	0x91
ARM GAS  C:\Users\embedded\AppData\Local\Temp\ccWxIqiQ.s 			page 12


 497 0136 6C       		.sleb128 -20
 498 0137 09       		.uleb128 0x9
 499 0138 5C010000 		.4byte	.LASF12
 500 013c 01       		.byte	0x1
 501 013d 4A       		.byte	0x4a
 502 013e 25000000 		.4byte	0x25
 503 0142 02       		.byte	0x2
 504 0143 91       		.byte	0x91
 505 0144 6B       		.sleb128 -21
 506 0145 09       		.uleb128 0x9
 507 0146 6C000000 		.4byte	.LASF15
 508 014a 01       		.byte	0x1
 509 014b 4B       		.byte	0x4b
 510 014c 25000000 		.4byte	0x25
 511 0150 02       		.byte	0x2
 512 0151 91       		.byte	0x91
 513 0152 6F       		.sleb128 -17
 514 0153 00       		.byte	0
 515 0154 0A       		.uleb128 0xa
 516 0155 25000000 		.4byte	0x25
 517 0159 64010000 		.4byte	0x164
 518 015d 0B       		.uleb128 0xb
 519 015e 49000000 		.4byte	0x49
 520 0162 01       		.byte	0x1
 521 0163 00       		.byte	0
 522 0164 08       		.uleb128 0x8
 523 0165 01       		.byte	0x1
 524 0166 2F000000 		.4byte	.LASF17
 525 016a 01       		.byte	0x1
 526 016b 31       		.byte	0x31
 527 016c 01       		.byte	0x1
 528 016d 8D000000 		.4byte	0x8d
 529 0171 00000000 		.4byte	.LFB0
 530 0175 4C000000 		.4byte	.LFE0
 531 0179 70000000 		.4byte	.LLST0
 532 017d 01       		.byte	0x1
 533 017e 9F010000 		.4byte	0x19f
 534 0182 09       		.uleb128 0x9
 535 0183 60000000 		.4byte	.LASF18
 536 0187 01       		.byte	0x1
 537 0188 33       		.byte	0x33
 538 0189 9F010000 		.4byte	0x19f
 539 018d 02       		.byte	0x2
 540 018e 91       		.byte	0x91
 541 018f 6C       		.sleb128 -20
 542 0190 09       		.uleb128 0x9
 543 0191 52000000 		.4byte	.LASF19
 544 0195 01       		.byte	0x1
 545 0196 38       		.byte	0x38
 546 0197 25000000 		.4byte	0x25
 547 019b 02       		.byte	0x2
 548 019c 91       		.byte	0x91
 549 019d 77       		.sleb128 -9
 550 019e 00       		.byte	0
 551 019f 0E       		.uleb128 0xe
 552 01a0 25000000 		.4byte	0x25
 553 01a4 0B       		.uleb128 0xb
ARM GAS  C:\Users\embedded\AppData\Local\Temp\ccWxIqiQ.s 			page 13


 554 01a5 49000000 		.4byte	0x49
 555 01a9 08       		.byte	0x8
 556 01aa 00       		.byte	0
 557 01ab 00       		.byte	0
 558              		.section	.debug_abbrev,"",%progbits
 559              	.Ldebug_abbrev0:
 560 0000 01       		.uleb128 0x1
 561 0001 11       		.uleb128 0x11
 562 0002 01       		.byte	0x1
 563 0003 25       		.uleb128 0x25
 564 0004 0E       		.uleb128 0xe
 565 0005 13       		.uleb128 0x13
 566 0006 0B       		.uleb128 0xb
 567 0007 03       		.uleb128 0x3
 568 0008 0E       		.uleb128 0xe
 569 0009 1B       		.uleb128 0x1b
 570 000a 0E       		.uleb128 0xe
 571 000b 11       		.uleb128 0x11
 572 000c 01       		.uleb128 0x1
 573 000d 12       		.uleb128 0x12
 574 000e 01       		.uleb128 0x1
 575 000f 10       		.uleb128 0x10
 576 0010 06       		.uleb128 0x6
 577 0011 00       		.byte	0
 578 0012 00       		.byte	0
 579 0013 02       		.uleb128 0x2
 580 0014 16       		.uleb128 0x16
 581 0015 00       		.byte	0
 582 0016 03       		.uleb128 0x3
 583 0017 08       		.uleb128 0x8
 584 0018 3A       		.uleb128 0x3a
 585 0019 0B       		.uleb128 0xb
 586 001a 3B       		.uleb128 0x3b
 587 001b 0B       		.uleb128 0xb
 588 001c 49       		.uleb128 0x49
 589 001d 13       		.uleb128 0x13
 590 001e 00       		.byte	0
 591 001f 00       		.byte	0
 592 0020 03       		.uleb128 0x3
 593 0021 24       		.uleb128 0x24
 594 0022 00       		.byte	0
 595 0023 0B       		.uleb128 0xb
 596 0024 0B       		.uleb128 0xb
 597 0025 3E       		.uleb128 0x3e
 598 0026 0B       		.uleb128 0xb
 599 0027 03       		.uleb128 0x3
 600 0028 0E       		.uleb128 0xe
 601 0029 00       		.byte	0
 602 002a 00       		.byte	0
 603 002b 04       		.uleb128 0x4
 604 002c 16       		.uleb128 0x16
 605 002d 00       		.byte	0
 606 002e 03       		.uleb128 0x3
 607 002f 0E       		.uleb128 0xe
 608 0030 3A       		.uleb128 0x3a
 609 0031 0B       		.uleb128 0xb
 610 0032 3B       		.uleb128 0x3b
ARM GAS  C:\Users\embedded\AppData\Local\Temp\ccWxIqiQ.s 			page 14


 611 0033 0B       		.uleb128 0xb
 612 0034 49       		.uleb128 0x49
 613 0035 13       		.uleb128 0x13
 614 0036 00       		.byte	0
 615 0037 00       		.byte	0
 616 0038 05       		.uleb128 0x5
 617 0039 24       		.uleb128 0x24
 618 003a 00       		.byte	0
 619 003b 0B       		.uleb128 0xb
 620 003c 0B       		.uleb128 0xb
 621 003d 3E       		.uleb128 0x3e
 622 003e 0B       		.uleb128 0xb
 623 003f 03       		.uleb128 0x3
 624 0040 08       		.uleb128 0x8
 625 0041 00       		.byte	0
 626 0042 00       		.byte	0
 627 0043 06       		.uleb128 0x6
 628 0044 04       		.uleb128 0x4
 629 0045 01       		.byte	0x1
 630 0046 3E       		.uleb128 0x3e
 631 0047 0B       		.uleb128 0xb
 632 0048 0B       		.uleb128 0xb
 633 0049 0B       		.uleb128 0xb
 634 004a 49       		.uleb128 0x49
 635 004b 13       		.uleb128 0x13
 636 004c 3A       		.uleb128 0x3a
 637 004d 0B       		.uleb128 0xb
 638 004e 3B       		.uleb128 0x3b
 639 004f 0B       		.uleb128 0xb
 640 0050 01       		.uleb128 0x1
 641 0051 13       		.uleb128 0x13
 642 0052 00       		.byte	0
 643 0053 00       		.byte	0
 644 0054 07       		.uleb128 0x7
 645 0055 28       		.uleb128 0x28
 646 0056 00       		.byte	0
 647 0057 03       		.uleb128 0x3
 648 0058 0E       		.uleb128 0xe
 649 0059 1C       		.uleb128 0x1c
 650 005a 0B       		.uleb128 0xb
 651 005b 00       		.byte	0
 652 005c 00       		.byte	0
 653 005d 08       		.uleb128 0x8
 654 005e 2E       		.uleb128 0x2e
 655 005f 01       		.byte	0x1
 656 0060 3F       		.uleb128 0x3f
 657 0061 0C       		.uleb128 0xc
 658 0062 03       		.uleb128 0x3
 659 0063 0E       		.uleb128 0xe
 660 0064 3A       		.uleb128 0x3a
 661 0065 0B       		.uleb128 0xb
 662 0066 3B       		.uleb128 0x3b
 663 0067 0B       		.uleb128 0xb
 664 0068 27       		.uleb128 0x27
 665 0069 0C       		.uleb128 0xc
 666 006a 49       		.uleb128 0x49
 667 006b 13       		.uleb128 0x13
ARM GAS  C:\Users\embedded\AppData\Local\Temp\ccWxIqiQ.s 			page 15


 668 006c 11       		.uleb128 0x11
 669 006d 01       		.uleb128 0x1
 670 006e 12       		.uleb128 0x12
 671 006f 01       		.uleb128 0x1
 672 0070 40       		.uleb128 0x40
 673 0071 06       		.uleb128 0x6
 674 0072 9642     		.uleb128 0x2116
 675 0074 0C       		.uleb128 0xc
 676 0075 01       		.uleb128 0x1
 677 0076 13       		.uleb128 0x13
 678 0077 00       		.byte	0
 679 0078 00       		.byte	0
 680 0079 09       		.uleb128 0x9
 681 007a 34       		.uleb128 0x34
 682 007b 00       		.byte	0
 683 007c 03       		.uleb128 0x3
 684 007d 0E       		.uleb128 0xe
 685 007e 3A       		.uleb128 0x3a
 686 007f 0B       		.uleb128 0xb
 687 0080 3B       		.uleb128 0x3b
 688 0081 0B       		.uleb128 0xb
 689 0082 49       		.uleb128 0x49
 690 0083 13       		.uleb128 0x13
 691 0084 02       		.uleb128 0x2
 692 0085 0A       		.uleb128 0xa
 693 0086 00       		.byte	0
 694 0087 00       		.byte	0
 695 0088 0A       		.uleb128 0xa
 696 0089 01       		.uleb128 0x1
 697 008a 01       		.byte	0x1
 698 008b 49       		.uleb128 0x49
 699 008c 13       		.uleb128 0x13
 700 008d 01       		.uleb128 0x1
 701 008e 13       		.uleb128 0x13
 702 008f 00       		.byte	0
 703 0090 00       		.byte	0
 704 0091 0B       		.uleb128 0xb
 705 0092 21       		.uleb128 0x21
 706 0093 00       		.byte	0
 707 0094 49       		.uleb128 0x49
 708 0095 13       		.uleb128 0x13
 709 0096 2F       		.uleb128 0x2f
 710 0097 0B       		.uleb128 0xb
 711 0098 00       		.byte	0
 712 0099 00       		.byte	0
 713 009a 0C       		.uleb128 0xc
 714 009b 2E       		.uleb128 0x2e
 715 009c 01       		.byte	0x1
 716 009d 3F       		.uleb128 0x3f
 717 009e 0C       		.uleb128 0xc
 718 009f 03       		.uleb128 0x3
 719 00a0 0E       		.uleb128 0xe
 720 00a1 3A       		.uleb128 0x3a
 721 00a2 0B       		.uleb128 0xb
 722 00a3 3B       		.uleb128 0x3b
 723 00a4 0B       		.uleb128 0xb
 724 00a5 27       		.uleb128 0x27
ARM GAS  C:\Users\embedded\AppData\Local\Temp\ccWxIqiQ.s 			page 16


 725 00a6 0C       		.uleb128 0xc
 726 00a7 11       		.uleb128 0x11
 727 00a8 01       		.uleb128 0x1
 728 00a9 12       		.uleb128 0x12
 729 00aa 01       		.uleb128 0x1
 730 00ab 40       		.uleb128 0x40
 731 00ac 06       		.uleb128 0x6
 732 00ad 9642     		.uleb128 0x2116
 733 00af 0C       		.uleb128 0xc
 734 00b0 01       		.uleb128 0x1
 735 00b1 13       		.uleb128 0x13
 736 00b2 00       		.byte	0
 737 00b3 00       		.byte	0
 738 00b4 0D       		.uleb128 0xd
 739 00b5 05       		.uleb128 0x5
 740 00b6 00       		.byte	0
 741 00b7 03       		.uleb128 0x3
 742 00b8 0E       		.uleb128 0xe
 743 00b9 3A       		.uleb128 0x3a
 744 00ba 0B       		.uleb128 0xb
 745 00bb 3B       		.uleb128 0x3b
 746 00bc 0B       		.uleb128 0xb
 747 00bd 49       		.uleb128 0x49
 748 00be 13       		.uleb128 0x13
 749 00bf 02       		.uleb128 0x2
 750 00c0 0A       		.uleb128 0xa
 751 00c1 00       		.byte	0
 752 00c2 00       		.byte	0
 753 00c3 0E       		.uleb128 0xe
 754 00c4 01       		.uleb128 0x1
 755 00c5 01       		.byte	0x1
 756 00c6 49       		.uleb128 0x49
 757 00c7 13       		.uleb128 0x13
 758 00c8 00       		.byte	0
 759 00c9 00       		.byte	0
 760 00ca 00       		.byte	0
 761              		.section	.debug_loc,"",%progbits
 762              	.Ldebug_loc0:
 763              	.LLST2:
 764 0000 56010000 		.4byte	.LFB2-.Ltext0
 765 0004 58010000 		.4byte	.LCFI6-.Ltext0
 766 0008 0200     		.2byte	0x2
 767 000a 7D       		.byte	0x7d
 768 000b 00       		.sleb128 0
 769 000c 58010000 		.4byte	.LCFI6-.Ltext0
 770 0010 5A010000 		.4byte	.LCFI7-.Ltext0
 771 0014 0200     		.2byte	0x2
 772 0016 7D       		.byte	0x7d
 773 0017 08       		.sleb128 8
 774 0018 5A010000 		.4byte	.LCFI7-.Ltext0
 775 001c 5C010000 		.4byte	.LCFI8-.Ltext0
 776 0020 0200     		.2byte	0x2
 777 0022 7D       		.byte	0x7d
 778 0023 10       		.sleb128 16
 779 0024 5C010000 		.4byte	.LCFI8-.Ltext0
 780 0028 96010000 		.4byte	.LFE2-.Ltext0
 781 002c 0200     		.2byte	0x2
ARM GAS  C:\Users\embedded\AppData\Local\Temp\ccWxIqiQ.s 			page 17


 782 002e 77       		.byte	0x77
 783 002f 10       		.sleb128 16
 784 0030 00000000 		.4byte	0
 785 0034 00000000 		.4byte	0
 786              	.LLST1:
 787 0038 4C000000 		.4byte	.LFB1-.Ltext0
 788 003c 4E000000 		.4byte	.LCFI3-.Ltext0
 789 0040 0200     		.2byte	0x2
 790 0042 7D       		.byte	0x7d
 791 0043 00       		.sleb128 0
 792 0044 4E000000 		.4byte	.LCFI3-.Ltext0
 793 0048 50000000 		.4byte	.LCFI4-.Ltext0
 794 004c 0200     		.2byte	0x2
 795 004e 7D       		.byte	0x7d
 796 004f 0C       		.sleb128 12
 797 0050 50000000 		.4byte	.LCFI4-.Ltext0
 798 0054 52000000 		.4byte	.LCFI5-.Ltext0
 799 0058 0200     		.2byte	0x2
 800 005a 7D       		.byte	0x7d
 801 005b 20       		.sleb128 32
 802 005c 52000000 		.4byte	.LCFI5-.Ltext0
 803 0060 56010000 		.4byte	.LFE1-.Ltext0
 804 0064 0200     		.2byte	0x2
 805 0066 77       		.byte	0x77
 806 0067 20       		.sleb128 32
 807 0068 00000000 		.4byte	0
 808 006c 00000000 		.4byte	0
 809              	.LLST0:
 810 0070 00000000 		.4byte	.LFB0-.Ltext0
 811 0074 02000000 		.4byte	.LCFI0-.Ltext0
 812 0078 0200     		.2byte	0x2
 813 007a 7D       		.byte	0x7d
 814 007b 00       		.sleb128 0
 815 007c 02000000 		.4byte	.LCFI0-.Ltext0
 816 0080 04000000 		.4byte	.LCFI1-.Ltext0
 817 0084 0200     		.2byte	0x2
 818 0086 7D       		.byte	0x7d
 819 0087 08       		.sleb128 8
 820 0088 04000000 		.4byte	.LCFI1-.Ltext0
 821 008c 06000000 		.4byte	.LCFI2-.Ltext0
 822 0090 0200     		.2byte	0x2
 823 0092 7D       		.byte	0x7d
 824 0093 18       		.sleb128 24
 825 0094 06000000 		.4byte	.LCFI2-.Ltext0
 826 0098 4C000000 		.4byte	.LFE0-.Ltext0
 827 009c 0200     		.2byte	0x2
 828 009e 77       		.byte	0x77
 829 009f 18       		.sleb128 24
 830 00a0 00000000 		.4byte	0
 831 00a4 00000000 		.4byte	0
 832              		.section	.debug_aranges,"",%progbits
 833 0000 1C000000 		.4byte	0x1c
 834 0004 0200     		.2byte	0x2
 835 0006 00000000 		.4byte	.Ldebug_info0
 836 000a 04       		.byte	0x4
 837 000b 00       		.byte	0
 838 000c 0000     		.2byte	0
ARM GAS  C:\Users\embedded\AppData\Local\Temp\ccWxIqiQ.s 			page 18


 839 000e 0000     		.2byte	0
 840 0010 00000000 		.4byte	.Ltext0
 841 0014 96010000 		.4byte	.Letext0-.Ltext0
 842 0018 00000000 		.4byte	0
 843 001c 00000000 		.4byte	0
 844              		.section	.debug_line,"",%progbits
 845              	.Ldebug_line0:
 846 0000 65000000 		.section	.debug_str,"MS",%progbits,1
 846      02002D00 
 846      00000201 
 846      FB0E0D00 
 846      01010101 
 847              	.LASF7:
 848 0000 6C6F6E67 		.ascii	"long long int\000"
 848      206C6F6E 
 848      6720696E 
 848      7400
 849              	.LASF14:
 850 000e 76616C75 		.ascii	"value\000"
 850      6500
 851              	.LASF3:
 852 0014 756E7369 		.ascii	"unsigned int\000"
 852      676E6564 
 852      20696E74 
 852      00
 853              	.LASF16:
 854 0021 67657450 		.ascii	"getPca9532Pin\000"
 854      63613935 
 854      33325069 
 854      6E00
 855              	.LASF17:
 856 002f 70636139 		.ascii	"pca9532Init\000"
 856      35333249 
 856      6E697400 
 857              	.LASF4:
 858 003b 6C6F6E67 		.ascii	"long long unsigned int\000"
 858      206C6F6E 
 858      6720756E 
 858      7369676E 
 858      65642069 
 859              	.LASF19:
 860 0052 72657475 		.ascii	"returnedValue\000"
 860      726E6564 
 860      56616C75 
 860      6500
 861              	.LASF18:
 862 0060 696E6974 		.ascii	"initCommand\000"
 862      436F6D6D 
 862      616E6400 
 863              	.LASF15:
 864 006c 6D61736B 		.ascii	"mask\000"
 864      00
 865              	.LASF1:
 866 0071 756E7369 		.ascii	"unsigned char\000"
 866      676E6564 
 866      20636861 
 866      7200
ARM GAS  C:\Users\embedded\AppData\Local\Temp\ccWxIqiQ.s 			page 19


 867              	.LASF9:
 868 007f 54525545 		.ascii	"TRUE\000"
 868      00
 869              	.LASF13:
 870 0084 70696E4E 		.ascii	"pinNum\000"
 870      756D00
 871              	.LASF20:
 872 008b 474E5520 		.ascii	"GNU C11 7.3.1 20180622 (release) [ARM/embedded-7-br"
 872      43313120 
 872      372E332E 
 872      31203230 
 872      31383036 
 873 00be 616E6368 		.ascii	"anch revision 261907] -mcpu=arm7tdmi -mthumb -mthum"
 873      20726576 
 873      6973696F 
 873      6E203236 
 873      31393037 
 874 00f1 622D696E 		.ascii	"b-interwork -gdwarf-2 -O0\000"
 874      74657277 
 874      6F726B20 
 874      2D676477 
 874      6172662D 
 875              	.LASF11:
 876 010b 636F6D6D 		.ascii	"command\000"
 876      616E6400 
 877              	.LASF22:
 878 0113 433A5C45 		.ascii	"C:\\Embedded\\2138MiniDemo\\2138\000"
 878      6D626564 
 878      6465645C 
 878      32313338 
 878      4D696E69 
 879              	.LASF2:
 880 0131 73686F72 		.ascii	"short unsigned int\000"
 880      7420756E 
 880      7369676E 
 880      65642069 
 880      6E7400
 881              	.LASF21:
 882 0144 70636139 		.ascii	"pca9532.c\000"
 882      3533322E 
 882      6300
 883              	.LASF23:
 884 014e 73657450 		.ascii	"setPca9532Pin\000"
 884      63613935 
 884      33325069 
 884      6E00
 885              	.LASF12:
 886 015c 72656756 		.ascii	"regValue\000"
 886      616C7565 
 886      00
 887              	.LASF0:
 888 0165 74553136 		.ascii	"tU16\000"
 888      00
 889              	.LASF10:
 890 016a 74426F6F 		.ascii	"tBool\000"
 890      6C00
 891              	.LASF6:
ARM GAS  C:\Users\embedded\AppData\Local\Temp\ccWxIqiQ.s 			page 20


 892 0170 73686F72 		.ascii	"short int\000"
 892      7420696E 
 892      7400
 893              	.LASF8:
 894 017a 46414C53 		.ascii	"FALSE\000"
 894      4500
 895              	.LASF5:
 896 0180 7369676E 		.ascii	"signed char\000"
 896      65642063 
 896      68617200 
 897              		.ident	"GCC: (GNU Tools for Arm Embedded Processors 7-2018-q2-update) 7.3.1 20180622 (release) [AR
ARM GAS  C:\Users\embedded\AppData\Local\Temp\ccWxIqiQ.s 			page 21


DEFINED SYMBOLS
                            *ABS*:00000000 pca9532.c
C:\Users\embedded\AppData\Local\Temp\ccWxIqiQ.s:16     .rodata:00000000 $d
C:\Users\embedded\AppData\Local\Temp\ccWxIqiQ.s:35     .text:00000000 pca9532Init
C:\Users\embedded\AppData\Local\Temp\ccWxIqiQ.s:43     .text:00000000 $t
C:\Users\embedded\AppData\Local\Temp\ccWxIqiQ.s:96     .text:00000048 $d
C:\Users\embedded\AppData\Local\Temp\ccWxIqiQ.s:100    .text:0000004c $t
C:\Users\embedded\AppData\Local\Temp\ccWxIqiQ.s:107    .text:0000004c setPca9532Pin
C:\Users\embedded\AppData\Local\Temp\ccWxIqiQ.s:289    .text:00000156 getPca9532Pin

UNDEFINED SYMBOLS
pca9532
