ARM GAS  C:\Users\embedded\AppData\Local\Temp\ccGQZ5p8.s 			page 1


   1              		.cpu arm7tdmi
   2              		.eabi_attribute 20, 1
   3              		.eabi_attribute 21, 1
   4              		.eabi_attribute 23, 3
   5              		.eabi_attribute 24, 1
   6              		.eabi_attribute 25, 1
   7              		.eabi_attribute 26, 1
   8              		.eabi_attribute 30, 6
   9              		.eabi_attribute 34, 0
  10              		.eabi_attribute 18, 4
  11              		.file	"rtc.c"
  12              		.text
  13              	.Ltext0:
  14              		.cfi_sections	.debug_frame
  15              		.section	.rodata
  16              		.align	2
  17              	.LC0:
  18 0000 256400   		.ascii	"%d\000"
  19 0003 00       		.align	2
  20              	.LC2:
  21 0004 3A00     		.ascii	":\000"
  22              		.text
  23              		.align	1
  24              		.global	showTime
  25              		.syntax unified
  26              		.code	16
  27              		.thumb_func
  28              		.fpu softvfp
  29              		.type	showTime, %function
  30              	showTime:
  31              	.LFB0:
  32              		.file 1 "rtc.c"
   1:rtc.c         **** #include "rtc.h"
   2:rtc.c         **** 
   3:rtc.c         **** void showTime(tU8 sec,tU8 min,tU8 hour, tU8 highlight){
  33              		.loc 1 3 0
  34              		.cfi_startproc
  35              		@ Function supports interworking.
  36              		@ args = 0, pretend = 0, frame = 24
  37              		@ frame_needed = 1, uses_anonymous_args = 0
  38 0000 F0B5     		push	{r4, r5, r6, r7, lr}
  39              	.LCFI0:
  40              		.cfi_def_cfa_offset 20
  41              		.cfi_offset 4, -20
  42              		.cfi_offset 5, -16
  43              		.cfi_offset 6, -12
  44              		.cfi_offset 7, -8
  45              		.cfi_offset 14, -4
  46 0002 87B0     		sub	sp, sp, #28
  47              	.LCFI1:
  48              		.cfi_def_cfa_offset 48
  49 0004 00AF     		add	r7, sp, #0
  50              	.LCFI2:
  51              		.cfi_def_cfa_register 7
  52 0006 0500     		movs	r5, r0
  53 0008 0C00     		movs	r4, r1
  54 000a 1000     		movs	r0, r2
ARM GAS  C:\Users\embedded\AppData\Local\Temp\ccGQZ5p8.s 			page 2


  55 000c 1900     		movs	r1, r3
  56 000e FB1D     		adds	r3, r7, #7
  57 0010 2A1C     		adds	r2, r5, #0
  58 0012 1A70     		strb	r2, [r3]
  59 0014 BB1D     		adds	r3, r7, #6
  60 0016 221C     		adds	r2, r4, #0
  61 0018 1A70     		strb	r2, [r3]
  62 001a 7B1D     		adds	r3, r7, #5
  63 001c 021C     		adds	r2, r0, #0
  64 001e 1A70     		strb	r2, [r3]
  65 0020 3B1D     		adds	r3, r7, #4
  66 0022 0A1C     		adds	r2, r1, #0
  67 0024 1A70     		strb	r2, [r3]
   4:rtc.c         **** 
   5:rtc.c         **** 	tU8 tabS[3];
   6:rtc.c         ****     sprintf(tabS, "%d", sec);
  68              		.loc 1 6 0
  69 0026 FB1D     		adds	r3, r7, #7
  70 0028 1A78     		ldrb	r2, [r3]
  71 002a 5349     		ldr	r1, .L8
  72 002c 1024     		movs	r4, #16
  73 002e 3B19     		adds	r3, r7, r4
  74 0030 1800     		movs	r0, r3
  75 0032 FFF7FEFF 		bl	sprintf
   7:rtc.c         ****     tU8 tabMin[3];
   8:rtc.c         ****     sprintf(tabMin, "%d", min);
  76              		.loc 1 8 0
  77 0036 BB1D     		adds	r3, r7, #6
  78 0038 1A78     		ldrb	r2, [r3]
  79 003a 4F49     		ldr	r1, .L8
  80 003c 0C25     		movs	r5, #12
  81 003e 7B19     		adds	r3, r7, r5
  82 0040 1800     		movs	r0, r3
  83 0042 FFF7FEFF 		bl	sprintf
   9:rtc.c         ****     tU8 tabHr[3];
  10:rtc.c         ****     sprintf(tabHr, "%d", hour);
  84              		.loc 1 10 0
  85 0046 7B1D     		adds	r3, r7, #5
  86 0048 1A78     		ldrb	r2, [r3]
  87 004a 4B49     		ldr	r1, .L8
  88 004c 0826     		movs	r6, #8
  89 004e BB19     		adds	r3, r7, r6
  90 0050 1800     		movs	r0, r3
  91 0052 FFF7FEFF 		bl	sprintf
  11:rtc.c         **** 
  12:rtc.c         ****     tabS[2] = '\0';
  92              		.loc 1 12 0
  93 0056 3B19     		adds	r3, r7, r4
  94 0058 0022     		movs	r2, #0
  95 005a 9A70     		strb	r2, [r3, #2]
  13:rtc.c         ****     tabMin[2] = '\0';
  96              		.loc 1 13 0
  97 005c 7B19     		adds	r3, r7, r5
  98 005e 0022     		movs	r2, #0
  99 0060 9A70     		strb	r2, [r3, #2]
  14:rtc.c         ****     tabHr[2] = '\0';
 100              		.loc 1 14 0
ARM GAS  C:\Users\embedded\AppData\Local\Temp\ccGQZ5p8.s 			page 3


 101 0062 BB19     		adds	r3, r7, r6
 102 0064 0022     		movs	r2, #0
 103 0066 9A70     		strb	r2, [r3, #2]
  15:rtc.c         **** 
  16:rtc.c         ****     if (sec < 10) {
 104              		.loc 1 16 0
 105 0068 FB1D     		adds	r3, r7, #7
 106 006a 1B78     		ldrb	r3, [r3]
 107 006c 092B     		cmp	r3, #9
 108 006e 0CD8     		bhi	.L2
 109              	.LBB2:
  17:rtc.c         ****         tU8 temp1 = tabS[0];
 110              		.loc 1 17 0
 111 0070 1720     		movs	r0, #23
 112 0072 3B18     		adds	r3, r7, r0
 113 0074 1021     		movs	r1, #16
 114 0076 7A18     		adds	r2, r7, r1
 115 0078 1278     		ldrb	r2, [r2]
 116 007a 1A70     		strb	r2, [r3]
  18:rtc.c         ****         tabS[1] = temp1;
 117              		.loc 1 18 0
 118 007c 7B18     		adds	r3, r7, r1
 119 007e 3A18     		adds	r2, r7, r0
 120 0080 1278     		ldrb	r2, [r2]
 121 0082 5A70     		strb	r2, [r3, #1]
  19:rtc.c         ****         tabS[0] = '0';
 122              		.loc 1 19 0
 123 0084 7B18     		adds	r3, r7, r1
 124 0086 3022     		movs	r2, #48
 125 0088 1A70     		strb	r2, [r3]
 126              	.L2:
 127              	.LBE2:
  20:rtc.c         ****     }
  21:rtc.c         ****     if (min < 10) {
 128              		.loc 1 21 0
 129 008a BB1D     		adds	r3, r7, #6
 130 008c 1B78     		ldrb	r3, [r3]
 131 008e 092B     		cmp	r3, #9
 132 0090 0CD8     		bhi	.L3
 133              	.LBB3:
  22:rtc.c         ****         tU8 temp2 = tabMin[0];
 134              		.loc 1 22 0
 135 0092 1620     		movs	r0, #22
 136 0094 3B18     		adds	r3, r7, r0
 137 0096 0C21     		movs	r1, #12
 138 0098 7A18     		adds	r2, r7, r1
 139 009a 1278     		ldrb	r2, [r2]
 140 009c 1A70     		strb	r2, [r3]
  23:rtc.c         ****         tabMin[1] = temp2;
 141              		.loc 1 23 0
 142 009e 7B18     		adds	r3, r7, r1
 143 00a0 3A18     		adds	r2, r7, r0
 144 00a2 1278     		ldrb	r2, [r2]
 145 00a4 5A70     		strb	r2, [r3, #1]
  24:rtc.c         ****         tabMin[0] = '0';
 146              		.loc 1 24 0
 147 00a6 7B18     		adds	r3, r7, r1
ARM GAS  C:\Users\embedded\AppData\Local\Temp\ccGQZ5p8.s 			page 4


 148 00a8 3022     		movs	r2, #48
 149 00aa 1A70     		strb	r2, [r3]
 150              	.L3:
 151              	.LBE3:
  25:rtc.c         ****     }
  26:rtc.c         ****     if (hour < 10) {
 152              		.loc 1 26 0
 153 00ac 7B1D     		adds	r3, r7, #5
 154 00ae 1B78     		ldrb	r3, [r3]
 155 00b0 092B     		cmp	r3, #9
 156 00b2 0CD8     		bhi	.L4
 157              	.LBB4:
  27:rtc.c         ****         tU8 temp3 = tabHr[0];
 158              		.loc 1 27 0
 159 00b4 1520     		movs	r0, #21
 160 00b6 3B18     		adds	r3, r7, r0
 161 00b8 0821     		movs	r1, #8
 162 00ba 7A18     		adds	r2, r7, r1
 163 00bc 1278     		ldrb	r2, [r2]
 164 00be 1A70     		strb	r2, [r3]
  28:rtc.c         ****         tabHr[1] = temp3;
 165              		.loc 1 28 0
 166 00c0 7B18     		adds	r3, r7, r1
 167 00c2 3A18     		adds	r2, r7, r0
 168 00c4 1278     		ldrb	r2, [r2]
 169 00c6 5A70     		strb	r2, [r3, #1]
  29:rtc.c         ****         tabHr[0] = '0';
 170              		.loc 1 29 0
 171 00c8 7B18     		adds	r3, r7, r1
 172 00ca 3022     		movs	r2, #48
 173 00cc 1A70     		strb	r2, [r3]
 174              	.L4:
 175              	.LBE4:
  30:rtc.c         ****     }
  31:rtc.c         **** 
  32:rtc.c         ****     if(highlight == 0){
 176              		.loc 1 32 0
 177 00ce 3B1D     		adds	r3, r7, #4
 178 00d0 1B78     		ldrb	r3, [r3]
 179 00d2 002B     		cmp	r3, #0
 180 00d4 03D1     		bne	.L5
 181              	.LBB5:
  33:rtc.c         ****     	lcdColor(0x00, 0xff);
 182              		.loc 1 33 0
 183 00d6 FF21     		movs	r1, #255
 184 00d8 0020     		movs	r0, #0
 185 00da FFF7FEFF 		bl	lcdColor
 186              	.L5:
 187              	.LBE5:
  34:rtc.c         ****     }
  35:rtc.c         ****     lcdGotoxy(10, 70);
 188              		.loc 1 35 0
 189 00de 4621     		movs	r1, #70
 190 00e0 0A20     		movs	r0, #10
 191 00e2 FFF7FEFF 		bl	lcdGotoxy
  36:rtc.c         ****     lcdPuts(tabHr);
 192              		.loc 1 36 0
ARM GAS  C:\Users\embedded\AppData\Local\Temp\ccGQZ5p8.s 			page 5


 193 00e6 0823     		movs	r3, #8
 194 00e8 FB18     		adds	r3, r7, r3
 195 00ea 1800     		movs	r0, r3
 196 00ec FFF7FEFF 		bl	lcdPuts
  37:rtc.c         ****     lcdColor(0xff, 0x00);
 197              		.loc 1 37 0
 198 00f0 0021     		movs	r1, #0
 199 00f2 FF20     		movs	r0, #255
 200 00f4 FFF7FEFF 		bl	lcdColor
  38:rtc.c         **** 
  39:rtc.c         ****     lcdGotoxy(30, 70);
 201              		.loc 1 39 0
 202 00f8 4621     		movs	r1, #70
 203 00fa 1E20     		movs	r0, #30
 204 00fc FFF7FEFF 		bl	lcdGotoxy
  40:rtc.c         ****     lcdPuts(":");
 205              		.loc 1 40 0
 206 0100 1E4B     		ldr	r3, .L8+4
 207 0102 1800     		movs	r0, r3
 208 0104 FFF7FEFF 		bl	lcdPuts
  41:rtc.c         **** 
  42:rtc.c         ****     if(highlight == 1){
 209              		.loc 1 42 0
 210 0108 3B1D     		adds	r3, r7, #4
 211 010a 1B78     		ldrb	r3, [r3]
 212 010c 012B     		cmp	r3, #1
 213 010e 03D1     		bne	.L6
  43:rtc.c         ****         lcdColor(0x00, 0xff);
 214              		.loc 1 43 0
 215 0110 FF21     		movs	r1, #255
 216 0112 0020     		movs	r0, #0
 217 0114 FFF7FEFF 		bl	lcdColor
 218              	.L6:
  44:rtc.c         ****     }
  45:rtc.c         ****     lcdGotoxy(50, 70);
 219              		.loc 1 45 0
 220 0118 4621     		movs	r1, #70
 221 011a 3220     		movs	r0, #50
 222 011c FFF7FEFF 		bl	lcdGotoxy
  46:rtc.c         ****     lcdPuts(tabMin);
 223              		.loc 1 46 0
 224 0120 0C23     		movs	r3, #12
 225 0122 FB18     		adds	r3, r7, r3
 226 0124 1800     		movs	r0, r3
 227 0126 FFF7FEFF 		bl	lcdPuts
  47:rtc.c         ****     lcdColor(0xff, 0x00);
 228              		.loc 1 47 0
 229 012a 0021     		movs	r1, #0
 230 012c FF20     		movs	r0, #255
 231 012e FFF7FEFF 		bl	lcdColor
  48:rtc.c         **** 
  49:rtc.c         **** 
  50:rtc.c         ****     lcdGotoxy(70, 70);
 232              		.loc 1 50 0
 233 0132 4621     		movs	r1, #70
 234 0134 4620     		movs	r0, #70
 235 0136 FFF7FEFF 		bl	lcdGotoxy
ARM GAS  C:\Users\embedded\AppData\Local\Temp\ccGQZ5p8.s 			page 6


  51:rtc.c         ****     lcdPuts(":");
 236              		.loc 1 51 0
 237 013a 104B     		ldr	r3, .L8+4
 238 013c 1800     		movs	r0, r3
 239 013e FFF7FEFF 		bl	lcdPuts
  52:rtc.c         ****     if(highlight == 2){
 240              		.loc 1 52 0
 241 0142 3B1D     		adds	r3, r7, #4
 242 0144 1B78     		ldrb	r3, [r3]
 243 0146 022B     		cmp	r3, #2
 244 0148 03D1     		bne	.L7
  53:rtc.c         ****     	lcdColor(0x00, 0xff);
 245              		.loc 1 53 0
 246 014a FF21     		movs	r1, #255
 247 014c 0020     		movs	r0, #0
 248 014e FFF7FEFF 		bl	lcdColor
 249              	.L7:
  54:rtc.c         ****     }
  55:rtc.c         ****     lcdGotoxy(90, 70);
 250              		.loc 1 55 0
 251 0152 4621     		movs	r1, #70
 252 0154 5A20     		movs	r0, #90
 253 0156 FFF7FEFF 		bl	lcdGotoxy
  56:rtc.c         ****     lcdPuts(tabS);
 254              		.loc 1 56 0
 255 015a 1023     		movs	r3, #16
 256 015c FB18     		adds	r3, r7, r3
 257 015e 1800     		movs	r0, r3
 258 0160 FFF7FEFF 		bl	lcdPuts
  57:rtc.c         ****     lcdColor(0xff, 0x00);
 259              		.loc 1 57 0
 260 0164 0021     		movs	r1, #0
 261 0166 FF20     		movs	r0, #255
 262 0168 FFF7FEFF 		bl	lcdColor
  58:rtc.c         **** }
 263              		.loc 1 58 0
 264 016c C046     		nop
 265 016e BD46     		mov	sp, r7
 266 0170 07B0     		add	sp, sp, #28
 267              		@ sp needed
 268 0172 F0BC     		pop	{r4, r5, r6, r7}
 269 0174 01BC     		pop	{r0}
 270 0176 0047     		bx	r0
 271              	.L9:
 272              		.align	2
 273              	.L8:
 274 0178 00000000 		.word	.LC0
 275 017c 04000000 		.word	.LC2
 276              		.cfi_endproc
 277              	.LFE0:
 278              		.size	showTime, .-showTime
 279              		.align	1
 280              		.global	setAlarm
 281              		.syntax unified
 282              		.code	16
 283              		.thumb_func
 284              		.fpu softvfp
ARM GAS  C:\Users\embedded\AppData\Local\Temp\ccGQZ5p8.s 			page 7


 285              		.type	setAlarm, %function
 286              	setAlarm:
 287              	.LFB1:
  59:rtc.c         **** 
  60:rtc.c         **** 
  61:rtc.c         **** void setAlarm(tU8 sec, tU8 min, tU8 hour){
 288              		.loc 1 61 0
 289              		.cfi_startproc
 290              		@ Function supports interworking.
 291              		@ args = 0, pretend = 0, frame = 8
 292              		@ frame_needed = 1, uses_anonymous_args = 0
 293 0180 90B5     		push	{r4, r7, lr}
 294              	.LCFI3:
 295              		.cfi_def_cfa_offset 12
 296              		.cfi_offset 4, -12
 297              		.cfi_offset 7, -8
 298              		.cfi_offset 14, -4
 299 0182 83B0     		sub	sp, sp, #12
 300              	.LCFI4:
 301              		.cfi_def_cfa_offset 24
 302 0184 00AF     		add	r7, sp, #0
 303              	.LCFI5:
 304              		.cfi_def_cfa_register 7
 305 0186 0400     		movs	r4, r0
 306 0188 0800     		movs	r0, r1
 307 018a 1100     		movs	r1, r2
 308 018c FB1D     		adds	r3, r7, #7
 309 018e 221C     		adds	r2, r4, #0
 310 0190 1A70     		strb	r2, [r3]
 311 0192 BB1D     		adds	r3, r7, #6
 312 0194 021C     		adds	r2, r0, #0
 313 0196 1A70     		strb	r2, [r3]
 314 0198 7B1D     		adds	r3, r7, #5
 315 019a 0A1C     		adds	r2, r1, #0
 316 019c 1A70     		strb	r2, [r3]
  62:rtc.c         **** 	RTC_ALSEC = sec;
 317              		.loc 1 62 0
 318 019e 0A4B     		ldr	r3, .L11
 319 01a0 FA1D     		adds	r2, r7, #7
 320 01a2 1278     		ldrb	r2, [r2]
 321 01a4 1A60     		str	r2, [r3]
  63:rtc.c         **** 	RTC_ALMIN = min;
 322              		.loc 1 63 0
 323 01a6 094B     		ldr	r3, .L11+4
 324 01a8 BA1D     		adds	r2, r7, #6
 325 01aa 1278     		ldrb	r2, [r2]
 326 01ac 1A60     		str	r2, [r3]
  64:rtc.c         **** 	RTC_ALHOUR = hour;
 327              		.loc 1 64 0
 328 01ae 084B     		ldr	r3, .L11+8
 329 01b0 7A1D     		adds	r2, r7, #5
 330 01b2 1278     		ldrb	r2, [r2]
 331 01b4 1A60     		str	r2, [r3]
  65:rtc.c         **** 	RTC_AMR = 0xF8;
 332              		.loc 1 65 0
 333 01b6 074B     		ldr	r3, .L11+12
 334 01b8 F822     		movs	r2, #248
ARM GAS  C:\Users\embedded\AppData\Local\Temp\ccGQZ5p8.s 			page 8


 335 01ba 1A60     		str	r2, [r3]
  66:rtc.c         **** }
 336              		.loc 1 66 0
 337 01bc C046     		nop
 338 01be BD46     		mov	sp, r7
 339 01c0 03B0     		add	sp, sp, #12
 340              		@ sp needed
 341 01c2 90BC     		pop	{r4, r7}
 342 01c4 01BC     		pop	{r0}
 343 01c6 0047     		bx	r0
 344              	.L12:
 345              		.align	2
 346              	.L11:
 347 01c8 604002E0 		.word	-536723360
 348 01cc 644002E0 		.word	-536723356
 349 01d0 684002E0 		.word	-536723352
 350 01d4 104002E0 		.word	-536723440
 351              		.cfi_endproc
 352              	.LFE1:
 353              		.size	setAlarm, .-setAlarm
 354              	.Letext0:
 355              		.file 2 "general.h"
 356              		.file 3 "<built-in>"
 357              		.section	.debug_info,"",%progbits
 358              	.Ldebug_info0:
 359 0000 13020000 		.4byte	0x213
 360 0004 0200     		.2byte	0x2
 361 0006 00000000 		.4byte	.Ldebug_abbrev0
 362 000a 04       		.byte	0x4
 363 000b 01       		.uleb128 0x1
 364 000c 8E000000 		.4byte	.LASF21
 365 0010 0C       		.byte	0xc
 366 0011 5F010000 		.4byte	.LASF22
 367 0015 1C010000 		.4byte	.LASF23
 368 0019 00000000 		.4byte	.Ltext0
 369 001d D8010000 		.4byte	.Letext0
 370 0021 00000000 		.4byte	.Ldebug_line0
 371 0025 02       		.uleb128 0x2
 372 0026 74553800 		.ascii	"tU8\000"
 373 002a 02       		.byte	0x2
 374 002b 18       		.byte	0x18
 375 002c 30000000 		.4byte	0x30
 376 0030 03       		.uleb128 0x3
 377 0031 01       		.byte	0x1
 378 0032 08       		.byte	0x8
 379 0033 6F000000 		.4byte	.LASF0
 380 0037 03       		.uleb128 0x3
 381 0038 02       		.byte	0x2
 382 0039 07       		.byte	0x7
 383 003a 3A010000 		.4byte	.LASF1
 384 003e 03       		.uleb128 0x3
 385 003f 04       		.byte	0x4
 386 0040 07       		.byte	0x7
 387 0041 21000000 		.4byte	.LASF2
 388 0045 03       		.uleb128 0x3
 389 0046 08       		.byte	0x8
 390 0047 07       		.byte	0x7
ARM GAS  C:\Users\embedded\AppData\Local\Temp\ccGQZ5p8.s 			page 9


 391 0048 3B000000 		.4byte	.LASF3
 392 004c 03       		.uleb128 0x3
 393 004d 01       		.byte	0x1
 394 004e 06       		.byte	0x6
 395 004f 4D010000 		.4byte	.LASF4
 396 0053 03       		.uleb128 0x3
 397 0054 02       		.byte	0x2
 398 0055 05       		.byte	0x5
 399 0056 6B010000 		.4byte	.LASF5
 400 005a 04       		.uleb128 0x4
 401 005b 04       		.byte	0x4
 402 005c 05       		.byte	0x5
 403 005d 696E7400 		.ascii	"int\000"
 404 0061 03       		.uleb128 0x3
 405 0062 08       		.byte	0x8
 406 0063 05       		.byte	0x5
 407 0064 00000000 		.4byte	.LASF6
 408 0068 05       		.uleb128 0x5
 409 0069 01       		.byte	0x1
 410 006a 18000000 		.4byte	.LASF8
 411 006e 01       		.byte	0x1
 412 006f 3D       		.byte	0x3d
 413 0070 01       		.byte	0x1
 414 0071 80010000 		.4byte	.LFB1
 415 0075 D8010000 		.4byte	.LFE1
 416 0079 00000000 		.4byte	.LLST1
 417 007d 01       		.byte	0x1
 418 007e AD000000 		.4byte	0xad
 419 0082 06       		.uleb128 0x6
 420 0083 73656300 		.ascii	"sec\000"
 421 0087 01       		.byte	0x1
 422 0088 3D       		.byte	0x3d
 423 0089 25000000 		.4byte	0x25
 424 008d 02       		.byte	0x2
 425 008e 91       		.byte	0x91
 426 008f 6F       		.sleb128 -17
 427 0090 06       		.uleb128 0x6
 428 0091 6D696E00 		.ascii	"min\000"
 429 0095 01       		.byte	0x1
 430 0096 3D       		.byte	0x3d
 431 0097 25000000 		.4byte	0x25
 432 009b 02       		.byte	0x2
 433 009c 91       		.byte	0x91
 434 009d 6E       		.sleb128 -18
 435 009e 07       		.uleb128 0x7
 436 009f 0E010000 		.4byte	.LASF7
 437 00a3 01       		.byte	0x1
 438 00a4 3D       		.byte	0x3d
 439 00a5 25000000 		.4byte	0x25
 440 00a9 02       		.byte	0x2
 441 00aa 91       		.byte	0x91
 442 00ab 6D       		.sleb128 -19
 443 00ac 00       		.byte	0
 444 00ad 08       		.uleb128 0x8
 445 00ae 01       		.byte	0x1
 446 00af 13010000 		.4byte	.LASF9
 447 00b3 01       		.byte	0x1
ARM GAS  C:\Users\embedded\AppData\Local\Temp\ccGQZ5p8.s 			page 10


 448 00b4 03       		.byte	0x3
 449 00b5 01       		.byte	0x1
 450 00b6 00000000 		.4byte	.LFB0
 451 00ba 80010000 		.4byte	.LFE0
 452 00be 38000000 		.4byte	.LLST0
 453 00c2 01       		.byte	0x1
 454 00c3 EE010000 		.4byte	0x1ee
 455 00c7 06       		.uleb128 0x6
 456 00c8 73656300 		.ascii	"sec\000"
 457 00cc 01       		.byte	0x1
 458 00cd 03       		.byte	0x3
 459 00ce 25000000 		.4byte	0x25
 460 00d2 02       		.byte	0x2
 461 00d3 91       		.byte	0x91
 462 00d4 57       		.sleb128 -41
 463 00d5 06       		.uleb128 0x6
 464 00d6 6D696E00 		.ascii	"min\000"
 465 00da 01       		.byte	0x1
 466 00db 03       		.byte	0x3
 467 00dc 25000000 		.4byte	0x25
 468 00e0 02       		.byte	0x2
 469 00e1 91       		.byte	0x91
 470 00e2 56       		.sleb128 -42
 471 00e3 07       		.uleb128 0x7
 472 00e4 0E010000 		.4byte	.LASF7
 473 00e8 01       		.byte	0x1
 474 00e9 03       		.byte	0x3
 475 00ea 25000000 		.4byte	0x25
 476 00ee 02       		.byte	0x2
 477 00ef 91       		.byte	0x91
 478 00f0 55       		.sleb128 -43
 479 00f1 07       		.uleb128 0x7
 480 00f2 65000000 		.4byte	.LASF10
 481 00f6 01       		.byte	0x1
 482 00f7 03       		.byte	0x3
 483 00f8 25000000 		.4byte	0x25
 484 00fc 02       		.byte	0x2
 485 00fd 91       		.byte	0x91
 486 00fe 54       		.sleb128 -44
 487 00ff 09       		.uleb128 0x9
 488 0100 36000000 		.4byte	.LASF11
 489 0104 01       		.byte	0x1
 490 0105 05       		.byte	0x5
 491 0106 EE010000 		.4byte	0x1ee
 492 010a 02       		.byte	0x2
 493 010b 91       		.byte	0x91
 494 010c 60       		.sleb128 -32
 495 010d 0A       		.uleb128 0xa
 496 010e 01       		.byte	0x1
 497 010f 2E000000 		.4byte	.LASF24
 498 0113 03       		.byte	0x3
 499 0114 00       		.byte	0
 500 0115 01       		.byte	0x1
 501 0116 5A000000 		.4byte	0x5a
 502 011a 01       		.byte	0x1
 503 011b 2B010000 		.4byte	0x12b
 504 011f 0B       		.uleb128 0xb
ARM GAS  C:\Users\embedded\AppData\Local\Temp\ccGQZ5p8.s 			page 11


 505 0120 FE010000 		.4byte	0x1fe
 506 0124 0B       		.uleb128 0xb
 507 0125 10020000 		.4byte	0x210
 508 0129 0C       		.uleb128 0xc
 509 012a 00       		.byte	0
 510 012b 09       		.uleb128 0x9
 511 012c 58000000 		.4byte	.LASF12
 512 0130 01       		.byte	0x1
 513 0131 07       		.byte	0x7
 514 0132 EE010000 		.4byte	0x1ee
 515 0136 02       		.byte	0x2
 516 0137 91       		.byte	0x91
 517 0138 5C       		.sleb128 -36
 518 0139 09       		.uleb128 0x9
 519 013a 65010000 		.4byte	.LASF13
 520 013e 01       		.byte	0x1
 521 013f 09       		.byte	0x9
 522 0140 EE010000 		.4byte	0x1ee
 523 0144 02       		.byte	0x2
 524 0145 91       		.byte	0x91
 525 0146 58       		.sleb128 -40
 526 0147 0D       		.uleb128 0xd
 527 0148 01       		.byte	0x1
 528 0149 0E000000 		.4byte	.LASF14
 529 014d 01       		.byte	0x1
 530 014e 23       		.byte	0x23
 531 014f 5A000000 		.4byte	0x5a
 532 0153 01       		.byte	0x1
 533 0154 5A010000 		.4byte	0x15a
 534 0158 0C       		.uleb128 0xc
 535 0159 00       		.byte	0
 536 015a 0D       		.uleb128 0xd
 537 015b 01       		.byte	0x1
 538 015c 86000000 		.4byte	.LASF15
 539 0160 01       		.byte	0x1
 540 0161 24       		.byte	0x24
 541 0162 5A000000 		.4byte	0x5a
 542 0166 01       		.byte	0x1
 543 0167 6D010000 		.4byte	0x16d
 544 016b 0C       		.uleb128 0xc
 545 016c 00       		.byte	0
 546 016d 0D       		.uleb128 0xd
 547 016e 01       		.byte	0x1
 548 016f 7D000000 		.4byte	.LASF16
 549 0173 01       		.byte	0x1
 550 0174 21       		.byte	0x21
 551 0175 5A000000 		.4byte	0x5a
 552 0179 01       		.byte	0x1
 553 017a 80010000 		.4byte	0x180
 554 017e 0C       		.uleb128 0xc
 555 017f 00       		.byte	0
 556 0180 0E       		.uleb128 0xe
 557 0181 70000000 		.4byte	.LBB2
 558 0185 8A000000 		.4byte	.LBE2
 559 0189 9C010000 		.4byte	0x19c
 560 018d 09       		.uleb128 0x9
 561 018e 52000000 		.4byte	.LASF17
ARM GAS  C:\Users\embedded\AppData\Local\Temp\ccGQZ5p8.s 			page 12


 562 0192 01       		.byte	0x1
 563 0193 11       		.byte	0x11
 564 0194 25000000 		.4byte	0x25
 565 0198 02       		.byte	0x2
 566 0199 91       		.byte	0x91
 567 019a 67       		.sleb128 -25
 568 019b 00       		.byte	0
 569 019c 0E       		.uleb128 0xe
 570 019d 92000000 		.4byte	.LBB3
 571 01a1 AC000000 		.4byte	.LBE3
 572 01a5 B8010000 		.4byte	0x1b8
 573 01a9 09       		.uleb128 0x9
 574 01aa 59010000 		.4byte	.LASF18
 575 01ae 01       		.byte	0x1
 576 01af 16       		.byte	0x16
 577 01b0 25000000 		.4byte	0x25
 578 01b4 02       		.byte	0x2
 579 01b5 91       		.byte	0x91
 580 01b6 66       		.sleb128 -26
 581 01b7 00       		.byte	0
 582 01b8 0E       		.uleb128 0xe
 583 01b9 B4000000 		.4byte	.LBB4
 584 01bd CE000000 		.4byte	.LBE4
 585 01c1 D4010000 		.4byte	0x1d4
 586 01c5 09       		.uleb128 0x9
 587 01c6 5F000000 		.4byte	.LASF19
 588 01ca 01       		.byte	0x1
 589 01cb 1B       		.byte	0x1b
 590 01cc 25000000 		.4byte	0x25
 591 01d0 02       		.byte	0x2
 592 01d1 91       		.byte	0x91
 593 01d2 65       		.sleb128 -27
 594 01d3 00       		.byte	0
 595 01d4 0F       		.uleb128 0xf
 596 01d5 D6000000 		.4byte	.LBB5
 597 01d9 DE000000 		.4byte	.LBE5
 598 01dd 10       		.uleb128 0x10
 599 01de 01       		.byte	0x1
 600 01df 7D000000 		.4byte	.LASF16
 601 01e3 01       		.byte	0x1
 602 01e4 21       		.byte	0x21
 603 01e5 5A000000 		.4byte	0x5a
 604 01e9 01       		.byte	0x1
 605 01ea 0C       		.uleb128 0xc
 606 01eb 00       		.byte	0
 607 01ec 00       		.byte	0
 608 01ed 00       		.byte	0
 609 01ee 11       		.uleb128 0x11
 610 01ef 25000000 		.4byte	0x25
 611 01f3 FE010000 		.4byte	0x1fe
 612 01f7 12       		.uleb128 0x12
 613 01f8 3E000000 		.4byte	0x3e
 614 01fc 02       		.byte	0x2
 615 01fd 00       		.byte	0
 616 01fe 13       		.uleb128 0x13
 617 01ff 04       		.byte	0x4
 618 0200 04020000 		.4byte	0x204
ARM GAS  C:\Users\embedded\AppData\Local\Temp\ccGQZ5p8.s 			page 13


 619 0204 03       		.uleb128 0x3
 620 0205 01       		.byte	0x1
 621 0206 08       		.byte	0x8
 622 0207 75010000 		.4byte	.LASF20
 623 020b 14       		.uleb128 0x14
 624 020c 04020000 		.4byte	0x204
 625 0210 13       		.uleb128 0x13
 626 0211 04       		.byte	0x4
 627 0212 0B020000 		.4byte	0x20b
 628 0216 00       		.byte	0
 629              		.section	.debug_abbrev,"",%progbits
 630              	.Ldebug_abbrev0:
 631 0000 01       		.uleb128 0x1
 632 0001 11       		.uleb128 0x11
 633 0002 01       		.byte	0x1
 634 0003 25       		.uleb128 0x25
 635 0004 0E       		.uleb128 0xe
 636 0005 13       		.uleb128 0x13
 637 0006 0B       		.uleb128 0xb
 638 0007 03       		.uleb128 0x3
 639 0008 0E       		.uleb128 0xe
 640 0009 1B       		.uleb128 0x1b
 641 000a 0E       		.uleb128 0xe
 642 000b 11       		.uleb128 0x11
 643 000c 01       		.uleb128 0x1
 644 000d 12       		.uleb128 0x12
 645 000e 01       		.uleb128 0x1
 646 000f 10       		.uleb128 0x10
 647 0010 06       		.uleb128 0x6
 648 0011 00       		.byte	0
 649 0012 00       		.byte	0
 650 0013 02       		.uleb128 0x2
 651 0014 16       		.uleb128 0x16
 652 0015 00       		.byte	0
 653 0016 03       		.uleb128 0x3
 654 0017 08       		.uleb128 0x8
 655 0018 3A       		.uleb128 0x3a
 656 0019 0B       		.uleb128 0xb
 657 001a 3B       		.uleb128 0x3b
 658 001b 0B       		.uleb128 0xb
 659 001c 49       		.uleb128 0x49
 660 001d 13       		.uleb128 0x13
 661 001e 00       		.byte	0
 662 001f 00       		.byte	0
 663 0020 03       		.uleb128 0x3
 664 0021 24       		.uleb128 0x24
 665 0022 00       		.byte	0
 666 0023 0B       		.uleb128 0xb
 667 0024 0B       		.uleb128 0xb
 668 0025 3E       		.uleb128 0x3e
 669 0026 0B       		.uleb128 0xb
 670 0027 03       		.uleb128 0x3
 671 0028 0E       		.uleb128 0xe
 672 0029 00       		.byte	0
 673 002a 00       		.byte	0
 674 002b 04       		.uleb128 0x4
 675 002c 24       		.uleb128 0x24
ARM GAS  C:\Users\embedded\AppData\Local\Temp\ccGQZ5p8.s 			page 14


 676 002d 00       		.byte	0
 677 002e 0B       		.uleb128 0xb
 678 002f 0B       		.uleb128 0xb
 679 0030 3E       		.uleb128 0x3e
 680 0031 0B       		.uleb128 0xb
 681 0032 03       		.uleb128 0x3
 682 0033 08       		.uleb128 0x8
 683 0034 00       		.byte	0
 684 0035 00       		.byte	0
 685 0036 05       		.uleb128 0x5
 686 0037 2E       		.uleb128 0x2e
 687 0038 01       		.byte	0x1
 688 0039 3F       		.uleb128 0x3f
 689 003a 0C       		.uleb128 0xc
 690 003b 03       		.uleb128 0x3
 691 003c 0E       		.uleb128 0xe
 692 003d 3A       		.uleb128 0x3a
 693 003e 0B       		.uleb128 0xb
 694 003f 3B       		.uleb128 0x3b
 695 0040 0B       		.uleb128 0xb
 696 0041 27       		.uleb128 0x27
 697 0042 0C       		.uleb128 0xc
 698 0043 11       		.uleb128 0x11
 699 0044 01       		.uleb128 0x1
 700 0045 12       		.uleb128 0x12
 701 0046 01       		.uleb128 0x1
 702 0047 40       		.uleb128 0x40
 703 0048 06       		.uleb128 0x6
 704 0049 9742     		.uleb128 0x2117
 705 004b 0C       		.uleb128 0xc
 706 004c 01       		.uleb128 0x1
 707 004d 13       		.uleb128 0x13
 708 004e 00       		.byte	0
 709 004f 00       		.byte	0
 710 0050 06       		.uleb128 0x6
 711 0051 05       		.uleb128 0x5
 712 0052 00       		.byte	0
 713 0053 03       		.uleb128 0x3
 714 0054 08       		.uleb128 0x8
 715 0055 3A       		.uleb128 0x3a
 716 0056 0B       		.uleb128 0xb
 717 0057 3B       		.uleb128 0x3b
 718 0058 0B       		.uleb128 0xb
 719 0059 49       		.uleb128 0x49
 720 005a 13       		.uleb128 0x13
 721 005b 02       		.uleb128 0x2
 722 005c 0A       		.uleb128 0xa
 723 005d 00       		.byte	0
 724 005e 00       		.byte	0
 725 005f 07       		.uleb128 0x7
 726 0060 05       		.uleb128 0x5
 727 0061 00       		.byte	0
 728 0062 03       		.uleb128 0x3
 729 0063 0E       		.uleb128 0xe
 730 0064 3A       		.uleb128 0x3a
 731 0065 0B       		.uleb128 0xb
 732 0066 3B       		.uleb128 0x3b
ARM GAS  C:\Users\embedded\AppData\Local\Temp\ccGQZ5p8.s 			page 15


 733 0067 0B       		.uleb128 0xb
 734 0068 49       		.uleb128 0x49
 735 0069 13       		.uleb128 0x13
 736 006a 02       		.uleb128 0x2
 737 006b 0A       		.uleb128 0xa
 738 006c 00       		.byte	0
 739 006d 00       		.byte	0
 740 006e 08       		.uleb128 0x8
 741 006f 2E       		.uleb128 0x2e
 742 0070 01       		.byte	0x1
 743 0071 3F       		.uleb128 0x3f
 744 0072 0C       		.uleb128 0xc
 745 0073 03       		.uleb128 0x3
 746 0074 0E       		.uleb128 0xe
 747 0075 3A       		.uleb128 0x3a
 748 0076 0B       		.uleb128 0xb
 749 0077 3B       		.uleb128 0x3b
 750 0078 0B       		.uleb128 0xb
 751 0079 27       		.uleb128 0x27
 752 007a 0C       		.uleb128 0xc
 753 007b 11       		.uleb128 0x11
 754 007c 01       		.uleb128 0x1
 755 007d 12       		.uleb128 0x12
 756 007e 01       		.uleb128 0x1
 757 007f 40       		.uleb128 0x40
 758 0080 06       		.uleb128 0x6
 759 0081 9642     		.uleb128 0x2116
 760 0083 0C       		.uleb128 0xc
 761 0084 01       		.uleb128 0x1
 762 0085 13       		.uleb128 0x13
 763 0086 00       		.byte	0
 764 0087 00       		.byte	0
 765 0088 09       		.uleb128 0x9
 766 0089 34       		.uleb128 0x34
 767 008a 00       		.byte	0
 768 008b 03       		.uleb128 0x3
 769 008c 0E       		.uleb128 0xe
 770 008d 3A       		.uleb128 0x3a
 771 008e 0B       		.uleb128 0xb
 772 008f 3B       		.uleb128 0x3b
 773 0090 0B       		.uleb128 0xb
 774 0091 49       		.uleb128 0x49
 775 0092 13       		.uleb128 0x13
 776 0093 02       		.uleb128 0x2
 777 0094 0A       		.uleb128 0xa
 778 0095 00       		.byte	0
 779 0096 00       		.byte	0
 780 0097 0A       		.uleb128 0xa
 781 0098 2E       		.uleb128 0x2e
 782 0099 01       		.byte	0x1
 783 009a 3F       		.uleb128 0x3f
 784 009b 0C       		.uleb128 0xc
 785 009c 03       		.uleb128 0x3
 786 009d 0E       		.uleb128 0xe
 787 009e 3A       		.uleb128 0x3a
 788 009f 0B       		.uleb128 0xb
 789 00a0 3B       		.uleb128 0x3b
ARM GAS  C:\Users\embedded\AppData\Local\Temp\ccGQZ5p8.s 			page 16


 790 00a1 0B       		.uleb128 0xb
 791 00a2 27       		.uleb128 0x27
 792 00a3 0C       		.uleb128 0xc
 793 00a4 49       		.uleb128 0x49
 794 00a5 13       		.uleb128 0x13
 795 00a6 3C       		.uleb128 0x3c
 796 00a7 0C       		.uleb128 0xc
 797 00a8 01       		.uleb128 0x1
 798 00a9 13       		.uleb128 0x13
 799 00aa 00       		.byte	0
 800 00ab 00       		.byte	0
 801 00ac 0B       		.uleb128 0xb
 802 00ad 05       		.uleb128 0x5
 803 00ae 00       		.byte	0
 804 00af 49       		.uleb128 0x49
 805 00b0 13       		.uleb128 0x13
 806 00b1 00       		.byte	0
 807 00b2 00       		.byte	0
 808 00b3 0C       		.uleb128 0xc
 809 00b4 18       		.uleb128 0x18
 810 00b5 00       		.byte	0
 811 00b6 00       		.byte	0
 812 00b7 00       		.byte	0
 813 00b8 0D       		.uleb128 0xd
 814 00b9 2E       		.uleb128 0x2e
 815 00ba 01       		.byte	0x1
 816 00bb 3F       		.uleb128 0x3f
 817 00bc 0C       		.uleb128 0xc
 818 00bd 03       		.uleb128 0x3
 819 00be 0E       		.uleb128 0xe
 820 00bf 3A       		.uleb128 0x3a
 821 00c0 0B       		.uleb128 0xb
 822 00c1 3B       		.uleb128 0x3b
 823 00c2 0B       		.uleb128 0xb
 824 00c3 49       		.uleb128 0x49
 825 00c4 13       		.uleb128 0x13
 826 00c5 3C       		.uleb128 0x3c
 827 00c6 0C       		.uleb128 0xc
 828 00c7 01       		.uleb128 0x1
 829 00c8 13       		.uleb128 0x13
 830 00c9 00       		.byte	0
 831 00ca 00       		.byte	0
 832 00cb 0E       		.uleb128 0xe
 833 00cc 0B       		.uleb128 0xb
 834 00cd 01       		.byte	0x1
 835 00ce 11       		.uleb128 0x11
 836 00cf 01       		.uleb128 0x1
 837 00d0 12       		.uleb128 0x12
 838 00d1 01       		.uleb128 0x1
 839 00d2 01       		.uleb128 0x1
 840 00d3 13       		.uleb128 0x13
 841 00d4 00       		.byte	0
 842 00d5 00       		.byte	0
 843 00d6 0F       		.uleb128 0xf
 844 00d7 0B       		.uleb128 0xb
 845 00d8 01       		.byte	0x1
 846 00d9 11       		.uleb128 0x11
ARM GAS  C:\Users\embedded\AppData\Local\Temp\ccGQZ5p8.s 			page 17


 847 00da 01       		.uleb128 0x1
 848 00db 12       		.uleb128 0x12
 849 00dc 01       		.uleb128 0x1
 850 00dd 00       		.byte	0
 851 00de 00       		.byte	0
 852 00df 10       		.uleb128 0x10
 853 00e0 2E       		.uleb128 0x2e
 854 00e1 01       		.byte	0x1
 855 00e2 3F       		.uleb128 0x3f
 856 00e3 0C       		.uleb128 0xc
 857 00e4 03       		.uleb128 0x3
 858 00e5 0E       		.uleb128 0xe
 859 00e6 3A       		.uleb128 0x3a
 860 00e7 0B       		.uleb128 0xb
 861 00e8 3B       		.uleb128 0x3b
 862 00e9 0B       		.uleb128 0xb
 863 00ea 49       		.uleb128 0x49
 864 00eb 13       		.uleb128 0x13
 865 00ec 3C       		.uleb128 0x3c
 866 00ed 0C       		.uleb128 0xc
 867 00ee 00       		.byte	0
 868 00ef 00       		.byte	0
 869 00f0 11       		.uleb128 0x11
 870 00f1 01       		.uleb128 0x1
 871 00f2 01       		.byte	0x1
 872 00f3 49       		.uleb128 0x49
 873 00f4 13       		.uleb128 0x13
 874 00f5 01       		.uleb128 0x1
 875 00f6 13       		.uleb128 0x13
 876 00f7 00       		.byte	0
 877 00f8 00       		.byte	0
 878 00f9 12       		.uleb128 0x12
 879 00fa 21       		.uleb128 0x21
 880 00fb 00       		.byte	0
 881 00fc 49       		.uleb128 0x49
 882 00fd 13       		.uleb128 0x13
 883 00fe 2F       		.uleb128 0x2f
 884 00ff 0B       		.uleb128 0xb
 885 0100 00       		.byte	0
 886 0101 00       		.byte	0
 887 0102 13       		.uleb128 0x13
 888 0103 0F       		.uleb128 0xf
 889 0104 00       		.byte	0
 890 0105 0B       		.uleb128 0xb
 891 0106 0B       		.uleb128 0xb
 892 0107 49       		.uleb128 0x49
 893 0108 13       		.uleb128 0x13
 894 0109 00       		.byte	0
 895 010a 00       		.byte	0
 896 010b 14       		.uleb128 0x14
 897 010c 26       		.uleb128 0x26
 898 010d 00       		.byte	0
 899 010e 49       		.uleb128 0x49
 900 010f 13       		.uleb128 0x13
 901 0110 00       		.byte	0
 902 0111 00       		.byte	0
 903 0112 00       		.byte	0
ARM GAS  C:\Users\embedded\AppData\Local\Temp\ccGQZ5p8.s 			page 18


 904              		.section	.debug_loc,"",%progbits
 905              	.Ldebug_loc0:
 906              	.LLST1:
 907 0000 80010000 		.4byte	.LFB1-.Ltext0
 908 0004 82010000 		.4byte	.LCFI3-.Ltext0
 909 0008 0200     		.2byte	0x2
 910 000a 7D       		.byte	0x7d
 911 000b 00       		.sleb128 0
 912 000c 82010000 		.4byte	.LCFI3-.Ltext0
 913 0010 84010000 		.4byte	.LCFI4-.Ltext0
 914 0014 0200     		.2byte	0x2
 915 0016 7D       		.byte	0x7d
 916 0017 0C       		.sleb128 12
 917 0018 84010000 		.4byte	.LCFI4-.Ltext0
 918 001c 86010000 		.4byte	.LCFI5-.Ltext0
 919 0020 0200     		.2byte	0x2
 920 0022 7D       		.byte	0x7d
 921 0023 18       		.sleb128 24
 922 0024 86010000 		.4byte	.LCFI5-.Ltext0
 923 0028 D8010000 		.4byte	.LFE1-.Ltext0
 924 002c 0200     		.2byte	0x2
 925 002e 77       		.byte	0x77
 926 002f 18       		.sleb128 24
 927 0030 00000000 		.4byte	0
 928 0034 00000000 		.4byte	0
 929              	.LLST0:
 930 0038 00000000 		.4byte	.LFB0-.Ltext0
 931 003c 02000000 		.4byte	.LCFI0-.Ltext0
 932 0040 0200     		.2byte	0x2
 933 0042 7D       		.byte	0x7d
 934 0043 00       		.sleb128 0
 935 0044 02000000 		.4byte	.LCFI0-.Ltext0
 936 0048 04000000 		.4byte	.LCFI1-.Ltext0
 937 004c 0200     		.2byte	0x2
 938 004e 7D       		.byte	0x7d
 939 004f 14       		.sleb128 20
 940 0050 04000000 		.4byte	.LCFI1-.Ltext0
 941 0054 06000000 		.4byte	.LCFI2-.Ltext0
 942 0058 0200     		.2byte	0x2
 943 005a 7D       		.byte	0x7d
 944 005b 30       		.sleb128 48
 945 005c 06000000 		.4byte	.LCFI2-.Ltext0
 946 0060 80010000 		.4byte	.LFE0-.Ltext0
 947 0064 0200     		.2byte	0x2
 948 0066 77       		.byte	0x77
 949 0067 30       		.sleb128 48
 950 0068 00000000 		.4byte	0
 951 006c 00000000 		.4byte	0
 952              		.section	.debug_aranges,"",%progbits
 953 0000 1C000000 		.4byte	0x1c
 954 0004 0200     		.2byte	0x2
 955 0006 00000000 		.4byte	.Ldebug_info0
 956 000a 04       		.byte	0x4
 957 000b 00       		.byte	0
 958 000c 0000     		.2byte	0
 959 000e 0000     		.2byte	0
 960 0010 00000000 		.4byte	.Ltext0
ARM GAS  C:\Users\embedded\AppData\Local\Temp\ccGQZ5p8.s 			page 19


 961 0014 D8010000 		.4byte	.Letext0-.Ltext0
 962 0018 00000000 		.4byte	0
 963 001c 00000000 		.4byte	0
 964              		.section	.debug_line,"",%progbits
 965              	.Ldebug_line0:
 966 0000 77000000 		.section	.debug_str,"MS",%progbits,1
 966      02003700 
 966      00000201 
 966      FB0E0D00 
 966      01010101 
 967              	.LASF6:
 968 0000 6C6F6E67 		.ascii	"long long int\000"
 968      206C6F6E 
 968      6720696E 
 968      7400
 969              	.LASF14:
 970 000e 6C636447 		.ascii	"lcdGotoxy\000"
 970      6F746F78 
 970      7900
 971              	.LASF8:
 972 0018 73657441 		.ascii	"setAlarm\000"
 972      6C61726D 
 972      00
 973              	.LASF2:
 974 0021 756E7369 		.ascii	"unsigned int\000"
 974      676E6564 
 974      20696E74 
 974      00
 975              	.LASF24:
 976 002e 73707269 		.ascii	"sprintf\000"
 976      6E746600 
 977              	.LASF11:
 978 0036 74616253 		.ascii	"tabS\000"
 978      00
 979              	.LASF3:
 980 003b 6C6F6E67 		.ascii	"long long unsigned int\000"
 980      206C6F6E 
 980      6720756E 
 980      7369676E 
 980      65642069 
 981              	.LASF17:
 982 0052 74656D70 		.ascii	"temp1\000"
 982      3100
 983              	.LASF12:
 984 0058 7461624D 		.ascii	"tabMin\000"
 984      696E00
 985              	.LASF19:
 986 005f 74656D70 		.ascii	"temp3\000"
 986      3300
 987              	.LASF10:
 988 0065 68696768 		.ascii	"highlight\000"
 988      6C696768 
 988      7400
 989              	.LASF0:
 990 006f 756E7369 		.ascii	"unsigned char\000"
 990      676E6564 
 990      20636861 
ARM GAS  C:\Users\embedded\AppData\Local\Temp\ccGQZ5p8.s 			page 20


 990      7200
 991              	.LASF16:
 992 007d 6C636443 		.ascii	"lcdColor\000"
 992      6F6C6F72 
 992      00
 993              	.LASF15:
 994 0086 6C636450 		.ascii	"lcdPuts\000"
 994      75747300 
 995              	.LASF21:
 996 008e 474E5520 		.ascii	"GNU C11 7.3.1 20180622 (release) [ARM/embedded-7-br"
 996      43313120 
 996      372E332E 
 996      31203230 
 996      31383036 
 997 00c1 616E6368 		.ascii	"anch revision 261907] -mcpu=arm7tdmi -mthumb -mthum"
 997      20726576 
 997      6973696F 
 997      6E203236 
 997      31393037 
 998 00f4 622D696E 		.ascii	"b-interwork -gdwarf-2 -O0\000"
 998      74657277 
 998      6F726B20 
 998      2D676477 
 998      6172662D 
 999              	.LASF7:
 1000 010e 686F7572 		.ascii	"hour\000"
 1000      00
 1001              	.LASF9:
 1002 0113 73686F77 		.ascii	"showTime\000"
 1002      54696D65 
 1002      00
 1003              	.LASF23:
 1004 011c 433A5C45 		.ascii	"C:\\Embedded\\2138MiniDemo\\2138\000"
 1004      6D626564 
 1004      6465645C 
 1004      32313338 
 1004      4D696E69 
 1005              	.LASF1:
 1006 013a 73686F72 		.ascii	"short unsigned int\000"
 1006      7420756E 
 1006      7369676E 
 1006      65642069 
 1006      6E7400
 1007              	.LASF4:
 1008 014d 7369676E 		.ascii	"signed char\000"
 1008      65642063 
 1008      68617200 
 1009              	.LASF18:
 1010 0159 74656D70 		.ascii	"temp2\000"
 1010      3200
 1011              	.LASF22:
 1012 015f 7274632E 		.ascii	"rtc.c\000"
 1012      6300
 1013              	.LASF13:
 1014 0165 74616248 		.ascii	"tabHr\000"
 1014      7200
 1015              	.LASF5:
ARM GAS  C:\Users\embedded\AppData\Local\Temp\ccGQZ5p8.s 			page 21


 1016 016b 73686F72 		.ascii	"short int\000"
 1016      7420696E 
 1016      7400
 1017              	.LASF20:
 1018 0175 63686172 		.ascii	"char\000"
 1018      00
 1019              		.ident	"GCC: (GNU Tools for Arm Embedded Processors 7-2018-q2-update) 7.3.1 20180622 (release) [AR
ARM GAS  C:\Users\embedded\AppData\Local\Temp\ccGQZ5p8.s 			page 22


DEFINED SYMBOLS
                            *ABS*:00000000 rtc.c
C:\Users\embedded\AppData\Local\Temp\ccGQZ5p8.s:16     .rodata:00000000 $d
C:\Users\embedded\AppData\Local\Temp\ccGQZ5p8.s:30     .text:00000000 showTime
C:\Users\embedded\AppData\Local\Temp\ccGQZ5p8.s:38     .text:00000000 $t
C:\Users\embedded\AppData\Local\Temp\ccGQZ5p8.s:274    .text:00000178 $d
C:\Users\embedded\AppData\Local\Temp\ccGQZ5p8.s:279    .text:00000180 $t
C:\Users\embedded\AppData\Local\Temp\ccGQZ5p8.s:286    .text:00000180 setAlarm
C:\Users\embedded\AppData\Local\Temp\ccGQZ5p8.s:347    .text:000001c8 $d

UNDEFINED SYMBOLS
sprintf
lcdColor
lcdGotoxy
lcdPuts
