ARM GAS  C:\Users\embedded\AppData\Local\Temp\ccGQZ5p8.s 			page 1


   1              		.cpu arm7tdmi
   2              		.eabi_attribute 20, 1
   3              		.eabi_attribute 21, 1
   4              		.eabi_attribute 23, 3
   5              		.eabi_attribute 24, 1
   6              		.eabi_attribute 25, 1
   7              		.eabi_attribute 26, 1
   8              		.eabi_attribute 30, 6
   9              		.eabi_attribute 34, 0
  10              		.eabi_attribute 18, 4
  11              		.file	"rtc.c"
  12              		.text
  13              	.Ltext0:
  14              		.cfi_sections	.debug_frame
  15              		.section	.rodata
  16              		.align	2
  17              	.LC0:
  18 0000 256400   		.ascii	"%d\000"
  19 0003 00       		.align	2
  20              	.LC2:
  21 0004 3A00     		.ascii	":\000"
  22              		.text
  23              		.align	1
  24              		.global	showTime
  25              		.syntax unified
  26              		.code	16
  27              		.thumb_func
  28              		.fpu softvfp
  29              		.type	showTime, %function
  30              	showTime:
  31              	.LFB0:
  32              		.file 1 "rtc.c"
   1:rtc.c         **** #include "rtc.h"
   2:rtc.c         **** 
   3:rtc.c         **** void showTime(tU8 sec,tU8 min,tU8 hour, tU8 highlight){
  33              		.loc 1 3 0
  34              		.cfi_startproc
  35              		@ Function supports interworking.
  36              		@ args = 0, pretend = 0, frame = 24
  37              		@ frame_needed = 1, uses_anonymous_args = 0
  38 0000 F0B5     		push	{r4, r5, r6, r7, lr}
  39              	.LCFI0:
  40              		.cfi_def_cfa_offset 20
  41              		.cfi_offset 4, -20
  42              		.cfi_offset 5, -16
  43              		.cfi_offset 6, -12
  44              		.cfi_offset 7, -8
  45              		.cfi_offset 14, -4
  46 0002 87B0     		sub	sp, sp, #28
  47              	.LCFI1:
  48              		.cfi_def_cfa_offset 48
  49 0004 00AF     		add	r7, sp, #0
  50              	.LCFI2:
  51              		.cfi_def_cfa_register 7
  52 0006 0500     		movs	r5, r0
  53 0008 0C00     		movs	r4, r1
  54 000a 1000     		movs	r0, r2
ARM GAS  C:\Users\embedded\AppData\Local\Temp\ccGQZ5p8.s 			page 2


  55 000c 1900     		movs	r1, r3
  56 000e FB1D     		adds	r3, r7, #7
  57 0010 2A1C     		adds	r2, r5, #0
  58 0012 1A70     		strb	r2, [r3]
  59 0014 BB1D     		adds	r3, r7, #6
  60 0016 221C     		adds	r2, r4, #0
  61 0018 1A70     		strb	r2, [r3]
  62 001a 7B1D     		adds	r3, r7, #5
  63 001c 021C     		adds	r2, r0, #0
  64 001e 1A70     		strb	r2, [r3]
  65 0020 3B1D     		adds	r3, r7, #4
  66 0022 0A1C     		adds	r2, r1, #0
  67 0024 1A70     		strb	r2, [r3]
   4:rtc.c         **** 
   5:rtc.c         **** 	tU8 tabS[3];
   6:rtc.c         ****     sprintf(tabS, "%d", sec);
  68              		.loc 1 6 0
  69 0026 FB1D     		adds	r3, r7, #7
  70 0028 1A78     		ldrb	r2, [r3]
  71 002a 5349     		ldr	r1, .L8
  72 002c 1024     		movs	r4, #16
  73 002e 3B19     		adds	r3, r7, r4
  74 0030 1800     		movs	r0, r3
  75 0032 FFF7FEFF 		bl	sprintf
   7:rtc.c         ****     tU8 tabMin[3];
   8:rtc.c         ****     sprintf(tabMin, "%d", min);
  76              		.loc 1 8 0
  77 0036 BB1D     		adds	r3, r7, #6
  78 0038 1A78     		ldrb	r2, [r3]
  79 003a 4F49     		ldr	r1, .L8
  80 003c 0C25     		movs	r5, #12
  81 003e 7B19     		adds	r3, r7, r5
  82 0040 1800     		movs	r0, r3
  83 0042 FFF7FEFF 		bl	sprintf
   9:rtc.c         ****     tU8 tabHr[3];
  10:rtc.c         ****     sprintf(tabHr, "%d", hour);
  84              		.loc 1 10 0
  85 0046 7B1D     		adds	r3, r7, #5
  86 0048 1A78     		ldrb	r2, [r3]
  87 004a 4B49     		ldr	r1, .L8
  88 004c 0826     		movs	r6, #8
  89 004e BB19     		adds	r3, r7, r6
  90 0050 1800     		movs	r0, r3
  91 0052 FFF7FEFF 		bl	sprintf
  11:rtc.c         **** 
  12:rtc.c         ****     tabS[2] = '\0';
  92              		.loc 1 12 0
  93 0056 3B19     		adds	r3, r7, r4
  94 0058 0022     		movs	r2, #0
  95 005a 9A70     		strb	r2, [r3, #2]
  13:rtc.c         ****     tabMin[2] = '\0';
  96              		.loc 1 13 0
  97 005c 7B19     		adds	r3, r7, r5
  98 005e 0022     		movs	r2, #0
  99 0060 9A70     		strb	r2, [r3, #2]
  14:rtc.c         ****     tabHr[2] = '\0';
 100              		.loc 1 14 0
ARM GAS  C:\Users\embedded\AppData\Local\Temp\ccGQZ5p8.s 			page 3


 101 0062 BB19     		adds	r3, r7, r6
 102 0064 0022     		movs	r2, #0
 103 0066 9A70     		strb	r2, [r3, #2]
  15:rtc.c         **** 
  16:rtc.c         ****     if (sec < 10) {
 104              		.loc 1 16 0
 105 0068 FB1D     		adds	r3, r7, #7
 106 006a 1B78     		ldrb	r3, [r3]
 107 006c 092B     		cmp	r3, #9
 108 006e 0CD8     		bhi	.L2
 109              	.LBB2:
  17:rtc.c         ****         tU8 temp1 = tabS[0];
 110              		.loc 1 17 0
 111 0070 1720     		movs	r0, #23
 112 0072 3B18     		adds	r3, r7, r0
 113 0074 1021     		movs	r1, #16
 114 0076 7A18     		adds	r2, r7, r1
 115 0078 1278     		ldrb	r2, [r2]
 116 007a 1A70     		strb	r2, [r3]
  18:rtc.c         ****         tabS[1] = temp1;
 117              		.loc 1 18 0
 118 007c 7B18     		adds	r3, r7, r1
 119 007e 3A18     		adds	r2, r7, r0
 120 0080 1278     		ldrb	r2, [r2]
 121 0082 5A70     		strb	r2, [r3, #1]
  19:rtc.c         ****         tabS[0] = '0';
 122              		.loc 1 19 0
 123 0084 7B18     		adds	r3, r7, r1
 124 0086 3022     		movs	r2, #48
 125 0088 1A70     		strb	r2, [r3]
 126              	.L2:
 127              	.LBE2:
  20:rtc.c         ****     }
  21:rtc.c         ****     if (min < 10) {
 128              		.loc 1 21 0
 129 008a BB1D     		adds	r3, r7, #6
 130 008c 1B78     		ldrb	r3, [r3]
 131 008e 092B     		cmp	r3, #9
 132 0090 0CD8     		bhi	.L3
 133              	.LBB3:
  22:rtc.c         ****         tU8 temp2 = tabMin[0];
 134              		.loc 1 22 0
 135 0092 1620     		movs	r0, #22
 136 0094 3B18     		adds	r3, r7, r0
 137 0096 0C21     		movs	r1, #12
 138 0098 7A18     		adds	r2, r7, r1
 139 009a 1278     		ldrb	r2, [r2]
 140 009c 1A70     		strb	r2, [r3]
  23:rtc.c         ****         tabMin[1] = temp2;
 141              		.loc 1 23 0
 142 009e 7B18     		adds	r3, r7, r1
 143 00a0 3A18     		adds	r2, r7, r0
 144 00a2 1278     		ldrb	r2, [r2]
 145 00a4 5A70     		strb	r2, [r3, #1]
  24:rtc.c         ****         tabMin[0] = '0';
 146              		.loc 1 24 0
 147 00a6 7B18     		adds	r3, r7, r1
ARM GAS  C:\Users\embedded\AppData\Local\Temp\ccGQZ5p8.s 			page 4


 148 00a8 3022     		movs	r2, #48
 149 00aa 1A70     		strb	r2, [r3]
 150              	.L3:
 151              	.LBE3:
  25:rtc.c         ****     }
  26:rtc.c         ****     if (hour < 10) {
 152              		.loc 1 26 0
 153 00ac 7B1D     		adds	r3, r7, #5
 154 00ae 1B78     		ldrb	r3, [r3]
 155 00b0 092B     		cmp	r3, #9
 156 00b2 0CD8     		bhi	.L4
 157              	.LBB4:
  27:rtc.c         ****         tU8 temp3 = tabHr[0];
 158              		.loc 1 27 0
 159 00b4 1520     		movs	r0, #21
 160 00b6 3B18     		adds	r3, r7, r0
 161 00b8 0821     		movs	r1, #8
 162 00ba 7A18     		adds	r2, r7, r1
 163 00bc 1278     		ldrb	r2, [r2]
 164 00be 1A70     		strb	r2, [r3]
  28:rtc.c         ****         tabHr[1] = temp3;
 165              		.loc 1 28 0
 166 00c0 7B18     		adds	r3, r7, r1
 167 00c2 3A18     		adds	r2, r7, r0
 168 00c4 1278     		ldrb	r2, [r2]
 169 00c6 5A70     		strb	r2, [r3, #1]
  29:rtc.c         ****         tabHr[0] = '0';
 170              		.loc 1 29 0
 171 00c8 7B18     		adds	r3, r7, r1
 172 00ca 3022     		movs	r2, #48
 173 00cc 1A70     		strb	r2, [r3]
 174              	.L4:
 175              	.LBE4:
  30:rtc.c         ****     }
  31:rtc.c         **** 
  32:rtc.c         ****     if(highlight == 0){
 176              		.loc 1 32 0
 177 00ce 3B1D     		adds	r3, r7, #4
 178 00d0 1B78     		ldrb	r3, [r3]
 179 00d2 002B     		cmp	r3, #0
 180 00d4 03D1     		bne	.L5
 181              	.LBB5:
  33:rtc.c         ****     	lcdColor(0x00, 0xff);
 182              		.loc 1 33 0
 183 00d6 FF21     		movs	r1, #255
 184 00d8 0020     		movs	r0, #0
 185 00da FFF7FEFF 		bl	lcdColor
 186              	.L5:
 187              	.LBE5:
  34:rtc.c         ****     }
  35:rtc.c         ****     lcdGotoxy(10, 70);
 188              		.loc 1 35 0
 189 00de 4621     		movs	r1, #70
 190 00e0 0A20     		movs	r0, #10
 191 00e2 FFF7FEFF 		bl	lcdGotoxy
  36:rtc.c         ****     lcdPuts(tabHr);
 192              		.loc 1 36 0
ARM GAS  C:\Users\embedded\AppData\Local\Temp\ccGQZ5p8.s 			page 5


 193 00e6 0823     		movs	r3, #8
 194 00e8 FB18     		adds	r3, r7, r3
 195 00ea 1800     		movs	r0, r3
 196 00ec FFF7FEFF 		bl	lcdPuts
  37:rtc.c         ****     lcdColor(0xff, 0x00);
 197              		.loc 1 37 0
 198 00f0 0021     		movs	r1, #0
 199 00f2 FF20     		movs	r0, #255
 200 00f4 FFF7FEFF 		bl	lcdColor
  38:rtc.c         **** 
  39:rtc.c         ****     lcdGotoxy(30, 70);
 201              		.loc 1 39 0
 202 00f8 4621     		movs	r1, #70
 203 00fa 1E20     		movs	r0, #30
 204 00fc FFF7FEFF 		bl	lcdGotoxy
  40:rtc.c         ****     lcdPuts(":");
 205              		.loc 1 40 0
 206 0100 1E4B     		ldr	r3, .L8+4
 207 0102 1800     		movs	r0, r3
 208 0104 FFF7FEFF 		bl	lcdPuts
  41:rtc.c         **** 
  42:rtc.c         ****     if(highlight == 1){
 209              		.loc 1 42 0
 210 0108 3B1D     		adds	r3, r7, #4
 211 010a 1B78     		ldrb	r3, [r3]
 212 010c 012B     		cmp	r3, #1
 213 010e 03D1     		bne	.L6
  43:rtc.c         ****         lcdColor(0x00, 0xff);
 214              		.loc 1 43 0
 215 0110 FF21     		movs	r1, #255
 216 0112 0020     		movs	r0, #0
 217 0114 FFF7FEFF 		bl	lcdColor
 218              	.L6:
  44:rtc.c         ****     }
  45:rtc.c         ****     lcdGotoxy(50, 70);
 219              		.loc 1 45 0
 220 0118 4621     		movs	r1, #70
 221 011a 3220     		movs	r0, #50
 222 011c FFF7FEFF 		bl	lcdGotoxy
  46:rtc.c         ****     lcdPuts(tabMin);
 223              		.loc 1 46 0
 224 0120 0C23     		movs	r3, #12
 225 0122 FB18     		adds	r3, r7, r3
 226 0124 1800     		movs	r0, r3
 227 0126 FFF7FEFF 		bl	lcdPuts
  47:rtc.c         ****     lcdColor(0xff, 0x00);
 228              		.loc 1 47 0
 229 012a 0021     		movs	r1, #0
 230 012c FF20     		movs	r0, #255
 231 012e FFF7FEFF 		bl	lcdColor
  48:rtc.c         **** 
  49:rtc.c         **** 
  50:rtc.c         ****     lcdGotoxy(70, 70);
 232              		.loc 1 50 0
 233 0132 4621     		movs	r1, #70
 234 0134 4620     		movs	r0, #70
 235 0136 FFF7FEFF 		bl	lcdGotoxy
ARM GAS  C:\Users\embedded\AppData\Local\Temp\ccGQZ5p8.s 			page 6


  51:rtc.c         ****     lcdPuts(":");
 236              		.loc 1 51 0
 237 013a 104B     		ldr	r3, .L8+4
 238 013c 1800     		movs	r0, r3
 239 013e FFF7FEFF 		bl	lcdPuts
  52:rtc.c         ****     if(highlight == 2){
 240              		.loc 1 52 0
 241 0142 3B1D     		adds	r3, r7, #4
 242 0144 1B78     		ldrb	r3, [r3]
 243 0146 022B     		cmp	r3, #2
 244 0148 03D1     		bne	.L7
  53:rtc.c         ****     	lcdColor(0x00, 0xff);
 245              		.loc 1 53 0
 246 014a FF21     		movs	r1, #255
 247 014c 0020     		movs	r0, #0
 248 014e FFF7FEFF 		bl	lcdColor
 249              	.L7:
  54:rtc.c         ****     }
  55:rtc.c         ****     lcdGotoxy(90, 70);
 250              		.loc 1 55 0
 251 0152 4621     		movs	r1, #70
 252 0154 5A20     		movs	r0, #90
 253 0156 FFF7FEFF 		bl	lcdGotoxy
  56:rtc.c         ****     lcdPuts(tabS);
 254              		.loc 1 56 0
 255 015a 1023     		movs	r3, #16
 256 015c FB18     		adds	r3, r7, r3
 257 015e 1800     		movs	r0, r3
 258 0160 FFF7FEFF 		bl	lcdPuts
  57:rtc.c         ****     lcdColor(0xff, 0x00);
 259              		.loc 1 57 0
 260 0164 0021     		movs	r1, #0
 261 0166 FF20     		movs	r0, #255
 262 0168 FFF7FEFF 		bl	lcdColor
  58:rtc.c         **** }
 263              		.loc 1 58 0
 264 016c C046     		nop
 265 016e BD46     		mov	sp, r7
 266 0170 07B0     		add	sp, sp, #28
 267              		@ sp needed
 268 0172 F0BC     		pop	{r4, r5, r6, r7}
 269 0174 01BC     		pop	{r0}
 270 0176 0047     		bx	r0
 271              	.L9:
 272              		.align	2
 273              	.L8:
 274 0178 00000000 		.word	.LC0
 275 017c 04000000 		.word	.LC2
 276              		.cfi_endproc
 277              	.LFE0:
 278              		.size	showTime, .-showTime
 279              		.align	1
 280              		.global	setAlarm
 281              		.syntax unified
 282              		.code	16
 283              		.thumb_func
 284              		.fpu softvfp
ARM GAS  C:\Users\embedded\AppData\Local\Temp\ccGQZ5p8.s 			page 7


 285              		.type	setAlarm, %function
 286              	setAlarm:
 287              	.LFB1:
  59:rtc.c         **** 
  60:rtc.c         **** 
  61:rtc.c         **** void setAlarm(tU8 sec, tU8 min, tU8 hour){
 288              		.loc 1 61 0
 289              		.cfi_startproc
 290              		@ Function supports interworking.
 291              		@ args = 0, pretend = 0, frame = 8
 292              		@ frame_needed = 1, uses_anonymous_args = 0
 293 0180 90B5     		push	{r4, r7, lr}
 294              	.LCFI3:
 295              		.cfi_def_cfa_offset 12
 296              		.cfi_offset 4, -12
 297              		.cfi_offset 7, -8
 298              		.cfi_offset 14, -4
 299 0182 83B0     		sub	sp, sp, #12
 300              	.LCFI4:
 301              		.cfi_def_cfa_offset 24
 302 0184 00AF     		add	r7, sp, #0
 303              	.LCFI5:
 304              		.cfi_def_cfa_register 7
 305 0186 0400     		movs	r4, r0
 306 0188 0800     		movs	r0, r1
 307 018a 1100     		movs	r1, r2
 308 018c FB1D     		adds	r3, r7, #7
 309 018e 221C     		adds	r2, r4, #0
 310 0190 1A70     		strb	r2, [r3]
 311 0192 BB1D     		adds	r3, r7, #6
 312 0194 021C     		adds	r2, r0, #0
 313 0196 1A70     		strb	r2, [r3]
 314 0198 7B1D     		adds	r3, r7, #5
 315 019a 0A1C     		adds	r2, r1, #0
 316 019c 1A70     		strb	r2, [r3]
  62:rtc.c         **** 	RTC_ALSEC = sec;
 317              		.loc 1 62 0
 318 019e 0A4B     		ldr	r3, .L11
 319 01a0 FA1D     		adds	r2, r7, #7
 320 01a2 1278     		ldrb	r2, [r2]
 321 01a4 1A60     		str	r2, [r3]
  63:rtc.c         **** 	RTC_ALMIN = min;
 322              		.loc 1 63 0
 323 01a6 094B     		ldr	r3, .L11+4
 324 01a8 BA1D     		adds	r2, r7, #6
 325 01aa 1278     		ldrb	r2, [r2]
 326 01ac 1A60     		str	r2, [r3]
  64:rtc.c         **** 	RTC_ALHOUR = hour;
 327              		.loc 1 64 0
 328 01ae 084B     		ldr	r3, .L11+8
 329 01b0 7A1D     		adds	r2, r7, #5
 330 01b2 1278     		ldrb	r2, [r2]
 331 01b4 1A60     		str	r2, [r3]
  65:rtc.c         **** 	RTC_AMR = 0xF8;
 332              		.loc 1 65 0
 333 01b6 074B     		ldr	r3, .L11+12
 334 01b8 F822     		movs	r2, #248
ARM GAS  C:\Users\embedded\AppData\Local\Temp\ccGQZ5p8.s 			page 8


 335 01ba 1A60     		str	r2, [r3]
  66:rtc.c         **** }
 336              		.loc 1 66 0
 337 01bc C046     		nop
 338 01be BD46     		mov	sp, r7
 339 01c0 03B0     		add	sp, sp, #12
 340              		@ sp needed
 341 01c2 90BC     		pop	{r4, r7}
 342 01c4 01BC     		pop	{r0}
 343 01c6 0047     		bx	r0
 344              	.L12:
 345              		.align	2
 346              	.L11:
 347 01c8 604002E0 		.word	-536723360
 348 01cc 644002E0 		.word	-536723356
 349 01d0 684002E0 		.word	-536723352
 350 01d4 104002E0 		.word	-536723440
 351              		.cfi_endproc
 352              	.LFE1:
 353              		.size	setAlarm, .-setAlarm
 354              	.Letext0:
 355              		.file 2 "general.h"
 356              		.file 3 "<built-in>"