ARM GAS  C:\Users\embedded\AppData\Local\Temp\cc83eflT.s 			page 1


   1              		.cpu arm7tdmi
   2              		.eabi_attribute 20, 1
   3              		.eabi_attribute 21, 1
   4              		.eabi_attribute 23, 3
   5              		.eabi_attribute 24, 1
   6              		.eabi_attribute 25, 1
   7              		.eabi_attribute 26, 1
   8              		.eabi_attribute 30, 6
   9              		.eabi_attribute 34, 0
  10              		.eabi_attribute 18, 4
  11              		.file	"tsl2561.c"
  12              		.text
  13              	.Ltext0:
  14              		.cfi_sections	.debug_frame
  15              		.global	__aeabi_ui2f
  16              		.global	__aeabi_fdiv
  17              		.global	__aeabi_fcmpgt
  18              		.global	__aeabi_f2d
  19              		.global	__aeabi_dcmple
  20              		.global	__aeabi_i2d
  21              		.global	__aeabi_dmul
  22              		.global	__aeabi_uidiv
  23              		.global	__aeabi_dsub
  24              		.global	__aeabi_d2uiz
  25              		.global	__aeabi_dcmpgt
  26              		.align	1
  27              		.global	calculateBrightness
  28              		.syntax unified
  29              		.code	16
  30              		.thumb_func
  31              		.fpu softvfp
  32              		.type	calculateBrightness, %function
  33              	calculateBrightness:
  34              	.LFB0:
  35              		.file 1 "tsl2561.c"
   1:tsl2561.c     **** /*
   2:tsl2561.c     ****     Plik z kodem źródłowym funkcji, przeznaczonych do obsługi
   3:tsl2561.c     ****     czujnika oświetlenia TLS2561.
   4:tsl2561.c     **** */
   5:tsl2561.c     **** 
   6:tsl2561.c     **** #include "tsl2561.h"
   7:tsl2561.c     **** 
   8:tsl2561.c     **** tU16 calculateBrightness(tU16 channel0, tU16 channel1)
   9:tsl2561.c     **** {
  36              		.loc 1 9 0
  37              		.cfi_startproc
  38              		@ Function supports interworking.
  39              		@ args = 0, pretend = 0, frame = 24
  40              		@ frame_needed = 1, uses_anonymous_args = 0
  41 0000 F0B5     		push	{r4, r5, r6, r7, lr}
  42              	.LCFI0:
  43              		.cfi_def_cfa_offset 20
  44              		.cfi_offset 4, -20
  45              		.cfi_offset 5, -16
  46              		.cfi_offset 6, -12
  47              		.cfi_offset 7, -8
  48              		.cfi_offset 14, -4
ARM GAS  C:\Users\embedded\AppData\Local\Temp\cc83eflT.s 			page 2


  49 0002 87B0     		sub	sp, sp, #28
  50              	.LCFI1:
  51              		.cfi_def_cfa_offset 48
  52 0004 00AF     		add	r7, sp, #0
  53              	.LCFI2:
  54              		.cfi_def_cfa_register 7
  55 0006 0200     		movs	r2, r0
  56 0008 0E25     		movs	r5, #14
  57 000a 7B19     		adds	r3, r7, r5
  58 000c 1A80     		strh	r2, [r3]
  59 000e 0C20     		movs	r0, #12
  60 0010 3B18     		adds	r3, r7, r0
  61 0012 0A1C     		adds	r2, r1, #0
  62 0014 1A80     		strh	r2, [r3]
  10:tsl2561.c     ****     // Conversion of result to result in lux, according to TLS2561 manual, page: 23
  11:tsl2561.c     ****     tU16 finalResult;
  12:tsl2561.c     ****     // Below we are using float value, since in MISRA set of rules, it is forbidden to cast
  13:tsl2561.c     ****     // values to floats like that.
  14:tsl2561.c     ****     float divisionResult = ((float)channel1 / (float)channel0);
  63              		.loc 1 14 0
  64 0016 3B18     		adds	r3, r7, r0
  65 0018 1B88     		ldrh	r3, [r3]
  66 001a 1800     		movs	r0, r3
  67 001c FFF7FEFF 		bl	__aeabi_ui2f
  68              	.LVL0:
  69 0020 041C     		adds	r4, r0, #0
  70 0022 7B19     		adds	r3, r7, r5
  71 0024 1B88     		ldrh	r3, [r3]
  72 0026 1800     		movs	r0, r3
  73 0028 FFF7FEFF 		bl	__aeabi_ui2f
  74              	.LVL1:
  75 002c 031C     		adds	r3, r0, #0
  76 002e 191C     		adds	r1, r3, #0
  77 0030 201C     		adds	r0, r4, #0
  78 0032 FFF7FEFF 		bl	__aeabi_fdiv
  79              	.LVL2:
  80 0036 031C     		adds	r3, r0, #0
  81 0038 3B61     		str	r3, [r7, #16]
  15:tsl2561.c     ****     if ((divisionResult > 0.0) && (divisionResult <= 0.52))
  82              		.loc 1 15 0
  83 003a 0021     		movs	r1, #0
  84 003c 3869     		ldr	r0, [r7, #16]
  85 003e FFF7FEFF 		bl	__aeabi_fcmpgt
  86              	.LVL3:
  87 0042 031E     		subs	r3, r0, #0
  88 0044 59D0     		beq	.L2
  89              		.loc 1 15 0 is_stmt 0 discriminator 1
  90 0046 3869     		ldr	r0, [r7, #16]
  91 0048 FFF7FEFF 		bl	__aeabi_f2d
  92              	.LVL4:
  93 004c 934A     		ldr	r2, .L24
  94 004e 944B     		ldr	r3, .L24+4
  95 0050 FFF7FEFF 		bl	__aeabi_dcmple
  96              	.LVL5:
  97 0054 031E     		subs	r3, r0, #0
  98 0056 50D0     		beq	.L2
  16:tsl2561.c     ****     {
ARM GAS  C:\Users\embedded\AppData\Local\Temp\cc83eflT.s 			page 3


  17:tsl2561.c     ****         finalResult = (0.0315 * channel0) - ((0.0593 * channel0) * pow((channel1 / channel0), 1.4))
  99              		.loc 1 17 0 is_stmt 1
 100 0058 0E23     		movs	r3, #14
 101 005a FB18     		adds	r3, r7, r3
 102 005c 1B88     		ldrh	r3, [r3]
 103 005e 1800     		movs	r0, r3
 104 0060 FFF7FEFF 		bl	__aeabi_i2d
 105              	.LVL6:
 106 0064 8F4A     		ldr	r2, .L24+8
 107 0066 904B     		ldr	r3, .L24+12
 108 0068 FFF7FEFF 		bl	__aeabi_dmul
 109              	.LVL7:
 110 006c 0300     		movs	r3, r0
 111 006e 0C00     		movs	r4, r1
 112 0070 1D00     		movs	r5, r3
 113 0072 2600     		movs	r6, r4
 114 0074 0E23     		movs	r3, #14
 115 0076 FB18     		adds	r3, r7, r3
 116 0078 1B88     		ldrh	r3, [r3]
 117 007a 1800     		movs	r0, r3
 118 007c FFF7FEFF 		bl	__aeabi_i2d
 119              	.LVL8:
 120 0080 8A4A     		ldr	r2, .L24+16
 121 0082 8B4B     		ldr	r3, .L24+20
 122 0084 FFF7FEFF 		bl	__aeabi_dmul
 123              	.LVL9:
 124 0088 0300     		movs	r3, r0
 125 008a 0C00     		movs	r4, r1
 126 008c 3B60     		str	r3, [r7]
 127 008e 7C60     		str	r4, [r7, #4]
 128 0090 0C22     		movs	r2, #12
 129 0092 BA18     		adds	r2, r7, r2
 130 0094 0E23     		movs	r3, #14
 131 0096 FB18     		adds	r3, r7, r3
 132 0098 1288     		ldrh	r2, [r2]
 133 009a 1B88     		ldrh	r3, [r3]
 134 009c 1900     		movs	r1, r3
 135 009e 1000     		movs	r0, r2
 136 00a0 FFF7FEFF 		bl	__aeabi_uidiv
 137              	.LVL10:
 138 00a4 0300     		movs	r3, r0
 139 00a6 1B04     		lsls	r3, r3, #16
 140 00a8 1B0C     		lsrs	r3, r3, #16
 141 00aa 1800     		movs	r0, r3
 142 00ac FFF7FEFF 		bl	__aeabi_i2d
 143              	.LVL11:
 144 00b0 804B     		ldr	r3, .L24+24
 145 00b2 814C     		ldr	r4, .L24+28
 146 00b4 1A00     		movs	r2, r3
 147 00b6 2300     		movs	r3, r4
 148 00b8 FFF7FEFF 		bl	pow
 149 00bc 0300     		movs	r3, r0
 150 00be 0C00     		movs	r4, r1
 151 00c0 1A00     		movs	r2, r3
 152 00c2 2300     		movs	r3, r4
 153 00c4 3868     		ldr	r0, [r7]
 154 00c6 7968     		ldr	r1, [r7, #4]
ARM GAS  C:\Users\embedded\AppData\Local\Temp\cc83eflT.s 			page 4


 155 00c8 FFF7FEFF 		bl	__aeabi_dmul
 156              	.LVL12:
 157 00cc 0300     		movs	r3, r0
 158 00ce 0C00     		movs	r4, r1
 159 00d0 1A00     		movs	r2, r3
 160 00d2 2300     		movs	r3, r4
 161 00d4 2800     		movs	r0, r5
 162 00d6 3100     		movs	r1, r6
 163 00d8 FFF7FEFF 		bl	__aeabi_dsub
 164              	.LVL13:
 165 00dc 0300     		movs	r3, r0
 166 00de 0C00     		movs	r4, r1
 167 00e0 1A00     		movs	r2, r3
 168 00e2 2300     		movs	r3, r4
 169 00e4 0E21     		movs	r1, #14
 170 00e6 0820     		movs	r0, #8
 171 00e8 3818     		adds	r0, r7, r0
 172 00ea 4418     		adds	r4, r0, r1
 173 00ec 1000     		movs	r0, r2
 174 00ee 1900     		movs	r1, r3
 175 00f0 FFF7FEFF 		bl	__aeabi_d2uiz
 176              	.LVL14:
 177 00f4 0300     		movs	r3, r0
 178 00f6 2380     		strh	r3, [r4]
 179 00f8 C3E0     		b	.L5
 180              	.L2:
  18:tsl2561.c     ****     }
  19:tsl2561.c     ****     else if ((divisionResult > 0.52) && (divisionResult <= 0.65))
 181              		.loc 1 19 0
 182 00fa 3869     		ldr	r0, [r7, #16]
 183 00fc FFF7FEFF 		bl	__aeabi_f2d
 184              	.LVL15:
 185 0100 664A     		ldr	r2, .L24
 186 0102 674B     		ldr	r3, .L24+4
 187 0104 FFF7FEFF 		bl	__aeabi_dcmpgt
 188              	.LVL16:
 189 0108 031E     		subs	r3, r0, #0
 190 010a 35D0     		beq	.L6
 191              		.loc 1 19 0 is_stmt 0 discriminator 1
 192 010c 3869     		ldr	r0, [r7, #16]
 193 010e FFF7FEFF 		bl	__aeabi_f2d
 194              	.LVL17:
 195 0112 6A4A     		ldr	r2, .L24+32
 196 0114 6A4B     		ldr	r3, .L24+36
 197 0116 FFF7FEFF 		bl	__aeabi_dcmple
 198              	.LVL18:
 199 011a 031E     		subs	r3, r0, #0
 200 011c 2CD0     		beq	.L6
  20:tsl2561.c     ****     {
  21:tsl2561.c     ****         finalResult = (0.0229 * channel0) - (0.0291 * channel1);
 201              		.loc 1 21 0 is_stmt 1
 202 011e 0E23     		movs	r3, #14
 203 0120 FB18     		adds	r3, r7, r3
 204 0122 1B88     		ldrh	r3, [r3]
 205 0124 1800     		movs	r0, r3
 206 0126 FFF7FEFF 		bl	__aeabi_i2d
 207              	.LVL19:
ARM GAS  C:\Users\embedded\AppData\Local\Temp\cc83eflT.s 			page 5


 208 012a 664A     		ldr	r2, .L24+40
 209 012c 664B     		ldr	r3, .L24+44
 210 012e FFF7FEFF 		bl	__aeabi_dmul
 211              	.LVL20:
 212 0132 0300     		movs	r3, r0
 213 0134 0C00     		movs	r4, r1
 214 0136 2500     		movs	r5, r4
 215 0138 1C00     		movs	r4, r3
 216 013a 0C23     		movs	r3, #12
 217 013c FB18     		adds	r3, r7, r3
 218 013e 1B88     		ldrh	r3, [r3]
 219 0140 1800     		movs	r0, r3
 220 0142 FFF7FEFF 		bl	__aeabi_i2d
 221              	.LVL21:
 222 0146 614A     		ldr	r2, .L24+48
 223 0148 614B     		ldr	r3, .L24+52
 224 014a FFF7FEFF 		bl	__aeabi_dmul
 225              	.LVL22:
 226 014e 0200     		movs	r2, r0
 227 0150 0B00     		movs	r3, r1
 228 0152 2000     		movs	r0, r4
 229 0154 2900     		movs	r1, r5
 230 0156 FFF7FEFF 		bl	__aeabi_dsub
 231              	.LVL23:
 232 015a 0300     		movs	r3, r0
 233 015c 0C00     		movs	r4, r1
 234 015e 1A00     		movs	r2, r3
 235 0160 2300     		movs	r3, r4
 236 0162 0E21     		movs	r1, #14
 237 0164 0820     		movs	r0, #8
 238 0166 3818     		adds	r0, r7, r0
 239 0168 4418     		adds	r4, r0, r1
 240 016a 1000     		movs	r0, r2
 241 016c 1900     		movs	r1, r3
 242 016e FFF7FEFF 		bl	__aeabi_d2uiz
 243              	.LVL24:
 244 0172 0300     		movs	r3, r0
 245 0174 2380     		strh	r3, [r4]
 246 0176 84E0     		b	.L5
 247              	.L6:
  22:tsl2561.c     ****     }
  23:tsl2561.c     ****     else if ((divisionResult > 0.65) && (divisionResult <= 0.80))
 248              		.loc 1 23 0
 249 0178 3869     		ldr	r0, [r7, #16]
 250 017a FFF7FEFF 		bl	__aeabi_f2d
 251              	.LVL25:
 252 017e 4F4A     		ldr	r2, .L24+32
 253 0180 4F4B     		ldr	r3, .L24+36
 254 0182 FFF7FEFF 		bl	__aeabi_dcmpgt
 255              	.LVL26:
 256 0186 031E     		subs	r3, r0, #0
 257 0188 35D0     		beq	.L9
 258              		.loc 1 23 0 is_stmt 0 discriminator 1
 259 018a 3869     		ldr	r0, [r7, #16]
 260 018c FFF7FEFF 		bl	__aeabi_f2d
 261              	.LVL27:
 262 0190 504A     		ldr	r2, .L24+56
ARM GAS  C:\Users\embedded\AppData\Local\Temp\cc83eflT.s 			page 6


 263 0192 514B     		ldr	r3, .L24+60
 264 0194 FFF7FEFF 		bl	__aeabi_dcmple
 265              	.LVL28:
 266 0198 031E     		subs	r3, r0, #0
 267 019a 2CD0     		beq	.L9
  24:tsl2561.c     ****     {
  25:tsl2561.c     ****         finalResult = (0.0157 * channel0) - (0.0180 * channel1);
 268              		.loc 1 25 0 is_stmt 1
 269 019c 0E23     		movs	r3, #14
 270 019e FB18     		adds	r3, r7, r3
 271 01a0 1B88     		ldrh	r3, [r3]
 272 01a2 1800     		movs	r0, r3
 273 01a4 FFF7FEFF 		bl	__aeabi_i2d
 274              	.LVL29:
 275 01a8 4C4A     		ldr	r2, .L24+64
 276 01aa 4D4B     		ldr	r3, .L24+68
 277 01ac FFF7FEFF 		bl	__aeabi_dmul
 278              	.LVL30:
 279 01b0 0300     		movs	r3, r0
 280 01b2 0C00     		movs	r4, r1
 281 01b4 2500     		movs	r5, r4
 282 01b6 1C00     		movs	r4, r3
 283 01b8 0C23     		movs	r3, #12
 284 01ba FB18     		adds	r3, r7, r3
 285 01bc 1B88     		ldrh	r3, [r3]
 286 01be 1800     		movs	r0, r3
 287 01c0 FFF7FEFF 		bl	__aeabi_i2d
 288              	.LVL31:
 289 01c4 474A     		ldr	r2, .L24+72
 290 01c6 484B     		ldr	r3, .L24+76
 291 01c8 FFF7FEFF 		bl	__aeabi_dmul
 292              	.LVL32:
 293 01cc 0200     		movs	r2, r0
 294 01ce 0B00     		movs	r3, r1
 295 01d0 2000     		movs	r0, r4
 296 01d2 2900     		movs	r1, r5
 297 01d4 FFF7FEFF 		bl	__aeabi_dsub
 298              	.LVL33:
 299 01d8 0300     		movs	r3, r0
 300 01da 0C00     		movs	r4, r1
 301 01dc 1A00     		movs	r2, r3
 302 01de 2300     		movs	r3, r4
 303 01e0 0E21     		movs	r1, #14
 304 01e2 0820     		movs	r0, #8
 305 01e4 3818     		adds	r0, r7, r0
 306 01e6 4418     		adds	r4, r0, r1
 307 01e8 1000     		movs	r0, r2
 308 01ea 1900     		movs	r1, r3
 309 01ec FFF7FEFF 		bl	__aeabi_d2uiz
 310              	.LVL34:
 311 01f0 0300     		movs	r3, r0
 312 01f2 2380     		strh	r3, [r4]
 313 01f4 45E0     		b	.L5
 314              	.L9:
  26:tsl2561.c     ****     }
  27:tsl2561.c     ****     else if ((divisionResult > 0.80) && (divisionResult <= 1.3))
 315              		.loc 1 27 0
ARM GAS  C:\Users\embedded\AppData\Local\Temp\cc83eflT.s 			page 7


 316 01f6 3869     		ldr	r0, [r7, #16]
 317 01f8 FFF7FEFF 		bl	__aeabi_f2d
 318              	.LVL35:
 319 01fc 354A     		ldr	r2, .L24+56
 320 01fe 364B     		ldr	r3, .L24+60
 321 0200 FFF7FEFF 		bl	__aeabi_dcmpgt
 322              	.LVL36:
 323 0204 031E     		subs	r3, r0, #0
 324 0206 35D0     		beq	.L12
 325              		.loc 1 27 0 is_stmt 0 discriminator 1
 326 0208 3869     		ldr	r0, [r7, #16]
 327 020a FFF7FEFF 		bl	__aeabi_f2d
 328              	.LVL37:
 329 020e 2B4A     		ldr	r2, .L24+32
 330 0210 364B     		ldr	r3, .L24+80
 331 0212 FFF7FEFF 		bl	__aeabi_dcmple
 332              	.LVL38:
 333 0216 031E     		subs	r3, r0, #0
 334 0218 2CD0     		beq	.L12
  28:tsl2561.c     ****     {
  29:tsl2561.c     ****         finalResult = (0.00388 * channel0) - (0.00260 * channel1);
 335              		.loc 1 29 0 is_stmt 1
 336 021a 0E23     		movs	r3, #14
 337 021c FB18     		adds	r3, r7, r3
 338 021e 1B88     		ldrh	r3, [r3]
 339 0220 1800     		movs	r0, r3
 340 0222 FFF7FEFF 		bl	__aeabi_i2d
 341              	.LVL39:
 342 0226 324A     		ldr	r2, .L24+84
 343 0228 324B     		ldr	r3, .L24+88
 344 022a FFF7FEFF 		bl	__aeabi_dmul
 345              	.LVL40:
 346 022e 0300     		movs	r3, r0
 347 0230 0C00     		movs	r4, r1
 348 0232 2500     		movs	r5, r4
 349 0234 1C00     		movs	r4, r3
 350 0236 0C23     		movs	r3, #12
 351 0238 FB18     		adds	r3, r7, r3
 352 023a 1B88     		ldrh	r3, [r3]
 353 023c 1800     		movs	r0, r3
 354 023e FFF7FEFF 		bl	__aeabi_i2d
 355              	.LVL41:
 356 0242 2D4A     		ldr	r2, .L24+92
 357 0244 2D4B     		ldr	r3, .L24+96
 358 0246 FFF7FEFF 		bl	__aeabi_dmul
 359              	.LVL42:
 360 024a 0200     		movs	r2, r0
 361 024c 0B00     		movs	r3, r1
 362 024e 2000     		movs	r0, r4
 363 0250 2900     		movs	r1, r5
 364 0252 FFF7FEFF 		bl	__aeabi_dsub
 365              	.LVL43:
 366 0256 0300     		movs	r3, r0
 367 0258 0C00     		movs	r4, r1
 368 025a 1A00     		movs	r2, r3
 369 025c 2300     		movs	r3, r4
 370 025e 0E21     		movs	r1, #14
ARM GAS  C:\Users\embedded\AppData\Local\Temp\cc83eflT.s 			page 8


 371 0260 0820     		movs	r0, #8
 372 0262 3818     		adds	r0, r7, r0
 373 0264 4418     		adds	r4, r0, r1
 374 0266 1000     		movs	r0, r2
 375 0268 1900     		movs	r1, r3
 376 026a FFF7FEFF 		bl	__aeabi_d2uiz
 377              	.LVL44:
 378 026e 0300     		movs	r3, r0
 379 0270 2380     		strh	r3, [r4]
 380 0272 06E0     		b	.L5
 381              	.L12:
  30:tsl2561.c     ****     } else 
  31:tsl2561.c     ****     {
  32:tsl2561.c     ****         finalResult = 0;
 382              		.loc 1 32 0
 383 0274 0E23     		movs	r3, #14
 384 0276 0822     		movs	r2, #8
 385 0278 9446     		mov	ip, r2
 386 027a BC44     		add	ip, ip, r7
 387 027c 6344     		add	r3, r3, ip
 388 027e 0022     		movs	r2, #0
 389 0280 1A80     		strh	r2, [r3]
 390              	.L5:
  33:tsl2561.c     ****     }
  34:tsl2561.c     ****     return finalResult;
 391              		.loc 1 34 0
 392 0282 0E23     		movs	r3, #14
 393 0284 0822     		movs	r2, #8
 394 0286 9446     		mov	ip, r2
 395 0288 BC44     		add	ip, ip, r7
 396 028a 6344     		add	r3, r3, ip
 397 028c 1B88     		ldrh	r3, [r3]
  35:tsl2561.c     **** }
 398              		.loc 1 35 0
 399 028e 1800     		movs	r0, r3
 400 0290 BD46     		mov	sp, r7
 401 0292 07B0     		add	sp, sp, #28
 402              		@ sp needed
 403 0294 F0BC     		pop	{r4, r5, r6, r7}
 404 0296 02BC     		pop	{r1}
 405 0298 0847     		bx	r1
 406              	.L25:
 407 029a C046     		.align	2
 408              	.L24:
 409 029c A4703D0A 		.word	171798692
 410 02a0 D7A3E03F 		.word	1071686615
 411 02a4 54E3A59B 		.word	-1683627180
 412 02a8 C420A03F 		.word	1067458756
 413 02ac CD3B4ED1 		.word	-783402035
 414 02b0 915CAE3F 		.word	1068391569
 415 02b4 66666666 		.word	1717986918
 416 02b8 6666F63F 		.word	1073112678
 417 02bc CDCCCCCC 		.word	-858993459
 418 02c0 CCCCE43F 		.word	1071959244
 419 02c4 174850FC 		.word	-61847529
 420 02c8 1873973F 		.word	1066890008
 421 02cc 5C2041F1 		.word	-247390116
ARM GAS  C:\Users\embedded\AppData\Local\Temp\cc83eflT.s 			page 9


 422 02d0 63CC9D3F 		.word	1067306083
 423 02d4 9A999999 		.word	-1717986918
 424 02d8 9999E93F 		.word	1072273817
 425 02dc 3255302A 		.word	707810610
 426 02e0 A913903F 		.word	1066406825
 427 02e4 3BDF4F8D 		.word	-1924145349
 428 02e8 976E923F 		.word	1066561175
 429 02ec CCCCF43F 		.word	1073007820
 430 02f0 0DAB7823 		.word	595110669
 431 02f4 F3C86F3F 		.word	1064290547
 432 02f8 94F6065F 		.word	1594291860
 433 02fc 984C653F 		.word	1063603352
 434              		.cfi_endproc
 435              	.LFE0:
 436              		.size	calculateBrightness, .-calculateBrightness
 437              		.align	1
 438              		.global	measureBrightness
 439              		.syntax unified
 440              		.code	16
 441              		.thumb_func
 442              		.fpu softvfp
 443              		.type	measureBrightness, %function
 444              	measureBrightness:
 445              	.LFB1:
  36:tsl2561.c     **** 
  37:tsl2561.c     **** tU16 measureBrightness(void)
  38:tsl2561.c     **** {
 446              		.loc 1 38 0
 447              		.cfi_startproc
 448              		@ Function supports interworking.
 449              		@ args = 0, pretend = 0, frame = 16
 450              		@ frame_needed = 1, uses_anonymous_args = 0
 451 0300 F0B5     		push	{r4, r5, r6, r7, lr}
 452              	.LCFI3:
 453              		.cfi_def_cfa_offset 20
 454              		.cfi_offset 4, -20
 455              		.cfi_offset 5, -16
 456              		.cfi_offset 6, -12
 457              		.cfi_offset 7, -8
 458              		.cfi_offset 14, -4
 459 0302 85B0     		sub	sp, sp, #20
 460              	.LCFI4:
 461              		.cfi_def_cfa_offset 40
 462 0304 00AF     		add	r7, sp, #0
 463              	.LCFI5:
 464              		.cfi_def_cfa_register 7
  39:tsl2561.c     ****     tU8 command[2] = {0};
 465              		.loc 1 39 0
 466 0306 3B1D     		adds	r3, r7, #4
 467 0308 0022     		movs	r2, #0
 468 030a 1A80     		strh	r2, [r3]
  40:tsl2561.c     ****     tU8 readValue[1] = {0};
 469              		.loc 1 40 0
 470 030c 3B00     		movs	r3, r7
 471 030e 0022     		movs	r2, #0
 472 0310 1A70     		strb	r2, [r3]
  41:tsl2561.c     ****     // tS8 returnValue = 0;
ARM GAS  C:\Users\embedded\AppData\Local\Temp\cc83eflT.s 			page 10


  42:tsl2561.c     **** 
  43:tsl2561.c     ****     // TSL2561 device address ; Chosen address: VDD = 0b1001001 = 0x49
  44:tsl2561.c     ****     tU8 tsl2561Address = 0x49;
 473              		.loc 1 44 0
 474 0312 0F20     		movs	r0, #15
 475 0314 3B18     		adds	r3, r7, r0
 476 0316 4922     		movs	r2, #73
 477 0318 1A70     		strb	r2, [r3]
  45:tsl2561.c     ****     // Write address for TSL2561
  46:tsl2561.c     ****     tU8 tslReadAddress = ((tU8)(tsl2561Address << 1) | (tU8)1);
 478              		.loc 1 46 0
 479 031a 3B18     		adds	r3, r7, r0
 480 031c 1B78     		ldrb	r3, [r3]
 481 031e DB18     		adds	r3, r3, r3
 482 0320 1B06     		lsls	r3, r3, #24
 483 0322 1A0E     		lsrs	r2, r3, #24
 484 0324 0E23     		movs	r3, #14
 485 0326 FB18     		adds	r3, r7, r3
 486 0328 0121     		movs	r1, #1
 487 032a 0A43     		orrs	r2, r1
 488 032c 1A70     		strb	r2, [r3]
  47:tsl2561.c     ****     // Read address for TSL2561
  48:tsl2561.c     ****     tU8 tslWriteAddress = (tU8)(tsl2561Address << 1);
 489              		.loc 1 48 0
 490 032e 0D24     		movs	r4, #13
 491 0330 3A19     		adds	r2, r7, r4
 492 0332 3B18     		adds	r3, r7, r0
 493 0334 1B78     		ldrb	r3, [r3]
 494 0336 DB18     		adds	r3, r3, r3
 495 0338 1370     		strb	r3, [r2]
  49:tsl2561.c     ****     tU16 channel0 = 0;
 496              		.loc 1 49 0
 497 033a 0A25     		movs	r5, #10
 498 033c 7B19     		adds	r3, r7, r5
 499 033e 0022     		movs	r2, #0
 500 0340 1A80     		strh	r2, [r3]
  50:tsl2561.c     ****     tU16 channel1 = 0;
 501              		.loc 1 50 0
 502 0342 0826     		movs	r6, #8
 503 0344 BB19     		adds	r3, r7, r6
 504 0346 0022     		movs	r2, #0
 505 0348 1A80     		strh	r2, [r3]
  51:tsl2561.c     **** 
  52:tsl2561.c     ****     // Sending a command to the device to power it up.
  53:tsl2561.c     ****     command[0] = (((tU8)0x09 << 4) | (tU8)0x00);  // Change target register to control register
 506              		.loc 1 53 0
 507 034a 3B1D     		adds	r3, r7, #4
 508 034c 9022     		movs	r2, #144
 509 034e 1A70     		strb	r2, [r3]
  54:tsl2561.c     ****     command[1] = ((tU8)0x03);  // Write 0x03 (so power up) the device
 510              		.loc 1 54 0
 511 0350 3B1D     		adds	r3, r7, #4
 512 0352 0322     		movs	r2, #3
 513 0354 5A70     		strb	r2, [r3, #1]
  55:tsl2561.c     ****     i2cWrite(tslWriteAddress, command, 2);
 514              		.loc 1 55 0
 515 0356 3B19     		adds	r3, r7, r4
ARM GAS  C:\Users\embedded\AppData\Local\Temp\cc83eflT.s 			page 11


 516 0358 1B78     		ldrb	r3, [r3]
 517 035a 391D     		adds	r1, r7, #4
 518 035c 0222     		movs	r2, #2
 519 035e 1800     		movs	r0, r3
 520 0360 FFF7FEFF 		bl	i2cWrite
  56:tsl2561.c     **** 
  57:tsl2561.c     ****     mdelay(403); // Waiting for 403 ms, since it takes 402 ms for both channels to integrate
 521              		.loc 1 57 0
 522 0364 9423     		movs	r3, #148
 523 0366 FF33     		adds	r3, r3, #255
 524 0368 1800     		movs	r0, r3
 525 036a FFF7FEFF 		bl	mdelay
  58:tsl2561.c     **** 
  59:tsl2561.c     ****     // Command for reading low byte of 16 bit channel 0
  60:tsl2561.c     ****     command[0] = (((tU8)0x09 << 4) | (tU8)0x0C);
 526              		.loc 1 60 0
 527 036e 3B1D     		adds	r3, r7, #4
 528 0370 9C22     		movs	r2, #156
 529 0372 1A70     		strb	r2, [r3]
  61:tsl2561.c     ****     command[1] = (command[0] & (tU8)0);
 530              		.loc 1 61 0
 531 0374 3B1D     		adds	r3, r7, #4
 532 0376 0022     		movs	r2, #0
 533 0378 5A70     		strb	r2, [r3, #1]
  62:tsl2561.c     ****     i2cWrite(tslWriteAddress, command, 1);
 534              		.loc 1 62 0
 535 037a 3B19     		adds	r3, r7, r4
 536 037c 1B78     		ldrb	r3, [r3]
 537 037e 391D     		adds	r1, r7, #4
 538 0380 0122     		movs	r2, #1
 539 0382 1800     		movs	r0, r3
 540 0384 FFF7FEFF 		bl	i2cWrite
  63:tsl2561.c     ****     i2cRead(tslReadAddress, readValue, 1);
 541              		.loc 1 63 0
 542 0388 0E23     		movs	r3, #14
 543 038a FB18     		adds	r3, r7, r3
 544 038c 1B78     		ldrb	r3, [r3]
 545 038e 3900     		movs	r1, r7
 546 0390 0122     		movs	r2, #1
 547 0392 1800     		movs	r0, r3
 548 0394 FFF7FEFF 		bl	i2cRead
  64:tsl2561.c     ****     channel0 = (channel0 | (tU16)readValue[0]);
 549              		.loc 1 64 0
 550 0398 3B00     		movs	r3, r7
 551 039a 1B78     		ldrb	r3, [r3]
 552 039c 1B04     		lsls	r3, r3, #16
 553 039e 190C     		lsrs	r1, r3, #16
 554 03a0 7B19     		adds	r3, r7, r5
 555 03a2 7A19     		adds	r2, r7, r5
 556 03a4 1288     		ldrh	r2, [r2]
 557 03a6 0A43     		orrs	r2, r1
 558 03a8 1A80     		strh	r2, [r3]
  65:tsl2561.c     **** 
  66:tsl2561.c     ****     // Command for reading high byte of 16 bit channel 0
  67:tsl2561.c     ****     command[0] = (((tU8)0x09 << 4) | (tU8)0x0D);
 559              		.loc 1 67 0
 560 03aa 3B1D     		adds	r3, r7, #4
ARM GAS  C:\Users\embedded\AppData\Local\Temp\cc83eflT.s 			page 12


 561 03ac 9D22     		movs	r2, #157
 562 03ae 1A70     		strb	r2, [r3]
  68:tsl2561.c     ****     i2cWrite(tslWriteAddress, command, 1);
 563              		.loc 1 68 0
 564 03b0 3B19     		adds	r3, r7, r4
 565 03b2 1B78     		ldrb	r3, [r3]
 566 03b4 391D     		adds	r1, r7, #4
 567 03b6 0122     		movs	r2, #1
 568 03b8 1800     		movs	r0, r3
 569 03ba FFF7FEFF 		bl	i2cWrite
  69:tsl2561.c     ****     i2cRead(tslReadAddress, readValue, 1);
 570              		.loc 1 69 0
 571 03be 0E23     		movs	r3, #14
 572 03c0 FB18     		adds	r3, r7, r3
 573 03c2 1B78     		ldrb	r3, [r3]
 574 03c4 3900     		movs	r1, r7
 575 03c6 0122     		movs	r2, #1
 576 03c8 1800     		movs	r0, r3
 577 03ca FFF7FEFF 		bl	i2cRead
  70:tsl2561.c     ****     channel0 = (channel0 | ((tU16)readValue[0] << 8));
 578              		.loc 1 70 0
 579 03ce 3B00     		movs	r3, r7
 580 03d0 1B78     		ldrb	r3, [r3]
 581 03d2 1B02     		lsls	r3, r3, #8
 582 03d4 1B04     		lsls	r3, r3, #16
 583 03d6 1B14     		asrs	r3, r3, #16
 584 03d8 7A19     		adds	r2, r7, r5
 585 03da 0021     		movs	r1, #0
 586 03dc 525E     		ldrsh	r2, [r2, r1]
 587 03de 1343     		orrs	r3, r2
 588 03e0 1B04     		lsls	r3, r3, #16
 589 03e2 1B14     		asrs	r3, r3, #16
 590 03e4 7A19     		adds	r2, r7, r5
 591 03e6 1380     		strh	r3, [r2]
  71:tsl2561.c     **** 
  72:tsl2561.c     ****     // Command for reading low byte of 16 bit channel 1
  73:tsl2561.c     ****     command[0] = (((tU8)0x09 << 4) | (tU8)0x0E);
 592              		.loc 1 73 0
 593 03e8 3B1D     		adds	r3, r7, #4
 594 03ea 9E22     		movs	r2, #158
 595 03ec 1A70     		strb	r2, [r3]
  74:tsl2561.c     ****     i2cWrite(tslWriteAddress, command, 1);
 596              		.loc 1 74 0
 597 03ee 3B19     		adds	r3, r7, r4
 598 03f0 1B78     		ldrb	r3, [r3]
 599 03f2 391D     		adds	r1, r7, #4
 600 03f4 0122     		movs	r2, #1
 601 03f6 1800     		movs	r0, r3
 602 03f8 FFF7FEFF 		bl	i2cWrite
  75:tsl2561.c     ****     i2cRead(tslReadAddress, readValue, 1);
 603              		.loc 1 75 0
 604 03fc 0E23     		movs	r3, #14
 605 03fe FB18     		adds	r3, r7, r3
 606 0400 1B78     		ldrb	r3, [r3]
 607 0402 3900     		movs	r1, r7
 608 0404 0122     		movs	r2, #1
 609 0406 1800     		movs	r0, r3
ARM GAS  C:\Users\embedded\AppData\Local\Temp\cc83eflT.s 			page 13


 610 0408 FFF7FEFF 		bl	i2cRead
  76:tsl2561.c     ****     channel1 = (channel1 | (tU16)readValue[0]);
 611              		.loc 1 76 0
 612 040c 3B00     		movs	r3, r7
 613 040e 1B78     		ldrb	r3, [r3]
 614 0410 1B04     		lsls	r3, r3, #16
 615 0412 190C     		lsrs	r1, r3, #16
 616 0414 BB19     		adds	r3, r7, r6
 617 0416 BA19     		adds	r2, r7, r6
 618 0418 1288     		ldrh	r2, [r2]
 619 041a 0A43     		orrs	r2, r1
 620 041c 1A80     		strh	r2, [r3]
  77:tsl2561.c     **** 
  78:tsl2561.c     ****     // Command for reading high byte of 16 bit channel 1
  79:tsl2561.c     ****     command[0] = (((tU8)0x09 << 4) | (tU8)0x0F);
 621              		.loc 1 79 0
 622 041e 3B1D     		adds	r3, r7, #4
 623 0420 9F22     		movs	r2, #159
 624 0422 1A70     		strb	r2, [r3]
  80:tsl2561.c     ****     i2cWrite(tslWriteAddress, command, 1);
 625              		.loc 1 80 0
 626 0424 3B19     		adds	r3, r7, r4
 627 0426 1B78     		ldrb	r3, [r3]
 628 0428 391D     		adds	r1, r7, #4
 629 042a 0122     		movs	r2, #1
 630 042c 1800     		movs	r0, r3
 631 042e FFF7FEFF 		bl	i2cWrite
  81:tsl2561.c     ****     i2cRead(tslReadAddress, readValue, 1);
 632              		.loc 1 81 0
 633 0432 0E23     		movs	r3, #14
 634 0434 FB18     		adds	r3, r7, r3
 635 0436 1B78     		ldrb	r3, [r3]
 636 0438 3900     		movs	r1, r7
 637 043a 0122     		movs	r2, #1
 638 043c 1800     		movs	r0, r3
 639 043e FFF7FEFF 		bl	i2cRead
  82:tsl2561.c     ****     channel1 = (channel1 | ((tU16)readValue[0] << 8));
 640              		.loc 1 82 0
 641 0442 3B00     		movs	r3, r7
 642 0444 1B78     		ldrb	r3, [r3]
 643 0446 1B02     		lsls	r3, r3, #8
 644 0448 1B04     		lsls	r3, r3, #16
 645 044a 1B14     		asrs	r3, r3, #16
 646 044c BA19     		adds	r2, r7, r6
 647 044e 0021     		movs	r1, #0
 648 0450 525E     		ldrsh	r2, [r2, r1]
 649 0452 1343     		orrs	r3, r2
 650 0454 1B04     		lsls	r3, r3, #16
 651 0456 1B14     		asrs	r3, r3, #16
 652 0458 BA19     		adds	r2, r7, r6
 653 045a 1380     		strh	r3, [r2]
  83:tsl2561.c     **** 
  84:tsl2561.c     ****     // Sending a command to the device to power it down.
  85:tsl2561.c     ****     command[0] = (((tU8)0x09 << 4) | (tU8)0x00);  // Change target register to control register
 654              		.loc 1 85 0
 655 045c 3B1D     		adds	r3, r7, #4
 656 045e 9022     		movs	r2, #144
ARM GAS  C:\Users\embedded\AppData\Local\Temp\cc83eflT.s 			page 14


 657 0460 1A70     		strb	r2, [r3]
  86:tsl2561.c     ****     command[1] = ((tU8)0x00);  // Wrtie 0x00 (so power down) the device
 658              		.loc 1 86 0
 659 0462 3B1D     		adds	r3, r7, #4
 660 0464 0022     		movs	r2, #0
 661 0466 5A70     		strb	r2, [r3, #1]
  87:tsl2561.c     ****     i2cWrite(tslWriteAddress, command, 2);
 662              		.loc 1 87 0
 663 0468 3B19     		adds	r3, r7, r4
 664 046a 1B78     		ldrb	r3, [r3]
 665 046c 391D     		adds	r1, r7, #4
 666 046e 0222     		movs	r2, #2
 667 0470 1800     		movs	r0, r3
 668 0472 FFF7FEFF 		bl	i2cWrite
  88:tsl2561.c     **** 
  89:tsl2561.c     ****     tU16 calculatedBrightness = calculateBrightness(channel0, channel1);
 669              		.loc 1 89 0
 670 0476 BC1D     		adds	r4, r7, #6
 671 0478 BB19     		adds	r3, r7, r6
 672 047a 1A88     		ldrh	r2, [r3]
 673 047c 7B19     		adds	r3, r7, r5
 674 047e 1B88     		ldrh	r3, [r3]
 675 0480 1100     		movs	r1, r2
 676 0482 1800     		movs	r0, r3
 677 0484 FFF7FEFF 		bl	calculateBrightness
 678 0488 0300     		movs	r3, r0
 679 048a 2380     		strh	r3, [r4]
  90:tsl2561.c     **** 
  91:tsl2561.c     ****     return calculatedBrightness;
 680              		.loc 1 91 0
 681 048c BB1D     		adds	r3, r7, #6
 682 048e 1B88     		ldrh	r3, [r3]
  92:tsl2561.c     **** }...
 683              		.loc 1 92 0
 684 0490 1800     		movs	r0, r3
 685 0492 BD46     		mov	sp, r7
 686 0494 05B0     		add	sp, sp, #20
 687              		@ sp needed
 688 0496 F0BC     		pop	{r4, r5, r6, r7}
 689 0498 02BC     		pop	{r1}
 690 049a 0847     		bx	r1
 691              		.cfi_endproc
 692              	.LFE1:
 693              		.size	measureBrightness, .-measureBrightness
 694              	.Letext0:
 695              		.file 2 "general.h"
 696              		.file 3 "c:\\embedded\\tools\\arm-none-eabi\\include\\sys\\lock.h"
 697              		.file 4 "c:\\embedded\\tools\\arm-none-eabi\\include\\sys\\_types.h"
 698              		.file 5 "c:\\embedded\\tools\\lib\\gcc\\arm-none-eabi\\7.3.1\\include\\stddef.h"
 699              		.file 6 "c:\\embedded\\tools\\arm-none-eabi\\include\\sys\\reent.h"
 700              		.file 7 "c:\\embedded\\tools\\arm-none-eabi\\include\\math.h"