ARM GAS  C:\Users\embedded\AppData\Local\Temp\cc6lm5ee.s 			page 1


   1              		.cpu arm7tdmi
   2              		.eabi_attribute 20, 1
   3              		.eabi_attribute 21, 1
   4              		.eabi_attribute 23, 3
   5              		.eabi_attribute 24, 1
   6              		.eabi_attribute 25, 1
   7              		.eabi_attribute 26, 1
   8              		.eabi_attribute 30, 6
   9              		.eabi_attribute 34, 0
  10              		.eabi_attribute 18, 4
  11              		.file	"irq_handler.c"
  12              		.text
  13              	.Ltext0:
  14              		.cfi_sections	.debug_frame
  15              		.align	2
  16              		.global	IRQ_Test
  17              		.syntax unified
  18              		.arm
  19              		.fpu softvfp
  20              		.type	IRQ_Test, %function
  21              	IRQ_Test:
  22              	.LFB0:
  23              		.file 1 "irq_handler.c"
   1:irq_handler.c **** /*************************************************************************************
   2:irq_handler.c ****  *
   3:irq_handler.c ****  * @Description:
   4:irq_handler.c ****  * Przykładowa procedura obsługi przerwania dostosowania do 
   5:irq_handler.c ****  * obsługi przerwań wektoryzowanych.
   6:irq_handler.c ****  * Procedura ta przełącza stan diody P0.9.
   7:irq_handler.c ****  * 
   8:irq_handler.c ****  * 
   9:irq_handler.c ****  * @Authors: Michał Morawski, 
  10:irq_handler.c ****  *           Daniel Arendt, 
  11:irq_handler.c ****  *           Przemysław Ignaciuk,
  12:irq_handler.c ****  *           Marcin Kwapisz
  13:irq_handler.c ****  *
  14:irq_handler.c ****  * @Change log:
  15:irq_handler.c ****  *           2016.12.01: Wersja oryginalna.
  16:irq_handler.c ****  *
  17:irq_handler.c ****  ******************************************************************************/
  18:irq_handler.c **** 
  19:irq_handler.c **** #include "../general.h"
  20:irq_handler.c **** #include <lpc2xxx.h>
  21:irq_handler.c **** #include "irq_handler.h"
  22:irq_handler.c **** #include "../timer.h"
  23:irq_handler.c **** 
  24:irq_handler.c **** #include "../Common_Def.h"
  25:irq_handler.c **** 
  26:irq_handler.c **** void IRQ_Test(void)
  27:irq_handler.c **** {
  24              		.loc 1 27 0
  25              		.cfi_startproc
  26              		@ Interrupt Service Routine.
  27              		@ args = 0, pretend = 0, frame = 0
  28              		@ frame_needed = 1, uses_anonymous_args = 0
  29 0000 04E04EE2 		sub	lr, lr, #4
  30 0004 1F582DE9 		push	{r0, r1, r2, r3, r4, fp, ip, lr}
ARM GAS  C:\Users\embedded\AppData\Local\Temp\cc6lm5ee.s 			page 2


  31              	.LCFI0:
  32              		.cfi_def_cfa_offset 32
  33              		.cfi_offset 0, -32
  34              		.cfi_offset 1, -28
  35              		.cfi_offset 2, -24
  36              		.cfi_offset 3, -20
  37              		.cfi_offset 4, -16
  38              		.cfi_offset 11, -12
  39              		.cfi_offset 12, -8
  40              		.cfi_offset 14, -4
  41 0008 1CB08DE2 		add	fp, sp, #28
  42              	.LCFI1:
  43              		.cfi_def_cfa 11, 4
  44              	.LBB2:
  28:irq_handler.c **** 	if (TIMER_MR0_INT & T1IR)
  45              		.loc 1 28 0
  46 000c 0000A0E3 		mov	r0, #0
  47 0010 FEFFFFEB 		bl	_BIT
  48 0014 0030A0E1 		mov	r3, r0
  49 0018 0320A0E1 		mov	r2, r3
  50 001c 8C309FE5 		ldr	r3, .L4
  51 0020 003093E5 		ldr	r3, [r3]
  52 0024 023003E0 		and	r3, r3, r2
  53 0028 000053E3 		cmp	r3, #0
  54 002c 0800000A 		beq	.L2
  29:irq_handler.c ****     {
  30:irq_handler.c **** 		IOCLR1 = DIODA_PRAWA;         // (1 << 17)
  55              		.loc 1 30 0
  56 0030 7C309FE5 		ldr	r3, .L4+4
  57 0034 0228A0E3 		mov	r2, #131072
  58 0038 002083E5 		str	r2, [r3]
  31:irq_handler.c ****         T1IR   = TIMER_MR0_INT;       // Informacja dla Timera #1,
  59              		.loc 1 31 0
  60 003c 0000A0E3 		mov	r0, #0
  61 0040 FEFFFFEB 		bl	_BIT
  62 0044 0020A0E1 		mov	r2, r0
  63 0048 60309FE5 		ldr	r3, .L4
  64 004c 002083E5 		str	r2, [r3]
  65 0050 100000EA 		b	.L3
  66              	.L2:
  32:irq_handler.c **** 	                                  // że jego przerwanie zostało obsłużone.
  33:irq_handler.c ****     }
  34:irq_handler.c ****     else if (TIMER_MR1_INT & T1IR)
  67              		.loc 1 34 0
  68 0054 0100A0E3 		mov	r0, #1
  69 0058 FEFFFFEB 		bl	_BIT
  70 005c 0030A0E1 		mov	r3, r0
  71 0060 0320A0E1 		mov	r2, r3
  72 0064 44309FE5 		ldr	r3, .L4
  73 0068 003093E5 		ldr	r3, [r3]
  74 006c 023003E0 		and	r3, r3, r2
  75 0070 000053E3 		cmp	r3, #0
  76 0074 0700000A 		beq	.L3
  35:irq_handler.c ****     {
  36:irq_handler.c ****         IOSET1 = DIODA_PRAWA;         // (1 << 17)
  77              		.loc 1 36 0
  78 0078 38309FE5 		ldr	r3, .L4+8
ARM GAS  C:\Users\embedded\AppData\Local\Temp\cc6lm5ee.s 			page 3


  79 007c 0228A0E3 		mov	r2, #131072
  80 0080 002083E5 		str	r2, [r3]
  37:irq_handler.c ****         T1IR   = TIMER_MR1_INT;       // Informacja dla Timera #1,
  81              		.loc 1 37 0
  82 0084 0100A0E3 		mov	r0, #1
  83 0088 FEFFFFEB 		bl	_BIT
  84 008c 0020A0E1 		mov	r2, r0
  85 0090 18309FE5 		ldr	r3, .L4
  86 0094 002083E5 		str	r2, [r3]
  87              	.L3:
  88              	.LBE2:
  38:irq_handler.c **** 	                                  // że jego przerwanie zostało obsłużone.
  39:irq_handler.c ****     }
  40:irq_handler.c ****     VICVectAddr = 0;                  // End of Interrupt -> informacja dla
  89              		.loc 1 40 0
  90 0098 1C309FE5 		ldr	r3, .L4+12
  91 009c 0020A0E3 		mov	r2, #0
  92 00a0 002083E5 		str	r2, [r3]
  41:irq_handler.c ****                                       // kontrolera przerwań
  42:irq_handler.c **** }
  93              		.loc 1 42 0
  94 00a4 0000A0E1 		nop
  95 00a8 1CD04BE2 		sub	sp, fp, #28
  96              	.LCFI2:
  97              		.cfi_def_cfa 13, 32
  98              		@ sp needed
  99 00ac 1F98FDE8 		ldmfd	sp!, {r0, r1, r2, r3, r4, fp, ip, pc}^
 100              	.L5:
 101              		.align	2
 102              	.L4:
 103 00b0 008000E0 		.word	-536838144
 104 00b4 1C8002E0 		.word	-536707044
 105 00b8 148002E0 		.word	-536707052
 106 00bc 30F0FFFF 		.word	-4048
 107              		.cfi_endproc
 108              	.LFE0:
 109              		.size	IRQ_Test, .-IRQ_Test
 110              	.Letext0:
 111              		.section	.debug_info,"",%progbits
 112              	.Ldebug_info0:
 113 0000 8A000000 		.4byte	0x8a
 114 0004 0200     		.2byte	0x2
 115 0006 00000000 		.4byte	.Ldebug_abbrev0
 116 000a 04       		.byte	0x4
 117 000b 01       		.uleb128 0x1
 118 000c 3B000000 		.4byte	.LASF7
 119 0010 0C       		.byte	0xc
 120 0011 07010000 		.4byte	.LASF8
 121 0015 B3000000 		.4byte	.LASF9
 122 0019 00000000 		.4byte	.Ltext0
 123 001d C0000000 		.4byte	.Letext0
 124 0021 00000000 		.4byte	.Ldebug_line0
 125 0025 02       		.uleb128 0x2
 126 0026 01       		.byte	0x1
 127 0027 08       		.byte	0x8
 128 0028 D5000000 		.4byte	.LASF0
 129 002c 02       		.uleb128 0x2
ARM GAS  C:\Users\embedded\AppData\Local\Temp\cc6lm5ee.s 			page 4


 130 002d 02       		.byte	0x2
 131 002e 07       		.byte	0x7
 132 002f E8000000 		.4byte	.LASF1
 133 0033 02       		.uleb128 0x2
 134 0034 04       		.byte	0x4
 135 0035 07       		.byte	0x7
 136 0036 17000000 		.4byte	.LASF2
 137 003a 02       		.uleb128 0x2
 138 003b 08       		.byte	0x8
 139 003c 07       		.byte	0x7
 140 003d 24000000 		.4byte	.LASF3
 141 0041 02       		.uleb128 0x2
 142 0042 01       		.byte	0x1
 143 0043 06       		.byte	0x6
 144 0044 FB000000 		.4byte	.LASF4
 145 0048 02       		.uleb128 0x2
 146 0049 02       		.byte	0x2
 147 004a 05       		.byte	0x5
 148 004b 15010000 		.4byte	.LASF5
 149 004f 03       		.uleb128 0x3
 150 0050 04       		.byte	0x4
 151 0051 05       		.byte	0x5
 152 0052 696E7400 		.ascii	"int\000"
 153 0056 02       		.uleb128 0x2
 154 0057 08       		.byte	0x8
 155 0058 05       		.byte	0x5
 156 0059 00000000 		.4byte	.LASF6
 157 005d 04       		.uleb128 0x4
 158 005e 01       		.byte	0x1
 159 005f 0E000000 		.4byte	.LASF10
 160 0063 01       		.byte	0x1
 161 0064 1A       		.byte	0x1a
 162 0065 01       		.byte	0x1
 163 0066 00000000 		.4byte	.LFB0
 164 006a C0000000 		.4byte	.LFE0
 165 006e 00000000 		.4byte	.LLST0
 166 0072 01       		.byte	0x1
 167 0073 05       		.uleb128 0x5
 168 0074 0C000000 		.4byte	.LBB2
 169 0078 98000000 		.4byte	.LBE2
 170 007c 06       		.uleb128 0x6
 171 007d 01       		.byte	0x1
 172 007e E3000000 		.4byte	.LASF11
 173 0082 01       		.byte	0x1
 174 0083 1C       		.byte	0x1c
 175 0084 4F000000 		.4byte	0x4f
 176 0088 01       		.byte	0x1
 177 0089 07       		.uleb128 0x7
 178 008a 00       		.byte	0
 179 008b 00       		.byte	0
 180 008c 00       		.byte	0
 181 008d 00       		.byte	0
 182              		.section	.debug_abbrev,"",%progbits
 183              	.Ldebug_abbrev0:
 184 0000 01       		.uleb128 0x1
 185 0001 11       		.uleb128 0x11
 186 0002 01       		.byte	0x1
ARM GAS  C:\Users\embedded\AppData\Local\Temp\cc6lm5ee.s 			page 5


 187 0003 25       		.uleb128 0x25
 188 0004 0E       		.uleb128 0xe
 189 0005 13       		.uleb128 0x13
 190 0006 0B       		.uleb128 0xb
 191 0007 03       		.uleb128 0x3
 192 0008 0E       		.uleb128 0xe
 193 0009 1B       		.uleb128 0x1b
 194 000a 0E       		.uleb128 0xe
 195 000b 11       		.uleb128 0x11
 196 000c 01       		.uleb128 0x1
 197 000d 12       		.uleb128 0x12
 198 000e 01       		.uleb128 0x1
 199 000f 10       		.uleb128 0x10
 200 0010 06       		.uleb128 0x6
 201 0011 00       		.byte	0
 202 0012 00       		.byte	0
 203 0013 02       		.uleb128 0x2
 204 0014 24       		.uleb128 0x24
 205 0015 00       		.byte	0
 206 0016 0B       		.uleb128 0xb
 207 0017 0B       		.uleb128 0xb
 208 0018 3E       		.uleb128 0x3e
 209 0019 0B       		.uleb128 0xb
 210 001a 03       		.uleb128 0x3
 211 001b 0E       		.uleb128 0xe
 212 001c 00       		.byte	0
 213 001d 00       		.byte	0
 214 001e 03       		.uleb128 0x3
 215 001f 24       		.uleb128 0x24
 216 0020 00       		.byte	0
 217 0021 0B       		.uleb128 0xb
 218 0022 0B       		.uleb128 0xb
 219 0023 3E       		.uleb128 0x3e
 220 0024 0B       		.uleb128 0xb
 221 0025 03       		.uleb128 0x3
 222 0026 08       		.uleb128 0x8
 223 0027 00       		.byte	0
 224 0028 00       		.byte	0
 225 0029 04       		.uleb128 0x4
 226 002a 2E       		.uleb128 0x2e
 227 002b 01       		.byte	0x1
 228 002c 3F       		.uleb128 0x3f
 229 002d 0C       		.uleb128 0xc
 230 002e 03       		.uleb128 0x3
 231 002f 0E       		.uleb128 0xe
 232 0030 3A       		.uleb128 0x3a
 233 0031 0B       		.uleb128 0xb
 234 0032 3B       		.uleb128 0x3b
 235 0033 0B       		.uleb128 0xb
 236 0034 27       		.uleb128 0x27
 237 0035 0C       		.uleb128 0xc
 238 0036 11       		.uleb128 0x11
 239 0037 01       		.uleb128 0x1
 240 0038 12       		.uleb128 0x12
 241 0039 01       		.uleb128 0x1
 242 003a 40       		.uleb128 0x40
 243 003b 06       		.uleb128 0x6
ARM GAS  C:\Users\embedded\AppData\Local\Temp\cc6lm5ee.s 			page 6


 244 003c 9642     		.uleb128 0x2116
 245 003e 0C       		.uleb128 0xc
 246 003f 00       		.byte	0
 247 0040 00       		.byte	0
 248 0041 05       		.uleb128 0x5
 249 0042 0B       		.uleb128 0xb
 250 0043 01       		.byte	0x1
 251 0044 11       		.uleb128 0x11
 252 0045 01       		.uleb128 0x1
 253 0046 12       		.uleb128 0x12
 254 0047 01       		.uleb128 0x1
 255 0048 00       		.byte	0
 256 0049 00       		.byte	0
 257 004a 06       		.uleb128 0x6
 258 004b 2E       		.uleb128 0x2e
 259 004c 01       		.byte	0x1
 260 004d 3F       		.uleb128 0x3f
 261 004e 0C       		.uleb128 0xc
 262 004f 03       		.uleb128 0x3
 263 0050 0E       		.uleb128 0xe
 264 0051 3A       		.uleb128 0x3a
 265 0052 0B       		.uleb128 0xb
 266 0053 3B       		.uleb128 0x3b
 267 0054 0B       		.uleb128 0xb
 268 0055 49       		.uleb128 0x49
 269 0056 13       		.uleb128 0x13
 270 0057 3C       		.uleb128 0x3c
 271 0058 0C       		.uleb128 0xc
 272 0059 00       		.byte	0
 273 005a 00       		.byte	0
 274 005b 07       		.uleb128 0x7
 275 005c 18       		.uleb128 0x18
 276 005d 00       		.byte	0
 277 005e 00       		.byte	0
 278 005f 00       		.byte	0
 279 0060 00       		.byte	0
 280              		.section	.debug_loc,"",%progbits
 281              	.Ldebug_loc0:
 282              	.LLST0:
 283 0000 00000000 		.4byte	.LFB0-.Ltext0
 284 0004 08000000 		.4byte	.LCFI0-.Ltext0
 285 0008 0200     		.2byte	0x2
 286 000a 7D       		.byte	0x7d
 287 000b 00       		.sleb128 0
 288 000c 08000000 		.4byte	.LCFI0-.Ltext0
 289 0010 0C000000 		.4byte	.LCFI1-.Ltext0
 290 0014 0200     		.2byte	0x2
 291 0016 7D       		.byte	0x7d
 292 0017 20       		.sleb128 32
 293 0018 0C000000 		.4byte	.LCFI1-.Ltext0
 294 001c AC000000 		.4byte	.LCFI2-.Ltext0
 295 0020 0200     		.2byte	0x2
 296 0022 7B       		.byte	0x7b
 297 0023 04       		.sleb128 4
 298 0024 AC000000 		.4byte	.LCFI2-.Ltext0
 299 0028 C0000000 		.4byte	.LFE0-.Ltext0
 300 002c 0200     		.2byte	0x2
ARM GAS  C:\Users\embedded\AppData\Local\Temp\cc6lm5ee.s 			page 7


 301 002e 7D       		.byte	0x7d
 302 002f 20       		.sleb128 32
 303 0030 00000000 		.4byte	0
 304 0034 00000000 		.4byte	0
 305              		.section	.debug_aranges,"",%progbits
 306 0000 1C000000 		.4byte	0x1c
 307 0004 0200     		.2byte	0x2
 308 0006 00000000 		.4byte	.Ldebug_info0
 309 000a 04       		.byte	0x4
 310 000b 00       		.byte	0
 311 000c 0000     		.2byte	0
 312 000e 0000     		.2byte	0
 313 0010 00000000 		.4byte	.Ltext0
 314 0014 C0000000 		.4byte	.Letext0-.Ltext0
 315 0018 00000000 		.4byte	0
 316 001c 00000000 		.4byte	0
 317              		.section	.debug_line,"",%progbits
 318              	.Ldebug_line0:
 319 0000 43000000 		.section	.debug_str,"MS",%progbits,1
 319      02002400 
 319      00000201 
 319      FB0E0D00 
 319      01010101 
 320              	.LASF6:
 321 0000 6C6F6E67 		.ascii	"long long int\000"
 321      206C6F6E 
 321      6720696E 
 321      7400
 322              	.LASF10:
 323 000e 4952515F 		.ascii	"IRQ_Test\000"
 323      54657374 
 323      00
 324              	.LASF2:
 325 0017 756E7369 		.ascii	"unsigned int\000"
 325      676E6564 
 325      20696E74 
 325      00
 326              	.LASF3:
 327 0024 6C6F6E67 		.ascii	"long long unsigned int\000"
 327      206C6F6E 
 327      6720756E 
 327      7369676E 
 327      65642069 
 328              	.LASF7:
 329 003b 474E5520 		.ascii	"GNU C11 7.3.1 20180622 (release) [ARM/embedded-7-br"
 329      43313120 
 329      372E332E 
 329      31203230 
 329      31383036 
 330 006e 616E6368 		.ascii	"anch revision 261907] -mcpu=arm7tdmi -mthumb-interw"
 330      20726576 
 330      6973696F 
 330      6E203236 
 330      31393037 
 331 00a1 6F726B20 		.ascii	"ork -gdwarf-2 -O0\000"
 331      2D676477 
 331      6172662D 
ARM GAS  C:\Users\embedded\AppData\Local\Temp\cc6lm5ee.s 			page 8


 331      32202D4F 
 331      3000
 332              	.LASF9:
 333 00b3 433A5C45 		.ascii	"C:\\Embedded\\2138MiniDemo\\2138\\irq\000"
 333      6D626564 
 333      6465645C 
 333      32313338 
 333      4D696E69 
 334              	.LASF0:
 335 00d5 756E7369 		.ascii	"unsigned char\000"
 335      676E6564 
 335      20636861 
 335      7200
 336              	.LASF11:
 337 00e3 5F424954 		.ascii	"_BIT\000"
 337      00
 338              	.LASF1:
 339 00e8 73686F72 		.ascii	"short unsigned int\000"
 339      7420756E 
 339      7369676E 
 339      65642069 
 339      6E7400
 340              	.LASF4:
 341 00fb 7369676E 		.ascii	"signed char\000"
 341      65642063 
 341      68617200 
 342              	.LASF8:
 343 0107 6972715F 		.ascii	"irq_handler.c\000"
 343      68616E64 
 343      6C65722E 
 343      6300
 344              	.LASF5:
 345 0115 73686F72 		.ascii	"short int\000"
 345      7420696E 
 345      7400
 346              		.ident	"GCC: (GNU Tools for Arm Embedded Processors 7-2018-q2-update) 7.3.1 20180622 (release) [AR
ARM GAS  C:\Users\embedded\AppData\Local\Temp\cc6lm5ee.s 			page 9


DEFINED SYMBOLS
                            *ABS*:00000000 irq_handler.c
C:\Users\embedded\AppData\Local\Temp\cc6lm5ee.s:15     .text:00000000 $a
C:\Users\embedded\AppData\Local\Temp\cc6lm5ee.s:21     .text:00000000 IRQ_Test
C:\Users\embedded\AppData\Local\Temp\cc6lm5ee.s:103    .text:000000b0 $d

UNDEFINED SYMBOLS
_BIT
